Date     Cusip     ISIN         Ticker   Exchange     Name                         Shares     Mkt Value    Weight ES Economic Sector                SubS SubSector                                        IND     Industry                                         
-------- --------- ------------ -------  ------------ ------------------------- --------- ------------- --------- -- ------------------------------ ---- ------------------------------------------------ ------- ------------------------------------------------ 
20160729 000361105 US0003611052 AIR      NYSE         AAR CORP                      32667     789234.72  0.093851 08 Producer Durables              0840 Transportation & Freight                         0840300 Aerospace                                        
20160729 00081T108 US00081T1088 ACCO     NYSE         ACCO BRANDS CORP             105055    1180818.20  0.140416 08 Producer Durables              0820 Manufacturing & Production                       0820650 Office Supplies Equipment                        
20160729 000868109 US0008681092 ACNB     NASDAQ       ACNB CORP                      5888     152204.80  0.018099 10 Financial Services             1010 Banks                                            1010400 Banks: Diversified                               
20160729 000957100 US0009571003 ABM      NYSE         ABM INDUSTRIES INC            55106    2050494.26  0.243833 08 Producer Durables              0850 Commercial Services                              0850484 Environmental Maint & Security Service           
20160729 001228105 US0012281053 MITT     NYSE         AG MORTGAGE INVT TR INC       27761     415859.78  0.049452 10 Financial Services             1060 Real Estate Investment Trusts                    1060930 Mortgage REIT: Residential                       
20160729 001547108 US0015471081 AKS      NYSE         AK STEEL HOLDING CORP        234429    1537854.24  0.182873 07 Materials & Processing         0740 Metals & Minerals                                0740835 Steel                                            
20160729 00163U106 US00163U1060 AMAG     NASDAQ       AMAG PHARMACEUTICALS INC      23881     633538.71  0.075337 02 Health Care                    0230 Pharmaceuticals & Biotech                        0230412 Biotechnology                                    
20160729 00165C104 US00165C1045 AMC      NYSE         AMC ENTERTAINMENT             19763     581413.10  0.069138 03 Consumer Discretionary         0350 Media                                            0350480 Entertainment                                    
20160729 00191G103 US00191G1031 ARC      NYSE         ARC DOCUMENT SOLUTIONS        40583     159897.02  0.019014 01 Technology                     0130 Information Technology                           0130439 Computer Services Software & Systems             
20160729 00215F107 US00215F1075 ATNI     NASDAQ       ATN INTERNATIONAL INC         10422     766225.44  0.091115 11 Utilities                      1110 Utilities                                        1110880 Utilities: Telecommunications                    
20160729 00234P102 US00234P1021 AVHI     NASDAQ       A V HOMES INC                  8365     119785.31  0.014244 10 Financial Services             1050 Real Estate                                      1050802 Real Estate Holding and Development              
20160729 002444107 US0024441075 AVX      NYSE         AVX CORP                      45986     628168.76  0.074698 01 Technology                     0120 Electronics                                      0120463 Electronic Components                            
20160729 002535300 US0025353006 AAN      NYSE         AARONS INC                    64965    1555911.75  0.185020 03 Consumer Discretionary         0360 Retail                                           0360815 Diversified Retail                               
20160729 002896207 US0028962076 ANF      NYSE         ABERCROMBIE & FITCH           67296    1393700.16  0.165731 03 Consumer Discretionary         0360 Retail                                           0360834 Specialty Retail                                 
20160729 003830106 US0038301067 AXAS     NASDAQ       ABRAXAS PETE CORP             67727      78562.27  0.009342 06 Energy                         0620 Non-Renewable Energy                             0620670 Oil: Crude Producers                             
20160729 003881307 US0038813079 ACTG     NASDAQ       ACACIA RESEARCH CORP          49346     266961.86  0.031746 01 Technology                     0120 Electronics                                      0120463 Electronic Components                            
20160729 004239109 US0042391096 AKR      NYSE         ACADIA REALTY TRUST           55105    2075252.53  0.246777 10 Financial Services             1060 Real Estate Investment Trusts                    1060908 Equity REIT: Retail                              
20160729 00430H102 US00430H1023 AXDX     NASDAQ       ACCELERATE DIAGNOSTICS         1456      28629.26  0.003404 02 Health Care                    0230 Pharmaceuticals & Biotech                        0230412 Biotechnology                                    
20160729 004337101 US0043371014 ANCX     NASDAQ       ACCESS NATL CORP               8066     179307.18  0.021322 10 Financial Services             1010 Banks                                            1010400 Banks: Diversified                               
20160729 004446100 US0044461004 ACET     NASDAQ       ACETO CORP                     3162      81305.05  0.009668 07 Materials & Processing         0720 Chemicals and Synthetics                         0720433 Chemicals: Diversified                           
20160729 00484M106 US00484M1062 ACOR     NASDAQ       ACORDA THERAPEUTICS INC       36500     922714.16  0.109724 02 Health Care                    0230 Pharmaceuticals & Biotech                        0230412 Biotechnology                                    
20160729 00508X203 US00508X2036 ATU      NYSE         ACTUANT CORP                  30201     717250.95  0.085291 08 Producer Durables              0810 Machinery                                        0810584 Machinery: Industrial                            
20160729 005094107 US0050941071 ACTA     NASDAQ       ACTUA CORPORATION             35541     354699.18  0.042179 01 Technology                     0130 Information Technology                           0130439 Computer Services Software & Systems             
20160729 005125109 US0051251090 ACXM     NASDAQ       ACXIOM CORP                   39087     897044.58  0.106671 01 Technology                     0130 Information Technology                           0130439 Computer Services Software & Systems             
20160729 00548A106 US00548A1060 ADMS     NASDAQ       ADAMAS PHARMACEUTICALS         8266     124816.58  0.014842 02 Health Care                    0230 Pharmaceuticals & Biotech                        0230412 Biotechnology                                    
20160729 006351308 US0063513081 AE       NYSE MKT     ADAMS RESOURCES & ENERGY       2073      62749.71  0.007462 06 Energy                         0620 Non-Renewable Energy                             0620605 Oil: Refining & Marketing                        
20160729 006739106 US0067391062 ADUS     NASDAQ       ADDUS HOMECARE CORP            6495     122479.57  0.014565 02 Health Care                    0210 Health Care Services                             0210499 Health Care Services                             
20160729 00738A106 US00738A1060 ADTN     NASDAQ       ADTRAN INC                    17145     312049.25  0.037107 01 Technology                     0140 Telecommunication                                0140448 Communications Technology                        
20160729 00770F104 US00770F1049 AEGN     NASDAQ       AEGION CORP                   34535     708658.20  0.084270 08 Producer Durables              0820 Manufacturing & Production                       0820443 Construction                                     
20160729 00773U108 US00773U1088 ADVM     NASDAQ       ADVERUM BIOTECH INC           22730      82282.60  0.009785 02 Health Care                    0230 Pharmaceuticals & Biotech                        0230412 Biotechnology                                    
20160729 007800105 US0078001056 AJRD     NYSE         AEROJET ROCKETDYNE HLDGS      28731     541885.07  0.064438 08 Producer Durables              0840 Transportation & Freight                         0840300 Aerospace                                        
20160729 007903107 US0079031078 AMD      NASDAQ       ADVANCED MICRO DEVICES       337593    2315887.23  0.275392 01 Technology                     0120 Electronics                                      0120476 Semiconductors & Components                      
20160729 007973100 US0079731008 AEIS     NASDAQ       ADVANCED ENERGY INDS INC       1991      81079.30  0.009641 08 Producer Durables              0820 Manufacturing & Production                       0820734 Power Transmission Equip                         
20160729 008073108 US0080731088 AVAV     NASDAQ       AEROVIRONMENT INC             16952     480586.42  0.057149 08 Producer Durables              0840 Transportation & Freight                         0840300 Aerospace                                        
20160729 00847G705 US00847G7051 AGEN     NASDAQ       AGENUS INC                    12349      68537.54  0.008150 02 Health Care                    0230 Pharmaceuticals & Biotech                        0230412 Biotechnology                                    
20160729 00847J105 US00847J1051 AGYS     NASDAQ       AGILYSYS INC                  13691     156342.43  0.018591 01 Technology                     0120 Electronics                                      0120475 Electronics                                      
20160729 008492100 US0084921008 ADC      NYSE         AGREE REALTY CORP             22486    1140489.92  0.135621 10 Financial Services             1060 Real Estate Investment Trusts                    1060908 Equity REIT: Retail                              
20160729 00856G109 US00856G1094 AGFS     NASDAQ       AGROFRESH SOLUTIONS INC       21751     140293.95  0.016683 07 Materials & Processing         0720 Chemicals and Synthetics                         0720485 Fertilizers                                      
20160729 00922R105 US00922R1059 ATSG     NASDAQ       AIR TRANSPORT SERVICES        43929     636078.97  0.075639 08 Producer Durables              0840 Transportation & Freight                         0840310 Air Transport                                    
20160729 00972D105 US00972D1054 AKBA     NASDAQ       AKEBIA THERAPEUTICS INC       24887     222737.77  0.026487 02 Health Care                    0230 Pharmaceuticals & Biotech                        0230412 Biotechnology                                    
20160729 011311107 US0113111076 ALG      NYSE         ALAMO GROUP INC                7217     484410.21  0.057603 08 Producer Durables              0810 Machinery                                        0810570 Machinery: Agricultural                          
20160729 012348108 US0123481089 AIN      NYSE         ALBANY INTERNATIONAL          24079    1019229.95  0.121201 08 Producer Durables              0810 Machinery                                        0810610 Machinery: Specialty                             
20160729 012423109 US0124231095 AMRI     NASDAQ       ALBANY MOLECULAR RESRCH       13610     196526.52  0.023370 02 Health Care                    0230 Pharmaceuticals & Biotech                        0230412 Biotechnology                                    
20160729 014491104 US0144911049 ALEX     NYSE         ALEXANDER & BALDWIN INC       21613     851586.28  0.101266 10 Financial Services             1050 Real Estate                                      1050803 Diversified Real Estate Activities               
20160729 014752109 US0147521092 ALX      NYSE         ALEXANDERS INC                  119      51408.09  0.006113 10 Financial Services             1060 Real Estate Investment Trusts                    1060908 Equity REIT: Retail                              
20160729 016230104 US0162301040 ALCO     NASDAQ       ALICO INC                      2864      84710.32  0.010073 04 Consumer Staples               0410 Food/Beverage & Tobacco                          0410305 Agriculture Fishing & Ranching                   
20160729 01741R102 US01741R1023 ATI      NYSE         ALLEGHENY TECHNOLOGIES       107299    1910995.19  0.227245 07 Materials & Processing         0740 Metals & Minerals                                0740835 Steel                                            
20160729 01748H107 US01748H1077 ABTX     NASDAQ       ALLEGIANCE BANCSHARES          9844     248651.13  0.029568 10 Financial Services             1010 Banks                                            1010400 Banks: Diversified                               
20160729 018522300 US0185223007 ALE      NYSE         ALLETE INC                    49080    3133758.00  0.372649 11 Utilities                      1110 Utilities                                        1110870 Utilities: Electrical                            
20160729 018772301 US0187723012 AOI      NYSE         ALLIANCE ONE INTL INC          8239     142534.70  0.016949 04 Consumer Staples               0410 Food/Beverage & Tobacco                          0410856 Tobacco                                          
20160729 020409108 US0204091088 AFAM     NASDAQ       ALMOST FAMILY INC              6017     239387.03  0.028467 02 Health Care                    0210 Health Care Services                             0210499 Health Care Services                             
20160729 020520102 US0205201025 ALJ      NYSE         ALON USA ENERGY INC           31189     220506.23  0.026221 06 Energy                         0620 Non-Renewable Energy                             0620605 Oil: Refining & Marketing                        
20160729 02153W100 US02153W1009 RESI     NYSE         ALTISOURCE RESIDENTIAL        51711     496425.60  0.059032 10 Financial Services             1050 Real Estate                                      1050802 Real Estate Holding and Development              
20160729 02208R106 US02208R1068 AIMC     NASDAQ       ALTRA INDUSTRIAL MOTION        4282     121621.75  0.014463 08 Producer Durables              0810 Machinery                                        0810584 Machinery: Industrial                            
20160729 023139884 US0231398845 AMBC     NASDAQ       AMBAC FINL GROUP INC          44525     809464.50  0.096257 10 Financial Services             1030 Insurance                                        1030535 Insurance: Multi-Line                            
20160729 02361E108 US02361E1082 AMRC     NYSE         AMERESCO INC                  21002     103959.90  0.012362 06 Energy                         0630 Alternative Energy                               0630478 Alternative Energy                               
20160729 024013104 US0240131047 AAT      NYSE         AMERICAN ASSETS TRST INC      25166    1154572.77  0.137295 10 Financial Services             1060 Real Estate Investment Trusts                    1060908 Equity REIT: Retail                              
20160729 02504A104 US02504A1043 MTGE     NASDAQ       AMERICAN CAP MTG INVT         45464     743791.04  0.088447 10 Financial Services             1060 Real Estate Investment Trusts                    1060930 Mortgage REIT: Residential                       
20160729 02553E106 US02553E1064 AEO      NYSE         AMERICAN EAGLE OUTFITTER      16303     292164.36  0.034743 03 Consumer Discretionary         0360 Retail                                           0360834 Specialty Retail                                 
20160729 025676206 US0256762065 AEL      NYSE         AMERICAN EQUITY INVST         79190    1261496.70  0.150010 10 Financial Services             1030 Insurance                                        1030528 Insurance: Life                                  
20160729 026760405 US0267604058 AMIC     NASDAQ       AMERICAN INDEPENDENCE           346       8525.30  0.001014 10 Financial Services             1030 Insurance                                        1030528 Insurance: Life                                  
20160729 027745108 US0277451086 AMNB     NASDAQ       AMERICAN NATL BANKSHARES       8113     213047.38  0.025334 10 Financial Services             1010 Banks                                            1010400 Banks: Diversified                               
20160729 02913V103 US02913V1035 APEI     NASDAQ       AMER PUBLIC EDUCATION         15305     438335.20  0.052124 03 Consumer Discretionary         0330 Consumer Services                                0330461 Education Services                               
20160729 02916P103 US02916P1030 ARII     NASDAQ       AMERICAN RAILCAR IND           7662     321880.62  0.038276 08 Producer Durables              0840 Transportation & Freight                         0840770 Railroad Equipment                               
20160729 029227105 US0292271055 ARA      NYSE         AMERICAN RENAL ASSOC HLD       1052      25096.16  0.002984 02 Health Care                    0210 Health Care Services                             0210504 Health Care Facilities                           
20160729 029429107 US0294291077 ASEI     NASDAQ       AMERICAN SCIENCE & ENGR        7055     260400.05  0.030965 01 Technology                     0120 Electronics                                      0120475 Electronics                                      
20160729 029899101 US0298991011 AWR      NYSE         AMERICAN STATES WATER CO      12204     527234.57  0.062696 11 Utilities                      1110 Utilities                                        1110882 Utilities: Water                                 
20160729 030111207 US0301112076 AMSC     NASDAQ       AMERICAN SUPERCONDUCTOR       11593     106423.74  0.012655 08 Producer Durables              0830 Scientific Instruments & Services                0830465 Scientific Instruments: Electrical               
20160729 030371108 US0303711081 AVD      NYSE         AMERICAN VANGUARD CORP        27891     415018.08  0.049352 07 Materials & Processing         0720 Chemicals and Synthetics                         0720433 Chemicals: Diversified                           
20160729 03062T105 US03062T1051 CRMT     NASDAQ       AMERICAS CAR-MART INC          7797     273518.76  0.032525 03 Consumer Discretionary         0360 Retail                                           0360834 Specialty Retail                                 
20160729 03071H100 US03071H1005 AMSF     NASDAQ       AMERISAFE INC                  4736     277251.87  0.032969 10 Financial Services             1030 Insurance                                        1030542 Insurance: Property-Casualty                     
20160729 03076K108 US03076K1088 ABCB     NASDAQ       AMERIS BANCORP                 8848     293420.74  0.034892 10 Financial Services             1010 Banks                                            1010400 Banks: Diversified                               
20160729 031001100 US0310011004 ATLO     NASDAQ       AMES NATL CORP                 8464     229797.60  0.027326 10 Financial Services             1010 Banks                                            1010400 Banks: Diversified                               
20160729 031652100 US0316521006 AMKR     NASDAQ       AMKOR TECHNOLOGY INC          93404     587505.73  0.069863 01 Technology                     0120 Electronics                                      0120476 Semiconductors & Components                      
20160729 032037103 US0320371034 AP       NYSE         AMPCO-PITTSBURGH CORP          8459     111743.39  0.013288 07 Materials & Processing         0740 Metals & Minerals                                0740630 Metal Fabricating                                
20160729 032657207 US0326572072 ALOG     NASDAQ       ANALOGIC CORP                 11146     936454.32  0.111358 02 Health Care                    0220 Medical Equipment & Services                     0220471 Medical Equipment                                
20160729 034164103 US0341641035 ANDE     NASDAQ       ANDERSONS INC                 26559     982151.82  0.116792 04 Consumer Staples               0410 Food/Beverage & Tobacco                          0410305 Agriculture Fishing & Ranching                   
20160729 03475V101 US03475V1017 ANGO     NASDAQ       ANGIODYNAMICS INC             26664     442355.76  0.052602 02 Health Care                    0220 Medical Equipment & Services                     0220507 Medical & Dental Instruments & Supplies          
20160729 035255108 US0352551081 ANIK     NASDAQ       ANIKA THERAPEUTICS INC         2632     131390.14  0.015624 02 Health Care                    0220 Medical Equipment & Services                     0220507 Medical & Dental Instruments & Supplies          
20160729 035290105 US0352901054 AXE      NYSE         ANIXTER INTERNATIONAL         28661    1756346.08  0.208855 01 Technology                     0140 Telecommunication                                0140448 Communications Technology                        
20160729 037347101 US0373471012 ANH      NYSE         ANWORTH MORTGAGE ASSET        94609     465476.28  0.055352 10 Financial Services             1060 Real Estate Investment Trusts                    1060932 Mortgage REIT: Diversified                       
20160729 037604105 US0376041051 APOL     NASDAQ       APOLLO EDUCATION GROUP        84399     758747.01  0.090226 03 Consumer Discretionary         0330 Consumer Services                                0330461 Education Services                               
20160729 03762U105 US03762U1051 ARI      NYSE         APOLLO COMMERCIAL RE          58095     944043.75  0.112260 10 Financial Services             1060 Real Estate Investment Trusts                    1060931 Mortgage REIT: Commercial                        
20160729 03763V102 US03763V1026 AMTG     NYSE         APOLLO RESIDENTIAL MTG        31587     428635.59  0.050971 10 Financial Services             1060 Real Estate Investment Trusts                    1060930 Mortgage REIT: Residential                       
20160729 03820C105 US03820C1053 AIT      NYSE         APPLIED INDUSTRIAL TECH       20352     955494.99  0.113622 08 Producer Durables              0810 Machinery                                        0810584 Machinery: Industrial                            
20160729 03823U102 US03823U1025 AAOI     NASDAQ       APPLIED OPTOELECTRONICS       16300     192992.00  0.022950 01 Technology                     0140 Telecommunication                                0140849 Telecommunications Equipment                     
20160729 03874P101 US03874P1012 PETX     NASDAQ       ARATANA THERAPEUTICS INC       2636      20011.49  0.002380 02 Health Care                    0230 Pharmaceuticals & Biotech                        0230460 Pharmaceuticals                                  
20160729 03937C105 US03937C1053 ARCB     NASDAQ       ARCBEST CORPORATION           24321     455045.91  0.054111 08 Producer Durables              0840 Transportation & Freight                         0840865 Truckers                                         
20160729 03957W106 US03957W1062 AROC     NYSE         ARCHROCK INC                  68767     612713.97  0.072860 06 Energy                         0610 Energy Equipment & Services                      0610600 Oil Well Equipment & Services                    
20160729 039670104 US0396701049 ACAT     NASDAQ       ARCTIC CAT INC                 7520     117385.37  0.013959 03 Consumer Discretionary         0340 Leisure                                          0340804 Recreational Vehicles & Boats                    
20160729 039697107 US0396971071 ARDX     NASDAQ       ARDELYX INC                   18931     202176.98  0.024042 02 Health Care                    0230 Pharmaceuticals & Biotech                        0230412 Biotechnology                                    
20160729 04013V108 US04013V1089 ACRE     NYSE         ARES COML REAL ESTATE         26554     337235.80  0.040102 10 Financial Services             1060 Real Estate Investment Trusts                    1060931 Mortgage REIT: Commercial                        
20160729 04033A100 US04033A1007 ARIA     NASDAQ       ARIAD PHARMACEUTICALS         10665     101425.27  0.012061 02 Health Care                    0230 Pharmaceuticals & Biotech                        0230412 Biotechnology                                    
20160729 041356205 US0413562051 AI       NYSE         ARLINGTON ASSET INVT          22286     310443.98  0.036916 10 Financial Services             1040 Investment Banking & Brokerage Services          1040544 Asset Management & Custodian                     
20160729 04208T108 US04208T1088 AHH      NYSE         ARMADA HOFFLER PPTYS INC       3382      50631.08  0.006021 10 Financial Services             1060 Real Estate Investment Trusts                    1060916 Equity REIT: Diversified                         
20160729 042315507 US0423155078 ARR      NYSE         ARMOUR RESIDENTIAL REIT       36316     772804.48  0.091897 10 Financial Services             1060 Real Estate Investment Trusts                    1060930 Mortgage REIT: Residential                       
20160729 04238R106 US04238R1068 AFI      NYSE         ARMSTRONG FLOORING INC        21732     433115.97  0.051504 07 Materials & Processing         0710 Building Materials & Services                    0710430 Building Materials                               
20160729 04269X105 US04269X1054 ARRY     NASDAQ       ARRAY BIOPHARMA INC          129029     482567.80  0.057384 02 Health Care                    0230 Pharmaceuticals & Biotech                        0230412 Biotechnology                                    
20160729 042744102 US0427441029 AROW     NASDAQ       ARROW FINANCIAL CORP          10859     343035.81  0.040792 10 Financial Services             1010 Banks                                            1010400 Banks: Diversified                               
20160729 04280A100 US04280A1007 ARWR     NASDAQ       ARROWHEAD PHARMACEUTICAL       4006      23879.34  0.002840 02 Health Care                    0230 Pharmaceuticals & Biotech                        0230412 Biotechnology                                    
20160729 043113208 US0431132085 ARTNA    NASDAQ       ARTESIAN RESOURCES CORP        7659     261095.31  0.031048 11 Utilities                      1110 Utilities                                        1110882 Utilities: Water                                 
20160729 04351G101 US04351G1013 ASNA     NASDAQ       ASCENA RETAIL GROUP INC      113361     921620.08  0.109594 03 Consumer Discretionary         0360 Retail                                           0360834 Specialty Retail                                 
20160729 043632108 US0436321089 ASCMA    NASDAQ       ASCENT CAPITAL GROUP INC      10083     171612.66  0.020407 08 Producer Durables              0830 Scientific Instruments & Services                0830524 Scientific Instruments: Control & Filter         
20160729 044102101 US0441021013 AHP      NYSE         ASHFORD HOSP PRIME            25383     381760.32  0.045397 10 Financial Services             1060 Real Estate Investment Trusts                    1060909 Equity REIT: Lodging and Resorts                 
20160729 044103109 US0441031095 AHT      NYSE         ASHFORD HOSPITALITY           77251     460415.96  0.054750 10 Financial Services             1060 Real Estate Investment Trusts                    1060909 Equity REIT: Lodging and Resorts                 
20160729 045528106 US0455281065 AC       NYSE         ASSOCIATED CAPITAL GROUP       4441     132741.49  0.015785 10 Financial Services             1040 Investment Banking & Brokerage Services          1040544 Asset Management & Custodian                     
20160729 046224101 US0462241011 ASTE     NASDAQ       ASTEC INDUSTRIES INC          10139     611140.94  0.072673 08 Producer Durables              0810 Machinery                                        0810577 Machinery: Construction & Handling               
20160729 046265104 US0462651045 AF       NYSE         ASTORIA FINANCIAL CORP        90994    1334881.98  0.158737 10 Financial Services             1010 Banks                                            1010820 Banks: Savings/Thrifts & Mortgage Lend           
20160729 046513107 US0465131078 ATRA     NASDAQ       ATARA BIOTHERAPEUTICS         21619     518853.60  0.061699 02 Health Care                    0230 Pharmaceuticals & Biotech                        0230412 Biotechnology                                    
20160729 04744L106 US04744L1061 ATHX     NASDAQ       ATHERSYS INC                   4514      10021.17  0.001192 02 Health Care                    0230 Pharmaceuticals & Biotech                        0230412 Biotechnology                                    
20160729 048269203 US0482692037 ACBI     NASDAQ       ATLANTIC CAPITAL INC          13983     207355.11  0.024657 10 Financial Services             1010 Banks                                            1010400 Banks: Diversified                               
20160729 04878Q863 CA04878Q8636 AT       NYSE         ATLANTIC PWR CORP            120505     303672.60  0.036111 11 Utilities                      1110 Utilities                                        1110870 Utilities: Electrical                            
20160729 049164205 US0491642056 AAWW     NASDAQ       ATLAS AIR WORLDWIDE HLDG      24235    1047679.05  0.124584 08 Producer Durables              0840 Transportation & Freight                         0840310 Air Transport                                    
20160729 04963C209 US04963C2098 ATRC     NASDAQ       ATRICURE INC                   6677     101424.24  0.012061 02 Health Care                    0220 Medical Equipment & Services                     0220507 Medical & Dental Instruments & Supplies          
20160729 050095108 US0500951084 ATW      NYSE         ATWOOD OCEANICS INC           60194     642871.92  0.076447 06 Energy                         0620 Non-Renewable Energy                             0620660 Offshore Drilling & Other Services               
20160729 05275N205 US05275N2053 ABTL     NASDAQ       AUTOBYTEL INC                  6925     102891.35  0.012235 01 Technology                     0130 Information Technology                           0130439 Computer Services Software & Systems             
20160729 05367P100 US05367P1003 AVID     NASDAQ       AVID TECHNOLOGY INC           10357      67428.44  0.008018 01 Technology                     0130 Information Technology                           0130439 Computer Services Software & Systems             
20160729 05379B107 US05379B1070 AVA      NYSE         AVISTA CORP                   62591    2722708.50  0.323769 11 Utilities                      1110 Utilities                                        1110870 Utilities: Electrical                            
20160729 054303102 US0543031027 AVP      NYSE         AVON PRODUCTS INC            342209    1392789.33  0.165623 03 Consumer Discretionary         0320 Consumer Products                                0320450 Cosmetics                                        
20160729 054540208 US0545402085 ACLS     NASDAQ       AXCELIS TECHNOLOGIES INC      28799     308149.30  0.036643 01 Technology                     0120 Electronics                                      0120738 Production Technology Equipment                  
20160729 05463D100 US05463D1000 AXLL     NYSE         AXIALL CORP                   70147    2290299.55  0.272349 07 Materials & Processing         0720 Chemicals and Synthetics                         0720433 Chemicals: Diversified                           
20160729 05540P100 US05540P1003 BBX      NYSE         BBX CAPITAL CORPORATION        2986      57749.24  0.006867 10 Financial Services             1010 Banks                                            1010820 Banks: Savings/Thrifts & Mortgage Lend           
20160729 05566T101 US05566T1016 BNCN     NASDAQ       BNC BANCORP                   33827     820637.59  0.097586 10 Financial Services             1010 Banks                                            1010400 Banks: Diversified                               
20160729 05566U108 US05566U1088 BOFI     NASDAQ       BOFI HLDG INC                  3496      58812.41  0.006994 10 Financial Services             1010 Banks                                            1010820 Banks: Savings/Thrifts & Mortgage Lend           
20160729 05573H108 US05573H1086 BLMT     NASDAQ       BSB BANCORP INC MD             7974     183402.00  0.021809 10 Financial Services             1010 Banks                                            1010820 Banks: Savings/Thrifts & Mortgage Lend           
20160729 05580M108 US05580M1080 RILY     NASDAQ       B. RILEY FINANCIAL INC         9182      83372.56  0.009914 10 Financial Services             1040 Investment Banking & Brokerage Services          1040544 Asset Management & Custodian                     
20160729 05591B109 US05591B1098 BMCH     NASDAQ       BMC STOCK HOLDINGS INC         8223     167338.19  0.019899 07 Materials & Processing         0710 Building Materials & Services                    0710430 Building Materials                               
20160729 05614L100 US05614L1008 BW       NYSE         BABCOCK & WILCOX ENT          45183     694010.88  0.082528 08 Producer Durables              0820 Manufacturing & Production                       0820734 Power Transmission Equip                         
20160729 057755209 US0577552096 BWINB    NASDAQ       BALDWIN & LYONS INC            8901     235787.49  0.028039 10 Financial Services             1030 Insurance                                        1030542 Insurance: Property-Casualty                     
20160729 05945F103 US05945F1030 BANF     NASDAQ       BANCFIRST CORP                 7738     507380.66  0.060335 10 Financial Services             1010 Banks                                            1010400 Banks: Diversified                               
20160729 059692103 US0596921033 BXS      NYSE         BANCORPSOUTH INC              85594    2038849.08  0.242448 10 Financial Services             1010 Banks                                            1010400 Banks: Diversified                               
20160729 05969A105 US05969A1051 TBBK     NASDAQ       BANCORP INC                   34635     183565.50  0.021829 10 Financial Services             1010 Banks                                            1010400 Banks: Diversified                               
20160729 05990K106 US05990K1060 BANC     NYSE         BANC OF CALIFORNIA INC        13744     304863.66  0.036253 10 Financial Services             1010 Banks                                            1010820 Banks: Savings/Thrifts & Mortgage Lend           
20160729 063425102 US0634251021 BMRC     NASDAQ       BANK OF MARIN BANCORP          5896     292323.68  0.034761 10 Financial Services             1010 Banks                                            1010400 Banks: Diversified                               
20160729 063750103 US0637501034 BKMU     NASDAQ       BANK MUTUAL CORP              40334     308151.76  0.036644 10 Financial Services             1010 Banks                                            1010820 Banks: Savings/Thrifts & Mortgage Lend           
20160729 06643P104 US06643P1049 BFIN     NASDAQ       BANKFINANCIAL CORP            15005     183061.00  0.021769 10 Financial Services             1010 Banks                                            1010820 Banks: Savings/Thrifts & Mortgage Lend           
20160729 06647F102 US06647F1021 RATE     NYSE         BANKRATE INC                  46860     373474.20  0.044411 01 Technology                     0130 Information Technology                           0130439 Computer Services Software & Systems             
20160729 06652V208 US06652V2088 BANR     NASDAQ       BANNER CORP                   29672    1238509.28  0.147276 10 Financial Services             1010 Banks                                            1010400 Banks: Diversified                               
20160729 06654A103 US06654A1034 BWFG     NASDAQ       BANKWELL FINL GROUP INC        4703     103501.23  0.012308 10 Financial Services             1010 Banks                                            1010400 Banks: Diversified                               
20160729 066849100 US0668491006 BHB      NYSE MKT     BAR HBR BANKSHARES             5875     215495.00  0.025625 10 Financial Services             1010 Banks                                            1010400 Banks: Diversified                               
20160729 067774109 US0677741094 BKS      NYSE         BARNES & NOBLE INC            62463     817016.04  0.097155 03 Consumer Discretionary         0360 Retail                                           0360834 Specialty Retail                                 
20160729 06777U101 US06777U1016 BNED     NYSE         BARNES & NOBLE EDUCATION      39595     457718.20  0.054429 03 Consumer Discretionary         0360 Retail                                           0360834 Specialty Retail                                 
20160729 067806109 US0678061096 B        NYSE         BARNES GROUP INC              49671    1884021.03  0.224037 08 Producer Durables              0820 Manufacturing & Production                       0820453 Diversified Manufacturing Operations             
20160729 06846N104 US06846N1046 BBG      NYSE         BILL BARRETT CORP             48443     289204.71  0.034391 06 Energy                         0620 Non-Renewable Energy                             0620670 Oil: Crude Producers                             
20160729 070203104 US0702031040 BSET     NASDAQ       BASSETT FURNITURE INDS         4665     120504.08  0.014330 03 Consumer Discretionary         0320 Consumer Products                                0320523 Household Furnishings                            
20160729 073271108 US0732711082 BV       NASDAQ       BAZAARVOICE INC               81141     336735.15  0.040043 01 Technology                     0130 Information Technology                           0130439 Computer Services Software & Systems             
20160729 073295107 US0732951076 BBCN     NASDAQ       BBCN BANCORP INC              76844    1181092.28  0.140449 10 Financial Services             1010 Banks                                            1010400 Banks: Diversified                               
20160729 073844102 US0738441023 BSF      NASDAQ       BEAR STATE FINL INC           17738     169220.52  0.020123 10 Financial Services             1010 Banks                                            1010820 Banks: Savings/Thrifts & Mortgage Lend           
20160729 07556Q881 US07556Q8814 BZH      NYSE         BEAZER HOMES USA INC          31109     298335.31  0.035476 03 Consumer Discretionary         0320 Consumer Products                                0320501 Homebuilding                                     
20160729 077347300 US0773473006 BELFB    NASDAQ       BEL FUSE INC                   9148     187442.52  0.022290 01 Technology                     0140 Telecommunication                                0140448 Communications Technology                        
20160729 079481107 US0794811077 BLCM     NASDAQ       BELLICUM PHARMACEUTICALS       6895     109504.73  0.013022 02 Health Care                    0230 Pharmaceuticals & Biotech                        0230412 Biotechnology                                    
20160729 08160H101 US08160H1014 BHE      NYSE         BENCHMARK ELECTRONICS         48909    1146426.96  0.136327 01 Technology                     0120 Electronics                                      0120643 Technology: Misc                                 
20160729 08171T102 US08171T1025 BNCL     NASDAQ       BENEFICIAL BANCORP INC        69383     940833.48  0.111879 10 Financial Services             1010 Banks                                            1010400 Banks: Diversified                               
20160729 084680107 US0846801076 BHLB     NYSE         BERKSHIRE HILLS BANCORP       30410     801911.70  0.095359 10 Financial Services             1010 Banks                                            1010820 Banks: Savings/Thrifts & Mortgage Lend           
20160729 08915P101 US08915P1012 BGFV     NASDAQ       BIG 5 SPORTING GOODS          17543     185254.08  0.022029 03 Consumer Discretionary         0360 Retail                                           0360834 Specialty Retail                                 
20160729 08986R101 US08986R1014 BH       NYSE         BIGLARI HOLDINGS INC            926     384081.36  0.045673 03 Consumer Discretionary         0340 Leisure                                          0340810 Restaurants                                      
20160729 09058V103 US09058V1035 BCRX     NASDAQ       BIOCRYST PHARMACEUTICALS      12193      44140.86  0.005249 02 Health Care                    0230 Pharmaceuticals & Biotech                        0230412 Biotechnology                                    
20160729 09069N108 US09069N1081 BIOS     NASDAQ       BIOSCRIP INC                  58538     149855.41  0.017820 02 Health Care                    0210 Health Care Services                             0210503 Health Care Management Services                  
20160729 091826107 US0918261076 BBOX     NASDAQ       BLACK BOX CORP                14819     202279.35  0.024054 01 Technology                     0140 Telecommunication                                0140448 Communications Technology                        
20160729 092113109 US0921131092 BKH      NYSE         BLACK HILLS CORP              51029    3217378.45  0.382592 11 Utilities                      1110 Utilities                                        1110870 Utilities: Electrical                            
20160729 095229100 US0952291005 BCOR     NASDAQ       BLUCORA INC                   30726     313708.15  0.037304 01 Technology                     0130 Information Technology                           0130439 Computer Services Software & Systems             
20160729 095306106 US0953061068 BLBD     NASDAQ       BLUE BIRD CORP                 4725      66574.97  0.007917 08 Producer Durables              0840 Transportation & Freight                         0840350 Commercial Vehicles & Parts                      
20160729 095573101 US0955731015 BHBK     NASDAQ       BLUE HILLS BANCORP INC        22070     314486.87  0.037397 10 Financial Services             1010 Banks                                            1010400 Banks: Diversified                               
20160729 09609G100 US09609G1004 BLUE     NASDAQ       BLUEBIRD BIO INC              22880    1308242.66  0.155569 02 Health Care                    0230 Pharmaceuticals & Biotech                        0230412 Biotechnology                                    
20160729 09627J102 US09627J1025 BRG      NYSE MKT     BLUEROCK RESIDENT REIT        18549     247072.68  0.029380 10 Financial Services             1060 Real Estate Investment Trusts                    1060907 Equity REIT: Residential                         
20160729 09739C102 US09739C1027 WIFI     NASDAQ       BOINGO WIRELESS INC           14393     131848.46  0.015679 11 Utilities                      1110 Utilities                                        1110880 Utilities: Telecommunications                    
20160729 09739D100 US09739D1000 BCC      NYSE         BOISE CASCADE COMPANY          5401     146746.80  0.017450 07 Materials & Processing         0730 Industrial Materials & Processes                 0730496 Forest Products                                  
20160729 099406100 US0994061002 BOOT     NYSE         BOOT BARN HOLDINGS            13167     141676.92  0.016847 03 Consumer Discretionary         0360 Retail                                           0360834 Specialty Retail                                 
20160729 101119105 US1011191053 BPFH     NASDAQ       BOSTON PRIVATE FINANCIAL      80905     980568.60  0.116604 10 Financial Services             1010 Banks                                            1010400 Banks: Diversified                               
20160729 101388106 US1013881065 EPAY     NASDAQ       BOTTOMLINE TECHNOLOGIES        5241     110647.14  0.013158 01 Technology                     0130 Information Technology                           0130439 Computer Services Software & Systems             
20160729 104674106 US1046741062 BRC      NYSE         BRADY CORP                    10806     347324.90  0.041302 08 Producer Durables              0830 Scientific Instruments & Services                0830524 Scientific Instruments: Control & Filter         
20160729 108035106 US1080351067 BDGE     NASDAQ       BRIDGE BANCORP INC            16524     481013.64  0.057199 10 Financial Services             1010 Banks                                            1010400 Banks: Diversified                               
20160729 10807M105 US10807M1053 BPI      NYSE         BRIDGEPOINT ED INC            17637     125751.81  0.014954 03 Consumer Discretionary         0330 Consumer Services                                0330461 Education Services                               
20160729 109043109 US1090431099 BGG      NYSE         BRIGGS & STRATTON CO          41978     954159.94  0.113463 08 Producer Durables              0810 Machinery                                        0810579 Machinery: Engines                               
20160729 110394103 US1103941035 BRS      NYSE         BRISTOW GROUP INC             33206     358956.86  0.042685 08 Producer Durables              0840 Transportation & Freight                         0840310 Air Transport                                    
20160729 11373M107 US11373M1071 BRKL     NASDAQ       BROOKLINE BANCORP INC         68413     779224.07  0.092661 10 Financial Services             1010 Banks                                            1010820 Banks: Savings/Thrifts & Mortgage Lend           
20160729 114340102 US1143401024 BRKS     NASDAQ       BROOKS AUTOMATION INC         67140     841264.20  0.100038 01 Technology                     0120 Electronics                                      0120738 Production Technology Equipment                  
20160729 117665109 US1176651099 BMTC     NASDAQ       BRYN MAWR BANK CORP           16452     482537.16  0.057381 10 Financial Services             1010 Banks                                            1010400 Banks: Diversified                               
20160729 118440106 US1184401065 BKE      NYSE         BUCKLE INC                    18813     515265.75  0.061272 03 Consumer Discretionary         0360 Retail                                           0360834 Specialty Retail                                 
20160729 120076104 US1200761047 BBW      NYSE         BUILD A BEAR WORKSHOP         12474     170014.32  0.020217 03 Consumer Discretionary         0360 Retail                                           0360834 Specialty Retail                                 
20160729 12466Q104 US12466Q1040 CFFI     NASDAQ       C & F FINANCIAL CORP           3183     145431.27  0.017294 10 Financial Services             1010 Banks                                            1010400 Banks: Diversified                               
20160729 12477X106 US12477X1063 CAI      NYSE         CAI INTERNATIONAL INC         15489     132895.62  0.015803 08 Producer Durables              0840 Transportation & Freight                         0840808 Commercial Services: Rental & Leasing            
20160729 124805102 US1248051021 CBZ      NYSE         CBIZ INC                      48778     527290.18  0.062702 08 Producer Durables              0850 Commercial Services                              0850365 Back Office Support HR & Consulting              
20160729 124830100 US1248301004 CBL      NYSE         CBL & ASSOC PPTYS INC        166830    2050340.70  0.243815 10 Financial Services             1060 Real Estate Investment Trusts                    1060908 Equity REIT: Retail                              
20160729 125141101 US1251411013 CECE     NASDAQ       CECO ENVIRONMENTAL CORP       28923     267537.75  0.031814 08 Producer Durables              0830 Scientific Instruments & Services                0830735 Scientific Instruments: Pollution Control        
20160729 125906107 US1259061075 CSS      NYSE         CSS INDUSTRIES INC             8454     222424.74  0.026449 03 Consumer Discretionary         0320 Consumer Products                                0320521 Household Equip & Products                       
20160729 126128107 US1261281075 CCNE     NASDAQ       CNB FINL CORP PA              13677     252340.65  0.030007 10 Financial Services             1010 Banks                                            1010400 Banks: Diversified                               
20160729 12618T105 US12618T1051 CRAI     NASDAQ       CRA INTERNATIONAL INC          8632     238415.84  0.028351 08 Producer Durables              0850 Commercial Services                              0850365 Back Office Support HR & Consulting              
20160729 12621E103 US12621E1038 CNO      NYSE         CNO FINANCIAL GROUP          177120    3076574.40  0.365849 10 Financial Services             1030 Insurance                                        1030528 Insurance: Life                                  
20160729 12634H101 US12634H1014 PMTS     NASDAQ       CPI CARD GROUP INC            12842      60610.25  0.007207 10 Financial Services             1020 Consumer Finance & Credit Services               1020489 Financial Data & Systems                         
20160729 126402106 US1264021064 CSWI     NASDAQ       CSW INDUSTRIALS INC           14246     483366.78  0.057479 08 Producer Durables              0820 Manufacturing & Production                       0820453 Diversified Manufacturing Operations             
20160729 126501105 US1265011056 CTS      NYSE         CTS CORP                      30956     591569.16  0.070346 01 Technology                     0120 Electronics                                      0120643 Technology: Misc                                 
20160729 126534106 US1265341065 CUNB     NASDAQ       CU BANCORP CALIF              13942     331246.88  0.039390 10 Financial Services             1010 Banks                                            1010400 Banks: Diversified                               
20160729 126600105 US1266001056 CVBF     NASDAQ       CVB FINANCIAL CORP            99976    1644605.20  0.195567 10 Financial Services             1010 Banks                                            1010400 Banks: Diversified                               
20160729 12662P108 US12662P1084 CVI      NYSE         CVR ENERGY INC                14757     218397.80  0.025971 06 Energy                         0620 Non-Renewable Energy                             0620605 Oil: Refining & Marketing                        
20160729 12673A108 US12673A1088 CYS      NYSE         CYS INVESTMENTS INC          149775    1340486.25  0.159403 10 Financial Services             1060 Real Estate Investment Trusts                    1060932 Mortgage REIT: Diversified                       
20160729 12709P103 US12709P1030 CCMP     NASDAQ       CABOT MICROELECTRONICS        20185    1062115.07  0.126301 07 Materials & Processing         0730 Industrial Materials & Processes                 0730452 Diversified Materials & Processing               
20160729 127190304 US1271903049 CACI     NYSE         CACI INTERNATIONAL INC        24047    2292400.51  0.272599 01 Technology                     0130 Information Technology                           0130439 Computer Services Software & Systems             
20160729 127686103 US1276861036 CZR      NASDAQ       CAESARS ENTMT CORP            55755     384709.50  0.045747 03 Consumer Discretionary         0340 Leisure                                          0340434 Casinos & Gambling                               
20160729 12768T103 US12768T1034 CACQ     NASDAQ       CAESARS ACQUISITION CO        47070     506473.20  0.060227 03 Consumer Discretionary         0340 Leisure                                          0340434 Casinos & Gambling                               
20160729 128030202 US1280302027 CALM     NASDAQ       CAL MAINE FOODS INC            6878     288208.10  0.034272 04 Consumer Staples               0410 Food/Beverage & Tobacco                          0410305 Agriculture Fishing & Ranching                   
20160729 12811R104 US12811R1041 CLMS     NASDAQ       CALAMOS ASSET MGMT INC        16667     116002.32  0.013794 10 Financial Services             1040 Investment Banking & Brokerage Services          1040544 Asset Management & Custodian                     
20160729 129500104 US1295001044 CAL      NYSE         CALERES INC                   42338    1114336.16  0.132510 03 Consumer Discretionary         0360 Retail                                           0360834 Specialty Retail                                 
20160729 129603106 US1296031065 CCC      NYSE         CALGON CARBON CORP            49788     687074.40  0.081703 07 Materials & Processing         0720 Chemicals and Synthetics                         0720833 Chemicals: Specialty                             
20160729 130222102 US1302221023 CFNB     NASDAQ       CALIFORNIA FIRST NATL          2322      33761.88  0.004015 10 Financial Services             1010 Banks                                            1010400 Banks: Diversified                               
20160729 13057Q206 US13057Q2066 CRC      NYSE         CALIFORNIA RESOURCES          31328     321425.28  0.038222 06 Energy                         0620 Non-Renewable Energy                             0620670 Oil: Crude Producers                             
20160729 130788102 US1307881029 CWT      NYSE         CALIFORNIA WTR SVC GRP        19377     653604.83  0.077723 11 Utilities                      1110 Utilities                                        1110882 Utilities: Water                                 
20160729 13100M509 US13100M5094 CALX     NYSE         CALIX INC                     40789     314891.08  0.037445 01 Technology                     0140 Telecommunication                                0140448 Communications Technology                        
20160729 131193104 US1311931042 ELY      NYSE         CALLAWAY GOLF CO              58513     626085.29  0.074450 03 Consumer Discretionary         0340 Leisure                                          0340556 Leisure Time                                     
20160729 13201A107 US13201A1079 ABCD     NASDAQ       CAMBIUM LEARNING GRP INC      13258      64168.72  0.007631 03 Consumer Discretionary         0330 Consumer Services                                0330461 Education Services                               
20160729 133034108 US1330341082 CAC      NASDAQ       CAMDEN NATIONAL CORP          10061     437452.28  0.052019 10 Financial Services             1010 Banks                                            1010400 Banks: Diversified                               
20160729 139594105 US1395941057 CPLA     NASDAQ       CAPELLA EDUCATION CO            804      48184.33  0.005730 03 Consumer Discretionary         0330 Consumer Services                                0330461 Education Services                               
20160729 139674105 US1396741050 CCBG     NASDAQ       CAPITAL CITY BANK GROUP       10872     155578.32  0.018500 10 Financial Services             1010 Banks                                            1010400 Banks: Diversified                               
20160729 139794101 US1397941014 CBF      NASDAQ       CAPITAL BANK FINANCIAL         9343     279290.76  0.033212 10 Financial Services             1010 Banks                                            1010400 Banks: Diversified                               
20160729 14057J101 US14057J1016 CFFN     NASDAQ       CAPITOL FEDERAL FINL INC     126030    1785845.10  0.212362 10 Financial Services             1010 Banks                                            1010820 Banks: Savings/Thrifts & Mortgage Lend           
20160729 14067E506 US14067E5069 CMO      NYSE         CAPSTEAD MORTGAGE CORP        94399     939270.05  0.111693 10 Financial Services             1060 Real Estate Investment Trusts                    1060930 Mortgage REIT: Residential                       
20160729 140755109 US1407551092 CARA     NASDAQ       CARA THERAPEUTICS INC         17916     106236.05  0.012633 02 Health Care                    0230 Pharmaceuticals & Biotech                        0230412 Biotechnology                                    
20160729 140781105 US1407811058 CRR      NYSE         CARBO CERAMICS INC            19233     271185.30  0.032248 06 Energy                         0610 Energy Equipment & Services                      0610600 Oil Well Equipment & Services                    
20160729 14149F109 US14149F1093 CFNL     NASDAQ       CARDINAL FINANCIAL CORP       28977     746426.42  0.088761 10 Financial Services             1010 Banks                                            1010400 Banks: Diversified                               
20160729 141665109 US1416651099 CECO     NASDAQ       CAREER EDUCATION CORP         66059     456467.69  0.054281 03 Consumer Discretionary         0330 Consumer Services                                0330461 Education Services                               
20160729 143436400 US1434364006 CKEC     NASDAQ       CARMIKE CINEMAS INC            8093     249437.36  0.029662 03 Consumer Discretionary         0350 Media                                            0350480 Entertainment                                    
20160729 143873107 US1438731077 CARO     NASDAQ       CAROLINA FINL CORP            10116     193519.08  0.023012 10 Financial Services             1010 Banks                                            1010400 Banks: Diversified                               
20160729 143905107 US1439051079 CSV      NYSE         CARRIAGE SERVICES INC          1066      25922.02  0.003082 03 Consumer Discretionary         0330 Consumer Services                                0330495 Funeral Parlors & Cemetery                       
20160729 144285103 US1442851036 CRS      NYSE         CARPENTER TECHNOLOGY          45706    1793960.50  0.213328 07 Materials & Processing         0740 Metals & Minerals                                0740835 Steel                                            
20160729 14574X104 US14574X1046 TAST     NASDAQ       CARROLS RESTAURANT GRP         4344      52606.62  0.006256 03 Consumer Discretionary         0340 Leisure                                          0340810 Restaurants                                      
20160729 147154207 US1471542076 CACB     NASDAQ       CASCADE BANCORP               31028     174997.92  0.020810 10 Financial Services             1010 Banks                                            1010400 Banks: Diversified                               
20160729 147448104 US1474481041 CWST     NASDAQ       CASELLA WASTE SYSTEMS         38203     357580.08  0.042521 08 Producer Durables              0830 Scientific Instruments & Services                0830735 Scientific Instruments: Pollution Control        
20160729 14754D100 US14754D1000 CSH      NYSE         CASH AMERICA INTL INC         23631    1012588.35  0.120411 10 Financial Services             1020 Consumer Finance & Credit Services               1020492 Consumer Lending                                 
20160729 14808P109 US14808P1093 CASS     NASDAQ       CASS INFORMATION SYSTEMS       4247     220753.59  0.026251 10 Financial Services             1020 Consumer Finance & Credit Services               1020489 Financial Data & Systems                         
20160729 14912Y202 US14912Y2028 CTT      NYSE         CATCHMARK TIMBER TRUST        38378     464757.58  0.055266 10 Financial Services             1060 Real Estate Investment Trusts                    1060913 Equity REIT: Timber                              
20160729 149150104 US1491501045 CATY     NASDAQ       CATHAY GENERAL BANCORP        73389    2200202.22  0.261635 10 Financial Services             1010 Banks                                            1010400 Banks: Diversified                               
20160729 149205106 US1492051065 CATO     NYSE         CATO CORP                     20446     731325.16  0.086965 03 Consumer Discretionary         0360 Retail                                           0360834 Specialty Retail                                 
20160729 150602209 US1506022094 CDR      NYSE         CEDAR REALTY TRUST INC        81572     655838.88  0.077989 10 Financial Services             1060 Real Estate Investment Trusts                    1060908 Equity REIT: Retail                              
20160729 150838100 US1508381001 CGI      NYSE         CELADON GROUP INC             26933     222466.58  0.026454 08 Producer Durables              0840 Transportation & Freight                         0840865 Truckers                                         
20160729 15117B103 US15117B1035 CLDX     NASDAQ       CELLDEX THERAPEUTICS INC      94431     436271.22  0.051879 02 Health Care                    0230 Pharmaceuticals & Biotech                        0230412 Biotechnology                                    
20160729 15117P102 US15117P1021 CBMG     NASDAQ       CELLULAR BIOMEDICINE GRP       3664      54565.52  0.006489 02 Health Care                    0230 Pharmaceuticals & Biotech                        0230412 Biotechnology                                    
20160729 15201P109 US15201P1093 CSFL     NASDAQ       CENTERSTATE BANKS INC         45827     763477.82  0.090788 10 Financial Services             1010 Banks                                            1010400 Banks: Diversified                               
20160729 153527106 US1535271068 CENT     NASDAQ       CENTRAL GARDEN & PET CO        8753     212338.68  0.025250 03 Consumer Discretionary         0320 Consumer Products                                0320521 Household Equip & Products                       
20160729 153527205 US1535272058 CENTA    NASDAQ       CENTRAL GARDEN & PET CO       28918     659038.37  0.078369 03 Consumer Discretionary         0320 Consumer Products                                0320521 Household Equip & Products                       
20160729 154760409 US1547604090 CPF      NYSE         CENTRAL PACIFIC FINL          29918     733888.54  0.087270 10 Financial Services             1010 Banks                                            1010400 Banks: Diversified                               
20160729 155685100 US1556851004 CVCY     NASDAQ       CENTRAL VALLEY CMNTY           8649     129302.55  0.015376 10 Financial Services             1010 Banks                                            1010400 Banks: Diversified                               
20160729 156431108 US1564311082 CENX     NASDAQ       CENTURY ALUMINUM CO           46049     349504.84  0.041561 07 Materials & Processing         0740 Metals & Minerals                                0740320 Aluminum                                         
20160729 156432106 US1564321065 CNBKA    NASDAQ       CENTURY BANCORP INC            2938     128273.08  0.015254 10 Financial Services             1010 Banks                                            1010400 Banks: Diversified                               
20160729 156492100 US1564921005 CNTY     NASDAQ       CENTURY CASINOS INC           11275      71928.47  0.008553 03 Consumer Discretionary         0340 Leisure                                          0340434 Casinos & Gambling                               
20160729 156504300 US1565043007 CCS      NYSE         CENTURY COMMUNITIES INC       13791     244096.51  0.029027 03 Consumer Discretionary         0320 Consumer Products                                0320501 Homebuilding                                     
20160729 157085101 US1570851014 CERS     NASDAQ       CERUS CORP                    13110      96888.38  0.011521 02 Health Care                    0220 Medical Equipment & Services                     0220507 Medical & Dental Instruments & Supplies          
20160729 159179100 US1591791009 ECOM     NYSE         CHANNELADVISOR CORP            1536      24213.30  0.002879 01 Technology                     0130 Information Technology                           0130439 Computer Services Software & Systems             
20160729 16115Q308 US16115Q3083 GTLS     NASDAQ       CHART INDUSTRIES INC          30222     907264.44  0.107887 08 Producer Durables              0810 Machinery                                        0810584 Machinery: Industrial                            
20160729 16122W108 US16122W1080 CHFN     NASDAQ       CHARTER FINL CORP WEST        13456     175466.24  0.020865 10 Financial Services             1010 Banks                                            1010820 Banks: Savings/Thrifts & Mortgage Lend           
20160729 16208T102 US16208T1025 CLDT     NYSE         CHATHAM LODGING TR            37085     889298.30  0.105750 10 Financial Services             1060 Real Estate Investment Trusts                    1060909 Equity REIT: Lodging and Resorts                 
20160729 163086101 US1630861011 CHEF     NASDAQ       CHEFS' WHAREHOUSE INC          1605      25934.12  0.003084 04 Consumer Staples               0410 Food/Beverage & Tobacco                          0410494 Foods                                            
20160729 163092109 US1630921096 CHGG     NYSE         CHEGG INC                     45742     246548.44  0.029318 03 Consumer Discretionary         0330 Consumer Services                                0330461 Education Services                               
20160729 163731102 US1637311028 CHFC     NASDAQ       CHEMICAL FINANCIAL CORP       37812    1564660.56  0.186060 10 Financial Services             1010 Banks                                            1010400 Banks: Diversified                               
20160729 163851108 US1638511089 CC       NYSE         THE CHEMOURS COMPANY          30067     279623.86  0.033251 07 Materials & Processing         0720 Chemicals and Synthetics                         0720833 Chemicals: Specialty                             
20160729 163893209 US1638932095 CHMT     NYSE         CHEMTURA CORP                 30791     864929.08  0.102852 07 Materials & Processing         0720 Chemicals and Synthetics                         0720433 Chemicals: Diversified                           
20160729 164024101 US1640241014 CHMG     NASDAQ       CHEMUNG FINL CORP              3103      98178.92  0.011675 10 Financial Services             1010 Banks                                            1010400 Banks: Diversified                               
20160729 165240102 US1652401027 CHSP     NYSE         CHESAPEAKE LODGING TRUST      42885    1083693.34  0.128867 10 Financial Services             1060 Real Estate Investment Trusts                    1060909 Equity REIT: Lodging and Resorts                 
20160729 165303108 US1653031088 CPK      NYSE         CHESAPEAKE UTILITIES          12778     818656.60  0.097350 11 Utilities                      1110 Utilities                                        1110875 Utilities: Gas Distributors                      
20160729 168615102 US1686151028 CHS      NYSE         CHICOS FAS INC                13025     156435.83  0.018602 03 Consumer Discretionary         0360 Retail                                           0360834 Specialty Retail                                 
20160729 16934W106 US16934W1062 CMRX     NASDAQ       CHIMERIX INC                  42181     168302.19  0.020014 02 Health Care                    0230 Pharmaceuticals & Biotech                        0230412 Biotechnology                                    
20160729 171757107 US1717571079 CDTX     NASDAQ       CIDARA THERAPEUTICS INC        9920     117945.57  0.014025 02 Health Care                    0230 Pharmaceuticals & Biotech                        0230412 Biotechnology                                    
20160729 171871106 US1718711062 CBB      NYSE         CINCINNATI BELL INC          207919    1039595.00  0.123623 11 Utilities                      1110 Utilities                                        1110880 Utilities: Telecommunications                    
20160729 17273K109 US17273K1097 CIR      NYSE         CIRCOR INTERNATIONAL INC      16293     927723.42  0.110320 08 Producer Durables              0830 Scientific Instruments & Services                0830524 Scientific Instruments: Control & Filter         
20160729 172922106 US1729221069 CZNC     NASDAQ       CITIZENS & NORTHERN CORP      11573     246620.63  0.029327 10 Financial Services             1010 Banks                                            1010400 Banks: Diversified                               
20160729 17306X102 US17306X1028 CTRN     NASDAQ       CITI TRENDS INC               14223     237239.64  0.028211 03 Consumer Discretionary         0360 Retail                                           0360834 Specialty Retail                                 
20160729 174740100 US1747401008 CIA      NYSE         CITIZENS INC                  45897     383239.95  0.045573 10 Financial Services             1030 Insurance                                        1030528 Insurance: Life                                  
20160729 177835105 US1778351056 CHCO     NASDAQ       CITY HOLDING CO               14417     673273.90  0.080062 10 Financial Services             1010 Banks                                            1010400 Banks: Diversified                               
20160729 178587101 US1785871013 CIO      NYSE         CITY OFFICE REIT INC           4142      56165.55  0.006679 10 Financial Services             1060 Real Estate Investment Trusts                    1060912 Equity REIT: Office                              
20160729 184499101 US1844991018 CLNE     NASDAQ       CLEAN ENERGY FUELS CORP       86613     258972.87  0.030796 06 Energy                         0620 Non-Renewable Energy                             0620605 Oil: Refining & Marketing                        
20160729 18683K101 US18683K1016 CLF      NYSE         CLIFFS NATURAL RESOURCES     173697    1373943.27  0.163381 07 Materials & Processing         0740 Metals & Minerals                                0740635 Metals & Minerals: Diversified                   
20160729 186873105 US1868731050 CSBK     NASDAQ       CLIFTON BANCORP INC           21638     324137.24  0.038545 10 Financial Services             1010 Banks                                            1010820 Banks: Savings/Thrifts & Mortgage Lend           
20160729 19075F106 US19075F1066 CIE      NYSE         COBALT INTL ENERGY           403269     600870.81  0.071452 06 Energy                         0620 Non-Renewable Energy                             0620660 Offshore Drilling & Other Services               
20160729 190897108 US1908971088 COBZ     NASDAQ       COBIZ FINANCIAL INC           32823     405354.36  0.048202 10 Financial Services             1010 Banks                                            1010400 Banks: Diversified                               
20160729 192005106 US1920051067 CDXS     NASDAQ       CODEXIS INC                    1951       8489.47  0.001010 02 Health Care                    0230 Pharmaceuticals & Biotech                        0230412 Biotechnology                                    
20160729 192025104 US1920251048 CVLY     NASDAQ       CODORUS VY BANCORP INC         7627     161768.67  0.019237 10 Financial Services             1010 Banks                                            1010400 Banks: Diversified                               
20160729 192108504 US1921085049 CDE      NYSE         COEUR MINING INC              39710     608366.90  0.072344 07 Materials & Processing         0740 Metals & Minerals                                0740549 Precious Metals & Minerals                       
20160729 192576106 US1925761066 COHU     NASDAQ       COHU INC                      26069     275288.64  0.032736 01 Technology                     0120 Electronics                                      0120738 Production Technology Equipment                  
20160729 19624R106 US19624R1068 CLNY     NYSE         COLONY CAPITAL INC           111210    1977313.80  0.235131 10 Financial Services             1060 Real Estate Investment Trusts                    1060932 Mortgage REIT: Diversified                       
20160729 19625X102 US19625X1028 SFR      NYSE         COLONY STARWOOD HOMES         64261    2105190.36  0.250337 10 Financial Services             1060 Real Estate Investment Trusts                    1060907 Equity REIT: Residential                         
20160729 197236102 US1972361026 COLB     NASDAQ       COLUMBIA BKG SYSTEM INC       57388    1740004.16  0.206911 10 Financial Services             1010 Banks                                            1010400 Banks: Diversified                               
20160729 199333105 US1993331057 CMCO     NASDAQ       COLUMBUS MCKINNON CORP        19188     318328.92  0.037854 08 Producer Durables              0810 Machinery                                        0810584 Machinery: Industrial                            
20160729 201723103 US2017231034 CMC      NYSE         COMMERCIAL METALS CO         113551    1878133.54  0.223337 07 Materials & Processing         0740 Metals & Minerals                                0740835 Steel                                            
20160729 203607106 US2036071064 CBU      NYSE         COMMUNITY BANK SYSTEMS        42557    1878040.41  0.223326 10 Financial Services             1010 Banks                                            1010400 Banks: Diversified                               
20160729 203668108 US2036681086 CYH      NYSE         COMMUNITY HEALTH SYSTEMS     109079    1392938.83  0.165640 02 Health Care                    0210 Health Care Services                             0210504 Health Care Facilities                           
20160729 20369C106 US20369C1062 CHCT     NYSE         COMMUNITY HEALTHCARE TR       12458     286409.42  0.034058 10 Financial Services             1060 Real Estate Investment Trusts                    1060910 Equity REIT: Health Care                         
20160729 204149108 US2041491083 CTBI     NASDAQ       COMMUNITY TRUST BANCORP       15049     523404.22  0.062240 10 Financial Services             1010 Banks                                            1010400 Banks: Diversified                               
20160729 20416Q108 US20416Q1085 COB      NASDAQ       COMMUNITYONE BANCORP          12403     161487.06  0.019203 10 Financial Services             1010 Banks                                            1010400 Banks: Diversified                               
20160729 20563P101 US20563P1012 CIX      NYSE MKT     COMPX INTERNATIONAL INC        1576      18754.40  0.002230 07 Materials & Processing         0740 Metals & Minerals                                0740630 Metal Fabricating                                
20160729 205826209 US2058262096 CMTL     NASDAQ       COMTECH TELECOMM              15463     202101.41  0.024033 01 Technology                     0140 Telecommunication                                0140448 Communications Technology                        
20160729 206022105 US2060221056 CNCE     NASDAQ       CONCERT PHARMACEUTICALS        9660     110993.06  0.013199 02 Health Care                    0230 Pharmaceuticals & Biotech                        0230412 Biotechnology                                    
20160729 207410101 US2074101013 CNMD     NASDAQ       CONMED CORP                   27254    1107602.56  0.131710 02 Health Care                    0220 Medical Equipment & Services                     0220507 Medical & Dental Instruments & Supplies          
20160729 207797101 US2077971016 CTWS     NASDAQ       CONNECTICUT WATER SVC          8309     424155.66  0.050438 11 Utilities                      1110 Utilities                                        1110882 Utilities: Water                                 
20160729 20786W107 US20786W1071 CNOB     NASDAQ       CONNECTONE BANCORP INC        28068     474629.88  0.056440 10 Financial Services             1010 Banks                                            1010400 Banks: Diversified                               
20160729 208242107 US2082421072 CONN     NASDAQ       CONNS INC                     20057     142605.27  0.016958 03 Consumer Discretionary         0360 Retail                                           0360834 Specialty Retail                                 
20160729 209034107 US2090341072 CNSL     NASDAQ       CONSOLIDATED COMM             15122     422673.65  0.050262 11 Utilities                      1110 Utilities                                        1110880 Utilities: Telecommunications                    
20160729 210226106 US2102261060 CTO      NYSE MKT     CONSOLIDATED TOMOKA LAND        431      21125.28  0.002512 10 Financial Services             1050 Real Estate                                      1050802 Real Estate Holding and Development              
20160729 210751103 US2107511030 TCS      NYSE         THE CONTAINER STORE GRP       11032      61004.95  0.007254 03 Consumer Discretionary         0360 Retail                                           0360834 Specialty Retail                                 
20160729 21075N204 US21075N2045 MCF      NYSE MKT     CONTANGO OIL & GAS CO         17580     162263.40  0.019295 06 Energy                         0620 Non-Renewable Energy                             0620670 Oil: Crude Producers                             
20160729 21240D107 US21240D1072 CTRL     NASDAQ       CONTROL4 CORPORATION          19856     172945.76  0.020566 08 Producer Durables              0830 Scientific Instruments & Services                0830524 Scientific Instruments: Control & Filter         
20160729 212485106 US2124851062 CVG      NYSE         CONVERGYS CORP                43431    1157449.26  0.137637 08 Producer Durables              0850 Commercial Services                              0850365 Back Office Support HR & Consulting              
20160729 21676P103 US21676P1030 CPS      NYSE         COOPER STD HLDGS INC           1055      92894.16  0.011046 03 Consumer Discretionary         0310 Auto & Auto Parts                                0310340 Auto Parts                                       
20160729 216831107 US2168311072 CTB      NYSE         COOPER TIRE & RUBBER CO       54730    1805542.70  0.214705 03 Consumer Discretionary         0310 Auto & Auto Parts                                0310854 Auto Services                                    
20160729 21870U502 US21870U5020 CORR     NYSE         CORENERGY INFRASTRUCT         11814     347567.88  0.041331 10 Financial Services             1060 Real Estate Investment Trusts                    1060915 Equity REIT: Other Specialty                     
20160729 221015100 US2210151005 CRVS     NASDAQ       CORVUS PHARMACEUTICALS         2775      36479.88  0.004338 02 Health Care                    0230 Pharmaceuticals & Biotech                        0230412 Biotechnology                                    
20160729 22164K101 US22164K1016 COTV     NYSE         COTIVITI HOLDINGS INC          3012      72715.93  0.008647 02 Health Care                    0210 Health Care Services                             0210499 Health Care Services                             
20160729 221907108 US2219071089 ICBK     NASDAQ       COUNTY BANCORP INC             1596      33242.71  0.003953 10 Financial Services             1010 Banks                                            1010400 Banks: Diversified                               
20160729 222795106 US2227951066 CUZ      NYSE         COUSINS PROPERTIES INC       205369    2185126.16  0.259843 10 Financial Services             1060 Real Estate Investment Trusts                    1060916 Equity REIT: Diversified                         
20160729 22284P105 US22284P1057 CVTI     NASDAQ       COVENANT TRANS GRP INC        11723     264119.19  0.031408 08 Producer Durables              0840 Transportation & Freight                         0840865 Truckers                                         
20160729 223622101 US2236221014 COWN     NASDAQ       COWEN GROUP INC               95107     296731.36  0.035286 10 Financial Services             1040 Investment Banking & Brokerage Services          1040544 Asset Management & Custodian                     
20160729 22410J106 US22410J1060 CBRL     NASDAQ       CRACKER BARREL STORE           1024     161298.66  0.019181 03 Consumer Discretionary         0340 Leisure                                          0340810 Restaurants                                      
20160729 224122101 US2241221017 BREW     NASDAQ       CRAFT BREW ALLIANCE            7907      92818.44  0.011037 04 Consumer Staples               0410 Food/Beverage & Tobacco                          0410405 Beverage: Brewers & Distillers                   
20160729 228903100 US2289031005 CRY      NYSE         CRYOLIFE INC                  10587     154256.38  0.018343 02 Health Care                    0220 Medical Equipment & Services                     0220507 Medical & Dental Instruments & Supplies          
20160729 229669106 US2296691064 CUB      NYSE         CUBIC CORP                    24905    1017120.20  0.120950 08 Producer Durables              0840 Transportation & Freight                         0840300 Aerospace                                        
20160729 231561101 US2315611010 CW       NYSE         CURTISS WRIGHT CORP           12040    1071444.05  0.127410 08 Producer Durables              0840 Transportation & Freight                         0840300 Aerospace                                        
20160729 23204G100 US23204G1004 CUBI     NYSE         CUSTOMERS BANCORP INC         14244     366628.20  0.043597 10 Financial Services             1010 Banks                                            1010400 Banks: Diversified                               
20160729 232828509 US2328285091 CYTR     NASDAQ       CYTRX CORP                     4158       2703.03  0.000321 02 Health Care                    0230 Pharmaceuticals & Biotech                        0230412 Biotechnology                                    
20160729 23332B106 US23332B1061 DSPG     NASDAQ       DSP GROUP INC                 21315     230841.45  0.027450 01 Technology                     0120 Electronics                                      0120476 Semiconductors & Components                      
20160729 23334L102 US23334L1026 DSW      NYSE         DSW INC                       66506    1613435.56  0.191861 03 Consumer Discretionary         0360 Retail                                           0360834 Specialty Retail                                 
20160729 233377407 US2333774071 DXPE     NASDAQ       DXP ENTERPRISES INC           12798     212958.72  0.025324 08 Producer Durables              0810 Machinery                                        0810584 Machinery: Industrial                            
20160729 233912104 US2339121046 DJCO     NASDAQ       DAILY JOURNAL CORP              353      80752.19  0.009603 03 Consumer Discretionary         0350 Media                                            0350740 Publishing                                       
20160729 234264109 US2342641097 DAKT     NASDAQ       DAKTRONICS INC                36252     234550.44  0.027891 01 Technology                     0120 Electronics                                      0120475 Electronics                                      
20160729 235825205 US2358252052 DAN      NYSE         DANA HOLDING CORP            147343    2009758.52  0.238989 03 Consumer Discretionary         0310 Auto & Auto Parts                                0310340 Auto Parts                                       
20160729 237266101 US2372661015 DAR      NYSE         DARLING INGREDIENTS INC      118185    1864958.92  0.221770 08 Producer Durables              0830 Scientific Instruments & Services                0830735 Scientific Instruments: Pollution Control        
20160729 237934104 US2379341041 DTLK     NASDAQ       DATALINK CORP                 18524     158928.85  0.018899 01 Technology                     0140 Telecommunication                                0140448 Communications Technology                        
20160729 239360100 US2393601008 DWSN     NASDAQ       DAWSON GEOPHYSICAL CO         19933     148500.85  0.017659 06 Energy                         0610 Energy Equipment & Services                      0610600 Oil Well Equipment & Services                    
20160729 242370203 US2423702032 DF       NYSE         DEAN FOODS COMPANY            45277     835813.42  0.099390 04 Consumer Staples               0410 Food/Beverage & Tobacco                          0410494 Foods                                            
20160729 243537107 US2435371073 DECK     NYSE         DECKERS OUTDOOR CORP          29850    1970380.15  0.234306 03 Consumer Discretionary         0320 Consumer Products                                0320850 Textiles Apparel & Shoes                         
20160729 245077102 US2450771025 DFRG     NASDAQ       DEL FRISCOS RESTAURANT        21753     324550.28  0.038594 03 Consumer Discretionary         0340 Leisure                                          0340810 Restaurants                                      
20160729 245496104 US2454961044 TACO     NASDAQ       DEL TACO RESTAURANTS INC      22858     240237.58  0.028568 03 Consumer Discretionary         0340 Leisure                                          0340810 Restaurants                                      
20160729 246647101 US2466471016 DK       NYSE         DELEK US HLDGS INC            60928     762818.56  0.090710 06 Energy                         0620 Non-Renewable Energy                             0620605 Oil: Refining & Marketing                        
20160729 247368103 US2473681037 DLA      NYSE MKT     DELTA APPAREL INC              7032     167994.48  0.019977 03 Consumer Discretionary         0320 Consumer Products                                0320850 Textiles Apparel & Shoes                         
20160729 247748106 US2477481061 DGAS     NASDAQ       DELTA NATURAL GAS INC          6750     178132.50  0.021182 11 Utilities                      1110 Utilities                                        1110875 Utilities: Gas Distributors                      
20160729 247916208 US2479162081 DNR      NYSE         DENBURY RESOURCES INC        347586    1007999.40  0.119866 06 Energy                         0620 Non-Renewable Energy                             0620670 Oil: Crude Producers                             
20160729 24869P104 US24869P1049 DENN     NASDAQ       DENNYS CORP                   20228     225748.94  0.026845 03 Consumer Discretionary         0340 Leisure                                          0340810 Restaurants                                      
20160729 25065K104 US25065K1043 DXLG     NASDAQ       DESTINATION XL GRP INC        10286      53080.62  0.006312 03 Consumer Discretionary         0360 Retail                                           0360834 Specialty Retail                                 
20160729 251893103 US2518931033 DV       NYSE         DEVRY EDUCATION GROUP         61823    1376798.21  0.163721 03 Consumer Discretionary         0330 Consumer Services                                0330461 Education Services                               
20160729 252784301 US2527843013 DRH      NYSE         DIAMONDROCK HOSPITALITY      198473    1949004.86  0.231765 10 Financial Services             1060 Real Estate Investment Trusts                    1060909 Equity REIT: Lodging and Resorts                 
20160729 253651103 US2536511031 DBD      NYSE         DIEBOLD INC                   44914    1268356.08  0.150826 01 Technology                     0130 Information Technology                           0130449 Computer Technology                              
20160729 253798102 US2537981027 DGII     NASDAQ       DIGI INTL INC                 25608     284504.88  0.033832 01 Technology                     0140 Telecommunication                                0140448 Communications Technology                        
20160729 25381B101 US25381B1017 DMRC     NASDAQ       DIGIMARC CORPORATION            536      19550.90  0.002325 01 Technology                     0130 Information Technology                           0130439 Computer Services Software & Systems             
20160729 25389M877 US25389M8771 DGI      NYSE         DIGITALGLOBE INC              62411    1682600.56  0.200085 01 Technology                     0140 Telecommunication                                0140448 Communications Technology                        
20160729 253922108 US2539221083 DCOM     NASDAQ       DIME CMNTY BANCSHARES         30898     534535.40  0.063564 10 Financial Services             1010 Banks                                            1010820 Banks: Savings/Thrifts & Mortgage Lend           
20160729 25433V105 US25433V1052 DMTX     NASDAQ       DIMENSION THERAPEUTICS         7550      53751.55  0.006392 02 Health Care                    0230 Pharmaceuticals & Biotech                        0230412 Biotechnology                                    
20160729 254423106 US2544231069 DIN      NYSE         DINEEQUITY INC                 7299     593946.81  0.070629 03 Consumer Discretionary         0340 Leisure                                          0340810 Restaurants                                      
20160729 254543101 US2545431015 DIOD     NASDAQ       DIODES INC                    37640     696716.40  0.082850 01 Technology                     0120 Electronics                                      0120476 Semiconductors & Components                      
20160729 257701201 US2577012014 DGICA    NASDAQ       DONEGAL GROUP INC              8224     132982.08  0.015813 10 Financial Services             1030 Insurance                                        1030542 Insurance: Property-Casualty                     
20160729 25960R105 US25960R1059 PLOW     NYSE         DOUGLAS DYNAMICS INC           3191      85537.72  0.010172 08 Producer Durables              0810 Machinery                                        0810577 Machinery: Construction & Handling               
20160729 264147109 US2641471097 DCO      NYSE         DUCOMMUN INC                  10272     198660.48  0.023624 08 Producer Durables              0840 Transportation & Freight                         0840300 Aerospace                                        
20160729 267888105 US2678881051 BOOM     NASDAQ       DYNAMIC MATERIALS CORP        13852     141844.48  0.016867 07 Materials & Processing         0740 Metals & Minerals                                0740630 Metal Fabricating                                
20160729 26817Q506 US26817Q5062 DX       NYSE         DYNEX CAPITAL INC             44335     311231.70  0.037010 10 Financial Services             1060 Real Estate Investment Trusts                    1060930 Mortgage REIT: Residential                       
20160729 26817R108 US26817R1086 DYN      NYSE         DYNEGY INC                   115509    1747651.17  0.207821 11 Utilities                      1110 Utilities                                        1110870 Utilities: Electrical                            
20160729 268603107 US2686031079 LOCO     NASDAQ       EL POLLO LOCO HLDGS INC       20038     263700.08  0.031358 03 Consumer Discretionary         0340 Leisure                                          0340810 Restaurants                                      
20160729 268664109 US2686641091 EMCI     NASDAQ       EMC INS GROUP INC              8249     228744.77  0.027201 10 Financial Services             1030 Insurance                                        1030542 Insurance: Property-Casualty                     
20160729 268785102 US2687851020 EPE      NYSE         EP ENERGY CORPORATION         38247     159489.99  0.018966 06 Energy                         0620 Non-Renewable Energy                             0620670 Oil: Crude Producers                             
20160729 26882D109 US26882D1090 EPIQ     NASDAQ       EPIQ SYSTEMS INC              13572     221760.40  0.026370 01 Technology                     0130 Information Technology                           0130439 Computer Services Software & Systems             
20160729 26885G109 US26885G1094 ERA      NYSE         ERA GROUP INC                 19319     169620.82  0.020170 06 Energy                         0610 Energy Equipment & Services                      0610600 Oil Well Equipment & Services                    
20160729 268948106 US2689481065 EGBN     NASDAQ       EAGLE BANCORP INC              6467     333377.97  0.039643 10 Financial Services             1010 Banks                                            1010400 Banks: Diversified                               
20160729 269279402 US2692794025 XCO      NYSE         EXCO RESOURCES INC           138363     190940.94  0.022706 06 Energy                         0620 Non-Renewable Energy                             0620670 Oil: Crude Producers                             
20160729 27032D205 US27032D2053 ESTE     NYSE MKT     EARTHSTONE ENERGY INC          1635      16431.75  0.001954 06 Energy                         0620 Non-Renewable Energy                             0620670 Oil: Crude Producers                             
20160729 27616P103 US27616P1030 DEA      NYSE         EASTERLY GOVERNMENT PPTY      23553     482600.97  0.057388 10 Financial Services             1060 Real Estate Investment Trusts                    1060912 Equity REIT: Office                              
20160729 277461406 US2774614067 KODK     NYSE         EASTMAN KODAK CO               2659      45053.86  0.005358 03 Consumer Discretionary         0320 Consumer Products                                0320730 Photography                                      
20160729 27875T101 US27875T1016 ECHO     NASDAQ       ECHO GLOBAL LOGISTICS          3521      87185.61  0.010368 08 Producer Durables              0840 Transportation & Freight                         0840860 Transportation Miscellaneous                     
20160729 27890G100 US27890G1004 ECR      NYSE         ECLIPSE RESOURCES CORP        48209     151858.35  0.018058 06 Energy                         0620 Non-Renewable Energy                             0620670 Oil: Crude Producers                             
20160729 279870109 US2798701098 EDGE     NASDAQ       EDGE THERAPEUTICS INC          9873      95764.17  0.011388 02 Health Care                    0230 Pharmaceuticals & Biotech                        0230412 Biotechnology                                    
20160729 28140H203 US28140H2031 EDR      NYSE         EDUCATION REALTY TRUST        57430    2764664.12  0.328758 10 Financial Services             1060 Real Estate Investment Trusts                    1060907 Equity REIT: Residential                         
20160729 28226B104 US28226B1044 EGLT     NASDAQ       EGALET CORPORATION            16459     121626.63  0.014463 02 Health Care                    0230 Pharmaceuticals & Biotech                        0230412 Biotechnology                                    
20160729 283677854 US2836778546 EE       NYSE         EL PASO ELECTRIC CO           39946    1904625.28  0.226487 11 Utilities                      1110 Utilities                                        1110870 Utilities: Electrical                            
20160729 28470R102 US28470R1023 ERI      NASDAQ       ELDORADO RESORTS INC           2575      37222.29  0.004426 03 Consumer Discretionary         0340 Leisure                                          0340434 Casinos & Gambling                               
20160729 285218103 US2852181039 ELRC     NASDAQ       ELECTRO RENT CORP             16809     260035.23  0.030922 08 Producer Durables              0840 Transportation & Freight                         0840808 Commercial Services: Rental & Leasing            
20160729 285229100 US2852291002 ESIO     NASDAQ       ELECTRO SCIENTIFIC INDS       27172     183954.44  0.021875 01 Technology                     0120 Electronics                                      0120738 Production Technology Equipment                  
20160729 28660G106 US28660G1067 RDEN     NASDAQ       ELIZABETH ARDEN INC            1988      27639.43  0.003287 03 Consumer Discretionary         0320 Consumer Products                                0320450 Cosmetics                                        
20160729 288853104 US2888531041 PERY     NASDAQ       ELLIS PERRY INTL INC          12414     265907.88  0.031620 03 Consumer Discretionary         0320 Consumer Products                                0320850 Textiles Apparel & Shoes                         
20160729 290846203 US2908462037 EMKR     NASDAQ       EMCORE CORP                   25825     167346.00  0.019900 01 Technology                     0120 Electronics                                      0120476 Semiconductors & Components                      
20160729 29084Q100 US29084Q1004 EME      NYSE         EMCOR GROUP INC               49875    2777993.44  0.330343 08 Producer Durables              0820 Manufacturing & Production                       0820443 Construction                                     
20160729 291641108 US2916411083 EDE      NYSE         EMPIRE DISTRICT ELECTRIC      43630    1471639.90  0.174999 11 Utilities                      1110 Utilities                                        1110870 Utilities: Electrical                            
20160729 292052305 US2920523055 NYNY     NASDAQ       EMPIRE RESORTS INC             3023      46795.64  0.005565 03 Consumer Discretionary         0340 Leisure                                          0340434 Casinos & Gambling                               
20160729 292218104 US2922181043 EIG      NYSE         EMPLOYERS HOLDINGS INC        31709     904340.68  0.107539 10 Financial Services             1030 Insurance                                        1030542 Insurance: Property-Casualty                     
20160729 29251M106 US29251M1062 ENTA     NASDAQ       ENANTA PHARMACEUTICALS        15428     346975.72  0.041260 02 Health Care                    0230 Pharmaceuticals & Biotech                        0230412 Biotechnology                                    
20160729 292554102 US2925541029 ECPG     NASDAQ       ENCORE CAPITAL GROUP INC      23533     574440.53  0.068309 10 Financial Services             1020 Consumer Finance & Credit Services               1020492 Consumer Lending                                 
20160729 292562105 US2925621052 WIRE     NASDAQ       ENCORE WIRE CORP              19980     749849.40  0.089168 08 Producer Durables              0830 Scientific Instruments & Services                0830465 Scientific Instruments: Electrical               
20160729 29269A102 US29269A1025 ECYT     NASDAQ       ENDOCYTE INC                  34847     110811.55  0.013177 02 Health Care                    0230 Pharmaceuticals & Biotech                        0230460 Pharmaceuticals                                  
20160729 29275Y102 US29275Y1029 ENS      NYSE         ENERSYS INC                   30361    1892997.44  0.225104 08 Producer Durables              0830 Scientific Instruments & Services                0830465 Scientific Instruments: Electrical               
20160729 292764107 US2927641074 ENOC     NASDAQ       ENERNOC INC                    3701      27686.92  0.003292 06 Energy                         0630 Alternative Energy                               0630478 Alternative Energy                               
20160729 29286C107 US29286C1071 EGL      NYSE         ENGILITY HOLDINGS INC         17817     517405.68  0.061527 08 Producer Durables              0850 Commercial Services                              0850479 Engineering & Contracting Services               
20160729 293389102 US2933891028 EBF      NYSE         ENNIS INC                     25286     437953.52  0.052079 08 Producer Durables              0850 Commercial Services                              0850486 Forms and Bulk Printing Services                 
20160729 29357K103 US29357K1034 ENVA     NYSE         ENOVA INTERNATIONAL INC       26193     238094.37  0.028313 10 Financial Services             1020 Consumer Finance & Credit Services               1020492 Consumer Lending                                 
20160729 29362U104 US29362U1043 ENTG     NASDAQ       ENTEGRIS INC                  52140     891075.64  0.105962 01 Technology                     0120 Electronics                                      0120738 Production Technology Equipment                  
20160729 293639100 US2936391000 ETM      NYSE         ENTERCOM COMMUNICATIONS       25647     374702.67  0.044558 03 Consumer Discretionary         0350 Media                                            0350760 Radio & TV Broadcasters                          
20160729 293668109 US2936681095 EBTC     NASDAQ       ENTERPRISE BANCORP INC         8290     196224.30  0.023334 10 Financial Services             1010 Banks                                            1010400 Banks: Diversified                               
20160729 293712105 US2937121059 EFSC     NASDAQ       ENTERPRISE FINL SERVICES      18966     545462.16  0.064863 10 Financial Services             1010 Banks                                            1010400 Banks: Diversified                               
20160729 294100102 US2941001024 ENZ      NYSE         ENZO BIOCHEM INC               2352      16398.88  0.001950 02 Health Care                    0230 Pharmaceuticals & Biotech                        0230412 Biotechnology                                    
20160729 294268107 US2942681071 PLUS     NASDAQ       EPLUS INC                      1773     149199.70  0.017742 01 Technology                     0130 Information Technology                           0130439 Computer Services Software & Systems             
20160729 29428V104 US29428V1044 EPZM     NASDAQ       EPIZYME INC                   11412     118234.07  0.014060 02 Health Care                    0230 Pharmaceuticals & Biotech                        0230412 Biotechnology                                    
20160729 29460X109 US29460X1090 EQBK     NASDAQ       EQUITY BANCSHARE INC           4985     112611.15  0.013391 10 Financial Services             1010 Banks                                            1010400 Banks: Diversified                               
20160729 295625107 US2956251076 ERN      NYSE MKT     ERIN ENERGY CORPORATION       14293      36590.08  0.004351 06 Energy                         0620 Non-Renewable Energy                             0620670 Oil: Crude Producers                             
20160729 296056104 US2960561049 ESCA     NASDAQ       ESCALADE INC                  10421     111817.33  0.013297 03 Consumer Discretionary         0340 Leisure                                          0340556 Leisure Time                                     
20160729 296315104 US2963151046 ESE      NYSE         ESCO TECHNOLOGIES INC         25111    1063450.85  0.126460 08 Producer Durables              0830 Scientific Instruments & Services                0830524 Scientific Instruments: Control & Filter         
20160729 29664W105 US29664W1053 ESPR     NASDAQ       ESPERION THERAPEUTICS         14144     153603.84  0.018266 02 Health Care                    0230 Pharmaceuticals & Biotech                        0230460 Pharmaceuticals                                  
20160729 29667D104 US29667D1046 ESSA     NASDAQ       ESSA BANCORP INC               8068     114242.88  0.013585 10 Financial Services             1010 Banks                                            1010820 Banks: Savings/Thrifts & Mortgage Lend           
20160729 296689102 US2966891028 ESND     NASDAQ       ESSENDANT INC                 36825     737973.00  0.087756 08 Producer Durables              0820 Manufacturing & Production                       0820650 Office Supplies Equipment                        
20160729 297425100 US2974251009 ESL      NYSE         ESTERLINE TECHNOLOGIES        29226    1777817.58  0.211408 08 Producer Durables              0840 Transportation & Freight                         0840300 Aerospace                                        
20160729 29977G102 US29977G1022 EVER     NYSE         EVERBANK FINL CORP           101784    1828040.64  0.217380 10 Financial Services             1010 Banks                                            1010400 Banks: Diversified                               
20160729 30040P103 PR30040P1032 EVTC     NYSE         EVERTEC INC                   11429     196579.73  0.023376 10 Financial Services             1020 Consumer Finance & Credit Services               1020489 Financial Data & Systems                         
20160729 300415106 US3004151060 EVDY     NYSE         EVERYDAY HEALTH INC           18667     152319.96  0.018113 01 Technology                     0130 Information Technology                           0130439 Computer Services Software & Systems             
20160729 30050B101 US30050B1017 EVH      NYSE         EVOLENT HEALTH INC            15039     354018.06  0.042098 01 Technology                     0130 Information Technology                           0130439 Computer Services Software & Systems             
20160729 300645108 US3006451088 EXAR     NYSE         EXAR CORP                     33204     278248.98  0.033088 01 Technology                     0120 Electronics                                      0120476 Semiconductors & Components                      
20160729 30064E109 US30064E1091 EXAC     NASDAQ       EXACTECH INC                  10310     278679.30  0.033139 02 Health Care                    0220 Medical Equipment & Services                     0220507 Medical & Dental Instruments & Supplies          
20160729 30161Q104 US30161Q1040 EXEL     NASDAQ       EXELIXIS INC                  85599     785804.80  0.093443 02 Health Care                    0230 Pharmaceuticals & Biotech                        0230412 Biotechnology                                    
20160729 302104104 US3021041047 XONE     NASDAQ       EXONE COMPANY                  9419      95883.35  0.011402 08 Producer Durables              0810 Machinery                                        0810584 Machinery: Industrial                            
20160729 30219E103 US30219E1038 EXPR     NYSE         EXPRESS INC                   73493    1099455.28  0.130741 03 Consumer Discretionary         0360 Retail                                           0360834 Specialty Retail                                 
20160729 30227H106 US30227H1068 EXTN     NYSE         EXTERRAN CORPORATION          31307     398225.04  0.047355 06 Energy                         0610 Energy Equipment & Services                      0610600 Oil Well Equipment & Services                    
20160729 302301106 US3023011063 EZPW     NASDAQ       EZCORP INC                    50031     453280.86  0.053902 10 Financial Services             1020 Consumer Finance & Credit Services               1020492 Consumer Lending                                 
20160729 30239F106 US30239F1066 FFG      NYSE         FBL FINANCIAL GROUP INC        9718     606111.66  0.072075 10 Financial Services             1030 Insurance                                        1030528 Insurance: Life                                  
20160729 30247C400 US30247C4006 FBRC     NASDAQ       FBR & CO                       6185      93207.95  0.011084 10 Financial Services             1040 Investment Banking & Brokerage Services          1040457 Diversified Financial Services                   
20160729 302520101 US3025201019 FNB      NYSE         FNB CORP                     207743    2482528.85  0.295208 10 Financial Services             1010 Banks                                            1010400 Banks: Diversified                               
20160729 30255G103 US30255G1031 FCB      NYSE         FCB FINANCIAL HOLDINGS        29607    1035356.79  0.123119 10 Financial Services             1010 Banks                                            1010400 Banks: Diversified                               
20160729 30281V108 US30281V1089 FTD      NASDAQ       FTD COMPANIES INC             17230     436091.30  0.051857 03 Consumer Discretionary         0360 Retail                                           0360834 Specialty Retail                                 
20160729 30292L107 US30292L1070 FRPH     NASDAQ       FRP HOLDINGS INC               6215     226101.70  0.026887 10 Financial Services             1050 Real Estate                                      1050802 Real Estate Holding and Development              
20160729 302941109 US3029411093 FCN      NYSE         FTI CONSULTING INC            37412    1602693.75  0.190583 08 Producer Durables              0850 Commercial Services                              0850365 Back Office Support HR & Consulting              
20160729 303726103 US3037261035 FCS      NASDAQ       FAIRCHILD SEMICONDUCTOR       71806    1417442.96  0.168554 01 Technology                     0120 Electronics                                      0120476 Semiconductors & Components                      
20160729 30555Q108 US30555Q1085 FMSA     NYSE         FAIRMOUNT SANTROL HLDGS       65068     445715.80  0.053002 06 Energy                         0610 Energy Equipment & Services                      0610600 Oil Well Equipment & Services                    
20160729 305560302 US3055603027 FRP      NASDAQ       FAIRPOINT COMMUNICATIONS       4426      71659.32  0.008521 11 Utilities                      1110 Utilities                                        1110880 Utilities: Telecommunications                    
20160729 309562106 US3095621062 FFKT     NASDAQ       FARMERS CAPITAL BK CORP        7271     214785.34  0.025541 10 Financial Services             1010 Banks                                            1010400 Banks: Diversified                               
20160729 309627107 US3096271073 FMNB     NASDAQ       FARMERS NATL BANC CORP        24558     234528.90  0.027889 10 Financial Services             1010 Banks                                            1010400 Banks: Diversified                               
20160729 31154R109 US31154R1095 FPI      NYSE         FARMLAND PARTNERS INC         11504     135517.12  0.016115 10 Financial Services             1060 Real Estate Investment Trusts                    1060915 Equity REIT: Other Specialty                     
20160729 311642102 US3116421021 FARO     NASDAQ       FARO TECHNOLOGIES INC         12294     428788.56  0.050989 08 Producer Durables              0830 Scientific Instruments & Services                0830474 Scientific Instruments: Gauges & Meters          
20160729 313148306 US3131483063 AGM      NYSE         FEDERAL AGRIC MTG CO           8487     326155.41  0.038785 10 Financial Services             1020 Consumer Finance & Credit Services               1020487 Commercial Finance & Mortgage Co                 
20160729 313549404 US3135494041 FDML     NASDAQ       FEDERAL MOGUL HOLDINGS        30330     268117.20  0.031883 03 Consumer Discretionary         0310 Auto & Auto Parts                                0310340 Auto Parts                                       
20160729 313855108 US3138551086 FSS      NYSE         FEDERAL SIGNAL CORP           59290     779663.50  0.092713 08 Producer Durables              0820 Manufacturing & Production                       0820453 Diversified Manufacturing Operations             
20160729 31422T101 US31422T1016 FNHC     NASDAQ       FEDERATED NATL HOLDING        12423     260261.85  0.030949 10 Financial Services             1030 Insurance                                        1030542 Insurance: Property-Casualty                     
20160729 31430F101 US31430F1012 FCH      NYSE         FELCOR LODGING TRUST INC      16575     105253.52  0.012516 10 Financial Services             1060 Real Estate Investment Trusts                    1060909 Equity REIT: Lodging and Resorts                 
20160729 315785105 US3157851052 FGL      NYSE         FIDELITY & GUARANTY           11768     257248.48  0.030591 10 Financial Services             1030 Insurance                                        1030528 Insurance: Life                                  
20160729 31620R402 US31620R4020 FNFV     NYSE         FNFV GROUP                    65009     775557.37  0.092225 10 Financial Services             1040 Investment Banking & Brokerage Services          1040457 Diversified Financial Services                   
20160729 316394105 US3163941053 LION     NASDAQ       FIDELITY SOUTHERN CORP        20495     352718.95  0.041943 10 Financial Services             1010 Banks                                            1010400 Banks: Diversified                               
20160729 31660B101 US31660B1017 FRGI     NASDAQ       FIESTA RESTAURANT GROUP        4683     104638.15  0.012443 03 Consumer Discretionary         0340 Leisure                                          0340810 Restaurants                                      
20160729 31679P109 US31679P1093 FSAM     NASDAQ       FIFTH STREET ASSET MGMT         342       1375.82  0.000164 10 Financial Services             1040 Investment Banking & Brokerage Services          1040544 Asset Management & Custodian                     
20160729 317585404 US3175854047 FISI     NASDAQ       FINANCIAL INSTNS INC          13704     368637.60  0.043836 10 Financial Services             1010 Banks                                            1010400 Banks: Diversified                               
20160729 31787A507 US31787A5074 FNSR     NASDAQ       FINISAR CORP                 106276    1993737.76  0.237084 01 Technology                     0140 Telecommunication                                0140448 Communications Technology                        
20160729 317923100 US3179231002 FINL     NASDAQ       FINISH LINE INC               28628     622082.75  0.073975 03 Consumer Discretionary         0360 Retail                                           0360834 Specialty Retail                                 
20160729 31866P102 US31866P1021 FNLC     NASDAQ       FIRST BANCORP INC             10062     221867.10  0.026383 10 Financial Services             1010 Banks                                            1010400 Banks: Diversified                               
20160729 318672706 PR3186727065 FBP      NYSE         FIRST BANCORP PR             117534     539481.06  0.064152 10 Financial Services             1010 Banks                                            1010400 Banks: Diversified                               
20160729 318910106 US3189101062 FBNC     NASDAQ       FIRST BANCORP NC              19451     364122.72  0.043299 10 Financial Services             1010 Banks                                            1010400 Banks: Diversified                               
20160729 319383204 US3193832041 BUSE     NASDAQ       FIRST BUSEY CORP              30594     689282.82  0.081966 10 Financial Services             1010 Banks                                            1010400 Banks: Diversified                               
20160729 319390100 US3193901002 FBIZ     NASDAQ       FIRST BUSINESS FINL SVCS       7974     189063.54  0.022482 10 Financial Services             1010 Banks                                            1010400 Banks: Diversified                               
20160729 31946M103 US31946M1036 FCNCA    NASDAQ       FIRST CITIZENS BANCSHRS        7498    1947830.44  0.231625 10 Financial Services             1010 Banks                                            1010400 Banks: Diversified                               
20160729 319829107 US3198291078 FCF      NYSE         FIRST COMMONWLTH FINL         87538     844741.70  0.100452 10 Financial Services             1010 Banks                                            1010400 Banks: Diversified                               
20160729 31983A103 US31983A1034 FCBC     NASDAQ       FIRST CMNTY BANCSHAR          15442     354085.06  0.042106 10 Financial Services             1010 Banks                                            1010400 Banks: Diversified                               
20160729 319850103 US3198501039 FBNK     NASDAQ       FIRST CONN BANCORP INC        10869     174982.37  0.020808 10 Financial Services             1010 Banks                                            1010400 Banks: Diversified                               
20160729 31985Q106 US31985Q1067 FCFP     NASDAQ       FIRST COMMUNITY FINL INC      13430     121004.30  0.014389 10 Financial Services             1010 Banks                                            1010400 Banks: Diversified                               
20160729 32006W106 US32006W1062 FDEF     NASDAQ       FIRST DEFIANCE FINANCIAL       8702     362786.38  0.043140 10 Financial Services             1010 Banks                                            1010820 Banks: Savings/Thrifts & Mortgage Lend           
20160729 320209109 US3202091092 FFBC     NASDAQ       FIRST FINANCIAL BANCORP       60565    1290640.15  0.153476 10 Financial Services             1010 Banks                                            1010400 Banks: Diversified                               
20160729 32020R109 US32020R1095 FFIN     NASDAQ       FIRST FINL BANKSHARES         23717     810433.95  0.096372 10 Financial Services             1010 Banks                                            1010400 Banks: Diversified                               
20160729 320218100 US3202181000 THFF     NASDAQ       FIRST FINANCIAL CORP           9887     378672.10  0.045030 10 Financial Services             1010 Banks                                            1010400 Banks: Diversified                               
20160729 32022K102 US32022K1025 FFNW     NASDAQ       FIRST FINL NORTHWEST           8979     125526.42  0.014927 10 Financial Services             1010 Banks                                            1010820 Banks: Savings/Thrifts & Mortgage Lend           
20160729 32026V104 US32026V1044 FFWM     NASDAQ       FIRST FNDTN INC                8802     209575.62  0.024922 10 Financial Services             1010 Banks                                            1010400 Banks: Diversified                               
20160729 32054K103 US32054K1034 FR       NYSE         FIRST INDUSTRIAL RLTY TR      89558    2639252.45  0.313845 10 Financial Services             1060 Real Estate Investment Trusts                    1060906 Equity REIT: Industrial                          
20160729 320557101 US3205571017 INBK     NASDAQ       FIRST INTERNET BANCORP         5131     121348.15  0.014430 10 Financial Services             1010 Banks                                            1010400 Banks: Diversified                               
20160729 32055Y201 US32055Y2019 FIBK     NASDAQ       FIRST INTST BANCSYSTEM        19474     565524.96  0.067249 10 Financial Services             1010 Banks                                            1010400 Banks: Diversified                               
20160729 320734106 US3207341062 FLIC     NASDAQ       FIRST LONG ISLAND CORP        14076     427206.60  0.050801 10 Financial Services             1010 Banks                                            1010400 Banks: Diversified                               
20160729 320817109 US3208171096 FRME     NASDAQ       FIRST MERCHANTS CORP          40269    1055047.80  0.125460 10 Financial Services             1010 Banks                                            1010400 Banks: Diversified                               
20160729 320866106 US3208661062 FMBH     NASDAQ       FIRST MID ILL BANCSHARES       5673     142902.87  0.016993 10 Financial Services             1010 Banks                                            1010400 Banks: Diversified                               
20160729 320867104 US3208671046 FMBI     NASDAQ       FIRST MIDWEST BANCORP         79547    1485142.49  0.176605 10 Financial Services             1010 Banks                                            1010400 Banks: Diversified                               
20160729 32115D106 US32115D1063 FNBC     NASDAQ       FIRST NBC BK HLDG CO          15457     294146.71  0.034978 10 Financial Services             1010 Banks                                            1010400 Banks: Diversified                               
20160729 335834107 US3358341077 FNWB     NASDAQ       FIRST NORTHWEST BANCORP       10959     143343.72  0.017046 10 Financial Services             1010 Banks                                            1010400 Banks: Diversified                               
20160729 33610F109 US33610F1093 FPO      NYSE         FIRST POTOMAC REALTY TR       57313     579434.43  0.068903 10 Financial Services             1060 Real Estate Investment Trusts                    1060916 Equity REIT: Diversified                         
20160729 336901103 US3369011032 SRCE     NASDAQ       1ST SOURCE CORP               15463     519711.43  0.061801 10 Financial Services             1010 Banks                                            1010400 Banks: Diversified                               
20160729 337915102 US3379151026 FMER     NASDAQ       FIRSTMERIT CORP              163625    3473758.75  0.413080 10 Financial Services             1010 Banks                                            1010400 Banks: Diversified                               
20160729 337930705 US3379307057 FBC      NYSE         FLAGSTAR BANCORP INC          20679     546132.39  0.064943 10 Financial Services             1010 Banks                                            1010820 Banks: Savings/Thrifts & Mortgage Lend           
20160729 33830X104 US33830X1046 FPRX     NASDAQ       FIVE PRIME THERAPEUTICS       20448    1036481.39  0.123252 02 Health Care                    0230 Pharmaceuticals & Biotech                        0230412 Biotechnology                                    
20160729 339382103 US3393821034 FLXS     NASDAQ       FLEXSTEEL INDUSTRIES INC       6412     263533.20  0.031338 03 Consumer Discretionary         0320 Consumer Products                                0320523 Household Furnishings                            
20160729 33938A105 US33938A1051 FLKS     NASDAQ       FLEX PHARMA INC                1556      18449.98  0.002194 02 Health Care                    0230 Pharmaceuticals & Biotech                        0230412 Biotechnology                                    
20160729 343873105 US3438731057 FFIC     NASDAQ       FLUSHING FINANCIAL CORP       27454     612498.74  0.072835 10 Financial Services             1010 Banks                                            1010820 Banks: Savings/Thrifts & Mortgage Lend           
20160729 344177100 US3441771009 FOGO     NASDAQ       FOGO DE CHAI INC               4914      66977.82  0.007965 03 Consumer Discretionary         0340 Leisure                                          0340810 Restaurants                                      
20160729 346233109 US3462331097 FOR      NYSE         FORESTAR GROUP INC            30706     377058.76  0.044838 10 Financial Services             1050 Real Estate                                      1050802 Real Estate Holding and Development              
20160729 346375108 US3463751087 FORM     NASDAQ       FORMFACTOR INC                29005     271203.14  0.032250 01 Technology                     0120 Electronics                                      0120476 Semiconductors & Components                      
20160729 34984V100 US34984V1008 FET      NYSE         FORUM ENERGY TECH             59341     969038.53  0.115233 06 Energy                         0610 Energy Equipment & Services                      0610600 Oil Well Equipment & Services                    
20160729 34988V106 US34988V1061 FOSL     NASDAQ       FOSSIL GROUP INC              41459    1310104.40  0.155790 03 Consumer Discretionary         0320 Consumer Products                                0320547 Luxury Items                                     
20160729 35086T109 US35086T1097 FCPT     NYSE         FOUR CORNERS PPTY TRUST       19766     429126.96  0.051029 10 Financial Services             1060 Real Estate Investment Trusts                    1060915 Equity REIT: Other Specialty                     
20160729 353469109 US3534691098 FC       NYSE         FRANKLIN COVEY CO              2008      32979.68  0.003922 03 Consumer Discretionary         0330 Consumer Services                                0330461 Education Services                               
20160729 353514102 US3535141028 FELE     NASDAQ       FRANKLIN ELECTRIC CO           2822     109272.33  0.012994 08 Producer Durables              0830 Scientific Instruments & Services                0830465 Scientific Instruments: Electrical               
20160729 35352P104 US35352P1049 FSB      NYSE         FRANKLIN FINANCIAL NTWK        6872     232811.91  0.027685 10 Financial Services             1010 Banks                                            1010400 Banks: Diversified                               
20160729 35471R106 US35471R1068 FSP      NYSE MKT     FRANKLIN STREET PPTYS CO      96458    1236591.56  0.147048 10 Financial Services             1060 Real Estate Investment Trusts                    1060912 Equity REIT: Office                              
20160729 356108100 US3561081007 FRED     NASDAQ       FREDS INC                     32993     524255.35  0.062341 03 Consumer Discretionary         0360 Retail                                           0360815 Diversified Retail                               
20160729 357023100 US3570231007 RAIL     NASDAQ       FREIGHTCAR AMERICA INC        11965     178278.50  0.021200 08 Producer Durables              0840 Transportation & Freight                         0840770 Railroad Equipment                               
20160729 35952H502 US35952H5028 FCEL     NASDAQ       FUELCELL ENERGY INC           24526     132195.14  0.015720 06 Energy                         0610 Energy Equipment & Services                      0610477 Energy Equipment                                 
20160729 360271100 US3602711000 FULT     NASDAQ       FULTON FINANCIAL CORP        170005    2320568.25  0.275949 10 Financial Services             1010 Banks                                            1010400 Banks: Diversified                               
20160729 36116M106 US36116M1062 FF       NYSE         FUTUREFUEL CORPORATION        24658     282580.68  0.033603 07 Materials & Processing         0720 Chemicals and Synthetics                         0720833 Chemicals: Specialty                             
20160729 361268105 US3612681052 GK       NASDAQ       G&K SERVICES INC               4666     374279.27  0.044507 08 Producer Durables              0850 Commercial Services                              0850484 Environmental Maint & Security Service           
20160729 361438104 US3614381040 GBL      NYSE         GAMCO INVESTORS INC            3490     119137.50  0.014167 10 Financial Services             1040 Investment Banking & Brokerage Services          1040544 Asset Management & Custodian                     
20160729 361448103 US3614481030 GATX     NYSE         GATX CORP                     40426    1808254.98  0.215027 08 Producer Durables              0840 Transportation & Freight                         0840808 Commercial Services: Rental & Leasing            
20160729 36162J106 US36162J1060 GEO      NYSE         GEO GROUP INC                 57471    1989058.64  0.236527 10 Financial Services             1060 Real Estate Investment Trusts                    1060915 Equity REIT: Other Specialty                     
20160729 36164Y101 US36164Y1010 GCP      NYSE         GCP APPLIED TECHNOLOGIES      10934     301035.59  0.035797 07 Materials & Processing         0720 Chemicals and Synthetics                         0720833 Chemicals: Specialty                             
20160729 36237H101 US36237H1014 GIII     NASDAQ       G-III APPAREL GROUP LTD        8584     343633.29  0.040863 03 Consumer Discretionary         0320 Consumer Products                                0320850 Textiles Apparel & Shoes                         
20160729 36268W100 US36268W1009 GCAP     NYSE         GAIN CAPITAL HLDNGS INC       30805     207003.50  0.024616 10 Financial Services             1040 Investment Banking & Brokerage Services          1040823 Securities Brokerage & Services                  
20160729 36269P104 US36269P1049 GAIA     NASDAQ       GAIA INC                       7069      57751.05  0.006867 03 Consumer Discretionary         0360 Retail                                           0360815 Diversified Retail                               
20160729 36473H104 US36473H1041 GCI      NYSE         GANNETT CO INC               116182    1482482.32  0.176288 03 Consumer Discretionary         0350 Media                                            0350740 Publishing                                       
20160729 368678108 US3686781085 GENC     NASDAQ       GENCOR INDUSTRIES INC          5103      89812.80  0.010680 08 Producer Durables              0810 Machinery                                        0810584 Machinery: Industrial                            
20160729 369300108 US3693001089 BGC      NYSE         GENERAL CABLE CORP             3498      51535.42  0.006128 08 Producer Durables              0830 Scientific Instruments & Services                0830465 Scientific Instruments: Electrical               
20160729 371532102 US3715321028 GCO      NYSE         GENESCO INC                   17905    1242937.33  0.147803 03 Consumer Discretionary         0360 Retail                                           0360834 Specialty Retail                                 
20160729 37185X106 US37185X1063 GEN      NYSE         GENESIS HEALTHCARE INC        17195      35422.18  0.004212 02 Health Care                    0210 Health Care Services                             0210504 Health Care Facilities                           
20160729 372284208 US3722842081 GNE      NYSE         GENIE ENERGY LTD              12742      81803.64  0.009728 11 Utilities                      1110 Utilities                                        1110870 Utilities: Electrical                            
20160729 37247D106 US37247D1063 GNW      NYSE         GENWORTH FINANCIAL INC       497458    1422729.88  0.169183 10 Financial Services             1030 Insurance                                        1030535 Insurance: Multi-Line                            
20160729 37364X109 US37364X1090 GEOS     NASDAQ       GEOSPACE TECHNOLOGIES         12883     212569.50  0.025278 06 Energy                         0610 Energy Equipment & Services                      0610600 Oil Well Equipment & Services                    
20160729 373865104 US3738651047 GABC     NASDAQ       GERMAN AMERICAN BANCORP       14026     476884.00  0.056708 10 Financial Services             1010 Banks                                            1010400 Banks: Diversified                               
20160729 374297109 US3742971092 GTY      NYSE         GETTY REALTY CORP             25893     588288.96  0.069956 10 Financial Services             1060 Real Estate Investment Trusts                    1060908 Equity REIT: Retail                              
20160729 374689107 US3746891072 ROCK     NASDAQ       GIBRALTAR INDUSTRIES INC      11032     389210.94  0.046283 07 Materials & Processing         0710 Building Materials & Services                    0710430 Building Materials                               
20160729 37518Q109 US37518Q1094 GIG      NYSE MKT     GIGPEAK INC                   41435      78310.55  0.009312 01 Technology                     0120 Electronics                                      0120476 Semiconductors & Components                      
20160729 37637Q105 US37637Q1058 GBCI     NASDAQ       GLACIER BANCORP INC           75338    2077822.04  0.247083 10 Financial Services             1010 Banks                                            1010400 Banks: Diversified                               
20160729 376536108 US3765361080 GOOD     NASDAQ       GLADSTONE COMMERCIAL          22079     401837.80  0.047784 10 Financial Services             1060 Real Estate Investment Trusts                    1060932 Mortgage REIT: Diversified                       
20160729 377316104 US3773161043 GLT      NYSE         GLATFELTER                    42964     887636.24  0.105553 07 Materials & Processing         0730 Industrial Materials & Processes                 0730720 Paper                                            
20160729 378973408 US3789734080 GSAT     NYSE MKT     GLOBALSTAR INC               137871     164067.36  0.019510 11 Utilities                      1110 Utilities                                        1110880 Utilities: Telecommunications                    
20160729 379378102 US3793781028 GNL      NYSE         GLOBAL NET LEASE INC         168601    1471886.73  0.175028 10 Financial Services             1060 Real Estate Investment Trusts                    1060908 Equity REIT: Retail                              
20160729 37951D102 US37951D1028 ENT      NASDAQ       GLOBAL EAGLE ENTMT INC        42930     352020.10  0.041860 01 Technology                     0130 Information Technology                           0130439 Computer Services Software & Systems             
20160729 37953G103 US37953G1031 BRSS     NYSE         GLOBAL BRASS & COPPR HLD       1857      52615.02  0.006257 07 Materials & Processing         0740 Metals & Minerals                                0740630 Metal Fabricating                                
20160729 379890106 US3798901068 GLUU     NASDAQ       GLU MOBILE INC               101691     237956.94  0.028296 01 Technology                     0130 Information Technology                           0130469 Electronic Entertainment                         
20160729 38068T105 US38068T1051 GORO     NYSE MKT     GOLD RESOURCE CORP            10178      57204.10  0.006802 07 Materials & Processing         0740 Metals & Minerals                                0740498 Gold                                             
20160729 381013101 US3810131017 GDEN     NASDAQ       GOLDEN ENTERTAINMENT INC       8065     109753.00  0.013051 03 Consumer Discretionary         0340 Leisure                                          0340434 Casinos & Gambling                               
20160729 38268T103 US38268T1034 GPRO     NASDAQ       GOPRO INC                     99858    1262205.12  0.150094 03 Consumer Discretionary         0320 Consumer Products                                0320730 Photography                                      
20160729 383082104 US3830821043 GRC      NYSE MKT     GORMAN RUPP CO                 2280      61791.53  0.007348 08 Producer Durables              0830 Scientific Instruments & Services                0830524 Scientific Instruments: Control & Filter         
20160729 38376A103 US38376A1034 GOV      NASDAQ       GOVERNMENT PPTY INCOME        69299    1653474.14  0.196622 10 Financial Services             1060 Real Estate Investment Trusts                    1060912 Equity REIT: Office                              
20160729 384556106 US3845561063 GHM      NYSE         GRAHAM CORP                    9443     170162.86  0.020235 08 Producer Durables              0810 Machinery                                        0810584 Machinery: Industrial                            
20160729 385002100 US3850021003 GPT      NYSE         GRAMERCY PROPERTY TRUST      355370    3550137.21  0.422162 10 Financial Services             1060 Real Estate Investment Trusts                    1060906 Equity REIT: Industrial                          
20160729 387328107 US3873281071 GVA      NYSE         GRANITE CONSTR INC             9490     472430.37  0.056179 08 Producer Durables              0820 Manufacturing & Production                       0820443 Construction                                     
20160729 389375106 US3893751061 GTN      NYSE         GRAY TELEVISION INC           23700     234637.46  0.027902 03 Consumer Discretionary         0350 Media                                            0350760 Radio & TV Broadcasters                          
20160729 38983D300 US38983D3008 AJX      NYSE         GREAT AJAX CORP               12800     177280.00  0.021081 10 Financial Services             1060 Real Estate Investment Trusts                    1060932 Mortgage REIT: Diversified                       
20160729 390607109 US3906071093 GLDD     NASDAQ       GREAT LAKES DREDGE & DOC      52894     234845.75  0.027927 08 Producer Durables              0820 Manufacturing & Production                       0820443 Construction                                     
20160729 390905107 US3909051076 GSBC     NASDAQ       GREAT SOUTHERN BANCORP        10599     415480.80  0.049407 10 Financial Services             1010 Banks                                            1010400 Banks: Diversified                               
20160729 391416104 US3914161043 GWB      NYSE         GREAT WESTERN BANCORP         58368    1936066.56  0.230226 10 Financial Services             1010 Banks                                            1010400 Banks: Diversified                               
20160729 39260X100 US39260X1000 GNBC     NASDAQ       GREEN BANCORP INC             20436     199864.08  0.023767 10 Financial Services             1010 Banks                                            1010400 Banks: Diversified                               
20160729 392709101 US3927091013 GRBK     NASDAQ       GREEN BRICK PARTNERS INC      22942     161970.52  0.019261 06 Energy                         0630 Alternative Energy                               0630478 Alternative Energy                               
20160729 39304D102 US39304D1028 GDOT     NYSE         GREEN DOT CORP                34877     844005.10  0.100364 10 Financial Services             1020 Consumer Finance & Credit Services               1020489 Financial Data & Systems                         
20160729 393222104 US3932221043 GPRE     NASDAQ       GREEN PLAINS INC              35771     811286.28  0.096474 06 Energy                         0630 Alternative Energy                               0630478 Alternative Energy                               
20160729 393657101 US3936571013 GBX      NYSE         GREENBRIER COMPANIES INC      26804     879975.32  0.104642 08 Producer Durables              0840 Transportation & Freight                         0840770 Railroad Equipment                               
20160729 394357107 US3943571071 GCBC     NASDAQ       GREENE COUNTY BANCORP          2713      45189.52  0.005374 10 Financial Services             1010 Banks                                            1010820 Banks: Savings/Thrifts & Mortgage Lend           
20160729 395259104 US3952591044 GHL      NYSE         GREENHILL & CO INC             7082     140453.39  0.016702 10 Financial Services             1040 Investment Banking & Brokerage Services          1040457 Diversified Financial Services                   
20160729 397624107 US3976241071 GEF      NYSE         GREIF INC                     25299    1015248.87  0.120728 07 Materials & Processing         0730 Industrial Materials & Processes                 0730442 Containers & Packaging                           
20160729 397624206 US3976242061 GEF.B    NYSE         GREIF INC                      5654     299492.38  0.035614 07 Materials & Processing         0730 Industrial Materials & Processes                 0730442 Containers & Packaging                           
20160729 398231100 US3982311009 GRIF     NASDAQ       GRIFFIN INDUSTRIAL RLTY         701      22565.19  0.002683 10 Financial Services             1050 Real Estate                                      1050802 Real Estate Holding and Development              
20160729 398433102 US3984331021 GFF      NYSE         GRIFFON CORP                   4871      83504.49  0.009930 07 Materials & Processing         0710 Building Materials & Services                    0710430 Building Materials                               
20160729 398905109 US3989051095 GPI      NYSE         GROUP 1 AUTOMOTIVE INC        15797     984408.53  0.117060 03 Consumer Discretionary         0360 Retail                                           0360834 Specialty Retail                                 
20160729 40075T607 US40075T6073 GBNK     NASDAQ       GUARANTY BANCORP              14833     250232.71  0.029756 10 Financial Services             1010 Banks                                            1010400 Banks: Diversified                               
20160729 401617105 US4016171054 GES      NYSE         GUESS INC                     60453     889868.16  0.105818 03 Consumer Discretionary         0320 Consumer Products                                0320850 Textiles Apparel & Shoes                         
20160729 404139107 US4041391073 HCHC     NYSE MKT     HC2 HLDGS INC                 32990     151754.00  0.018046 08 Producer Durables              0850 Commercial Services                              0850479 Engineering & Contracting Services               
20160729 40416E103 US40416E1038 HCI      NYSE         HCI GROUP INC                  8536     257445.76  0.030614 10 Financial Services             1030 Insurance                                        1030542 Insurance: Property-Casualty                     
20160729 405024100 US4050241003 HAE      NYSE         HAEMONETICS CORP              50567    1533191.44  0.182318 02 Health Care                    0220 Medical Equipment & Services                     0220471 Medical Equipment                                
20160729 40624Q203 US40624Q2030 HALL     NASDAQ       HALLMARK FINL SVCS INC        13775     146152.75  0.017380 10 Financial Services             1030 Insurance                                        1030542 Insurance: Property-Casualty                     
20160729 40650V100 US40650V1008 HYH      NYSE         HALYARD HEALTH INC            46258    1600064.22  0.190270 02 Health Care                    0220 Medical Equipment & Services                     0220507 Medical & Dental Instruments & Supplies          
20160729 409321502 US4093215022 HMPR     NASDAQ       HAMPTON ROADS BANKSHARES      34458      70638.90  0.008400 10 Financial Services             1010 Banks                                            1010400 Banks: Diversified                               
20160729 410120109 US4101201097 HBHC     NASDAQ       HANCOCK HOLDING CO            76516    2218198.84  0.263776 10 Financial Services             1010 Banks                                            1010400 Banks: Diversified                               
20160729 410315105 US4103151050 HNH      NASDAQ       HANDY & HARMAN HLDGS LTD       2893      80627.91  0.009588 07 Materials & Processing         0740 Metals & Minerals                                0740835 Steel                                            
20160729 410495204 US4104952043 HAFC     NASDAQ       HANMI FINANCIAL CORP          31000     760120.00  0.090389 10 Financial Services             1010 Banks                                            1010400 Banks: Diversified                               
20160729 41068X100 US41068X1000 HASI     NYSE         HANNON ARMSTRONG SUSTAIN      36129     812541.21  0.096623 10 Financial Services             1060 Real Estate Investment Trusts                    1060931 Mortgage REIT: Commercial                        
20160729 412324303 US4123243036 HDNG     NASDAQ       HARDINGE INC                  11553     116685.30  0.013876 08 Producer Durables              0810 Machinery                                        0810584 Machinery: Industrial                            
20160729 413160102 US4131601027 HLIT     NASDAQ       HARMONIC INC                  75571     248628.59  0.029565 01 Technology                     0140 Telecommunication                                0140448 Communications Technology                        
20160729 415864107 US4158641070 HSC      NYSE         HARSCO CORP                   79653     779802.87  0.092730 08 Producer Durables              0820 Manufacturing & Production                       0820453 Diversified Manufacturing Operations             
20160729 419596101 US4195961010 HVT      NYSE         HAVERTY FURNITURE INC         19416     357836.88  0.042552 03 Consumer Discretionary         0360 Retail                                           0360834 Specialty Retail                                 
20160729 420031106 US4200311060 HCOM     NASDAQ       HAWAIIAN TELCOM HOLDCO         5953     132156.60  0.015715 11 Utilities                      1110 Utilities                                        1110880 Utilities: Telecommunications                    
20160729 420261109 US4202611095 HWKN     NASDAQ       HAWKINS INC                    7618     325567.51  0.038715 07 Materials & Processing         0720 Chemicals and Synthetics                         0720433 Chemicals: Diversified                           
20160729 420877201 US4208772016 HAYN     NASDAQ       HAYNES INTERNATIONAL INC      12281     466432.38  0.055465 07 Materials & Processing         0740 Metals & Minerals                                0740630 Metal Fabricating                                
20160729 421946104 US4219461047 HR       NYSE         HEALTHCARE REALTY TRUST      103165    3730446.40  0.443603 10 Financial Services             1060 Real Estate Investment Trusts                    1060910 Equity REIT: Health Care                         
20160729 422245100 US4222451001 HWAY     NASDAQ       HEALTHWAYS INC                31488     530257.92  0.063055 02 Health Care                    0210 Health Care Services                             0210499 Health Care Services                             
20160729 42234Q102 US42234Q1022 HTLF     NASDAQ       HEARTLAND FINANCIAL USA       21697     796713.84  0.094741 10 Financial Services             1010 Banks                                            1010400 Banks: Diversified                               
20160729 422704106 US4227041062 HL       NYSE         HECLA MINING CO              377201    2448034.49  0.291106 07 Materials & Processing         0740 Metals & Minerals                                0740635 Metals & Minerals: Diversified                   
20160729 422819102 US4228191023 HSII     NASDAQ       HEIDRICK & STRUGGLES          18099     352206.54  0.041882 08 Producer Durables              0850 Commercial Services                              0850365 Back Office Support HR & Consulting              
20160729 42330P107 US42330P1075 HLX      NYSE         HELIX ENERGY SOLUTIONS        99512     790125.28  0.093957 06 Energy                         0610 Energy Equipment & Services                      0610600 Oil Well Equipment & Services                    
20160729 42365Q103 US42365Q1031 HMTV     NASDAQ       HEMISPHERE MEDIA GROUP          841      10680.16  0.001270 03 Consumer Discretionary         0350 Media                                            0350432 Cable Television Services                        
20160729 426927109 US4269271098 HTBK     NASDAQ       HERITAGE COMMERCE CORP        23276     243929.63  0.029007 10 Financial Services             1010 Banks                                            1010400 Banks: Diversified                               
20160729 42722X106 US42722X1063 HFWA     NASDAQ       HERITAGE FINANCIAL CORP       29140     508784.40  0.060502 10 Financial Services             1010 Banks                                            1010820 Banks: Savings/Thrifts & Mortgage Lend           
20160729 42724R107 US42724R1077 HEOP     NASDAQ       HERITAGE OAKS BANCORP         23699     192909.86  0.022940 10 Financial Services             1010 Banks                                            1010400 Banks: Diversified                               
20160729 42726M106 US42726M1062 HCCI     NASDAQ       HERITAGE CRYL CLEAN INC        5851      73793.32  0.008775 08 Producer Durables              0830 Scientific Instruments & Services                0830735 Scientific Instruments: Pollution Control        
20160729 42727J102 US42727J1025 HRTG     NYSE         HERITAGE INS HLDGS INC        26269     325472.91  0.038703 10 Financial Services             1030 Insurance                                        1030542 Insurance: Property-Casualty                     
20160729 427825500 US4278255009 HT       NYSE         HERSHA HOSPITALITY TRUST      38589     729322.71  0.086727 10 Financial Services             1060 Real Estate Investment Trusts                    1060909 Equity REIT: Lodging and Resorts                 
20160729 428567101 US4285671016 HIBB     NASDAQ       HIBBETT SPORTS INC             4673     163203.72  0.019407 03 Consumer Discretionary         0360 Retail                                           0360834 Specialty Retail                                 
20160729 42983D104 US42983D1046 ONE      NYSE         HIGHER ONE HLDGS INC          30376     155828.88  0.018530 10 Financial Services             1020 Consumer Finance & Credit Services               1020489 Financial Data & Systems                         
20160729 431466101 US4314661012 HIL      NYSE         HILL INTERNATIONAL INC        18392      76690.90  0.009120 08 Producer Durables              0850 Commercial Services                              0850479 Engineering & Contracting Services               
20160729 432748101 US4327481010 HTH      NYSE         HILLTOP HOLDINGS INC          74149    1614965.22  0.192042 10 Financial Services             1030 Insurance                                        1030542 Insurance: Property-Casualty                     
20160729 433323102 US4333231029 HIFS     NASDAQ       HINGHAM INSTN SVGS MASS         715      93589.02  0.011129 10 Financial Services             1010 Banks                                            1010820 Banks: Savings/Thrifts & Mortgage Lend           
20160729 43689E107 US43689E1073 HBCP     NASDAQ       HOME BANCORP INC               4946     143110.62  0.017018 10 Financial Services             1010 Banks                                            1010820 Banks: Savings/Thrifts & Mortgage Lend           
20160729 43785V102 US43785V1026 HMST     NASDAQ       HOMESTREET INC                23353     520771.90  0.061927 10 Financial Services             1010 Banks                                            1010400 Banks: Diversified                               
20160729 437872104 US4378721041 HTBI     NASDAQ       HOMETRUST BANCSHARES INC      16350     300513.00  0.035735 10 Financial Services             1010 Banks                                            1010400 Banks: Diversified                               
20160729 439038100 US4390381006 HOFT     NASDAQ       HOOKER FURNITURE CORP         10392     240359.33  0.028582 03 Consumer Discretionary         0320 Consumer Products                                0320523 Household Furnishings                            
20160729 440327104 US4403271046 HMN      NYSE         HORACE MANN EDUCATORS         40067    1369490.06  0.162852 10 Financial Services             1030 Insurance                                        1030535 Insurance: Multi-Line                            
20160729 440407104 US4404071049 HBNC     NASDAQ       HORIZON BANCORP IND           12917     355475.84  0.042271 10 Financial Services             1010 Banks                                            1010400 Banks: Diversified                               
20160729 440543106 US4405431069 HOS      NYSE         HORNBECK OFFSHORE SVCS        32143     256501.14  0.030502 06 Energy                         0610 Energy Equipment & Services                      0610600 Oil Well Equipment & Services                    
20160729 44157R109 US44157R1095 HMHC     NASDAQ       HOUGHTON MIFFLIN HARCOUR      40576     687779.46  0.081787 03 Consumer Discretionary         0330 Consumer Services                                0330461 Education Services                               
20160729 442487203 US4424872038 HOV      NYSE         HOVNANIAN ENTERPRISES        120427     221585.68  0.026350 03 Consumer Discretionary         0320 Consumer Products                                0320501 Homebuilding                                     
20160729 443320106 US4433201062 HUBG     NASDAQ       HUB GROUP INC                  2451     100378.41  0.011936 08 Producer Durables              0840 Transportation & Freight                         0840860 Transportation Miscellaneous                     
20160729 444097109 US4440971095 HPP      NYSE         HUDSON PAC PPTYS INC          77576    2622844.56  0.311894 10 Financial Services             1060 Real Estate Investment Trusts                    1060912 Equity REIT: Office                              
20160729 447324104 US4473241044 HURC     NASDAQ       HURCO COMPANIES INC            6276     167129.88  0.019874 08 Producer Durables              0810 Machinery                                        0810610 Machinery: Specialty                             
20160729 447462102 US4474621020 HURN     NASDAQ       HURON CONSULTING GROUP        18544    1139896.73  0.135550 08 Producer Durables              0850 Commercial Services                              0850365 Back Office Support HR & Consulting              
20160729 448947507 US4489475073 IDT      NYSE         IDT CORP                       6825     104154.11  0.012385 11 Utilities                      1110 Utilities                                        1110880 Utilities: Telecommunications                    
20160729 449172105 US4491721050 HY       NYSE         HYSTER-YALE MATERIALS          6429     410088.69  0.048765 08 Producer Durables              0810 Machinery                                        0810577 Machinery: Construction & Handling               
20160729 44925C103 US44925C1036 ICFI     NASDAQ       ICF INTERNATIONAL INC         17839     738177.82  0.087780 08 Producer Durables              0850 Commercial Services                              0850365 Back Office Support HR & Consulting              
20160729 44930G107 US44930G1076 ICUI     NASDAQ       ICU MEDICAL INC                4606     537834.74  0.063956 02 Health Care                    0220 Medical Equipment & Services                     0220507 Medical & Dental Instruments & Supplies          
20160729 44938L108 US44938L1089 IDI      NYSE MKT     IDI INC                       15001      77705.18  0.009240 03 Consumer Discretionary         0350 Media                                            0350301 Advertising Agencies                             
20160729 44951W106 US44951W1062 IESC     NASDAQ       IES HOLDINGS INC                773      12032.59  0.001431 08 Producer Durables              0850 Commercial Services                              0850479 Engineering & Contracting Services               
20160729 45071R109 US45071R1095 XXIA     NASDAQ       IXIA                          63415     729272.50  0.086721 01 Technology                     0140 Telecommunication                                0140448 Communications Technology                        
20160729 450828108 US4508281080 IBKC     NASDAQ       IBERIABANK CORP               40486    2529160.42  0.300753 10 Financial Services             1010 Banks                                            1010400 Banks: Diversified                               
20160729 451055107 US4510551074 ICON     NASDAQ       ICONIX BRAND GROUP INC        42336     304819.20  0.036247 03 Consumer Discretionary         0320 Consumer Products                                0320850 Textiles Apparel & Shoes                         
20160729 451107106 US4511071064 IDA      NYSE         IDACORP INC                   49958    4039104.30  0.480307 11 Utilities                      1110 Utilities                                        1110870 Utilities: Electrical                            
20160729 45168K306 US45168K3068 IDRA     NASDAQ       IDERA PHARMACEUTICALS          6509      11197.08  0.001331 02 Health Care                    0230 Pharmaceuticals & Biotech                        0230412 Biotechnology                                    
20160729 451731103 US4517311035 RXDX     NASDAQ       IGNYTA INC                    10601      58416.27  0.006947 02 Health Care                    0230 Pharmaceuticals & Biotech                        0230412 Biotechnology                                    
20160729 452521107 US4525211078 IMMR     NASDAQ       IMMERSION CORP                19133     143681.79  0.017086 01 Technology                     0130 Information Technology                           0130449 Computer Technology                              
20160729 45252L103 US45252L1035 IMDZ     NASDAQ       IMMUNE DESIGN CORP              641       4917.04  0.000585 02 Health Care                    0230 Pharmaceuticals & Biotech                        0230412 Biotechnology                                    
20160729 45254P508 US45254P5089 IMH      NYSE MKT     IMPAC MTG HLDGS INC            7828     135815.80  0.016150 10 Financial Services             1020 Consumer Finance & Credit Services               1020487 Commercial Finance & Mortgage Co                 
20160729 452907108 US4529071080 IMMU     NASDAQ       IMMUNOMEDICS INC               5863      15538.11  0.001848 02 Health Care                    0230 Pharmaceuticals & Biotech                        0230412 Biotechnology                                    
20160729 453415309 US4534153097 ICD      NYSE         IND CONTRACT DRILLING         29622     148998.66  0.017718 06 Energy                         0610 Energy Equipment & Services                      0610600 Oil Well Equipment & Services                    
20160729 453440307 US4534403070 IHC      NYSE         INDEPENDENCE HOLDING CO        7024     122287.84  0.014542 10 Financial Services             1030 Insurance                                        1030528 Insurance: Life                                  
20160729 45378A106 US45378A1060 IRT      NYSE MKT     INDEPENDENCE RLTY TRUST       39867     360397.68  0.042856 10 Financial Services             1060 Real Estate Investment Trusts                    1060907 Equity REIT: Residential                         
20160729 453836108 US4538361084 INDB     NASDAQ       INDEPENDENT BANK MA           25574    1284070.54  0.152694 10 Financial Services             1010 Banks                                            1010400 Banks: Diversified                               
20160729 453838609 US4538386099 IBCP     NASDAQ       INDEPENDENT BANK CORP         20116     309384.08  0.036790 10 Financial Services             1010 Banks                                            1010400 Banks: Diversified                               
20160729 45384B106 US45384B1061 IBTX     NASDAQ       INDEPENDENT BK GROUP INC      10981     464057.06  0.055183 10 Financial Services             1010 Banks                                            1010400 Banks: Diversified                               
20160729 45665G303 US45665G3039 INFI     NASDAQ       INFINITY PHARMACEUTICALS       3834       6442.10  0.000766 02 Health Care                    0230 Pharmaceuticals & Biotech                        0230460 Pharmaceuticals                                  
20160729 45665Q103 US45665Q1031 IPCC     NASDAQ       INFINITY PPTY & CAS CORP      10666     875038.64  0.104055 10 Financial Services             1030 Insurance                                        1030542 Insurance: Property-Casualty                     
20160729 45667G103 US45667G1031 INFN     NASDAQ       INFINERA CORP                 41800     366169.50  0.043543 01 Technology                     0140 Telecommunication                                0140448 Communications Technology                        
20160729 45685L100 US45685L1008 HIFR     NYSE         INFRAREIT INC                 39369     695256.54  0.082676 10 Financial Services             1060 Real Estate Investment Trusts                    1060914 Equity REIT: Infrastructure                      
20160729 45688C107 US45688C1071 NGVT     NYSE         INGEVITY CORPORATION           8293     317377.28  0.037741 07 Materials & Processing         0720 Chemicals and Synthetics                         0720433 Chemicals: Diversified                           
20160729 457030104 US4570301048 IMKTA    NASDAQ       INGLES MARKETS INC            13816     536475.28  0.063795 04 Consumer Staples               0420 Personal Care/Drug & Grocery Stores              0420459 Drug & Grocery Store Chains                      
20160729 45765U103 US45765U1034 NSIT     NASDAQ       INSIGHT ENTERPRISES INC       36251     964276.60  0.114666 01 Technology                     0130 Information Technology                           0130449 Computer Technology                              
20160729 45768S105 US45768S1050 IOSP     NASDAQ       INNOSPEC INC                  23335    1173050.45  0.139492 07 Materials & Processing         0720 Chemicals and Synthetics                         0720833 Chemicals: Specialty                             
20160729 45773Y105 US45773Y1055 INWK     NASDAQ       INNERWORKINGS INC              2582      21973.64  0.002613 08 Producer Durables              0850 Commercial Services                              0850486 Forms and Bulk Printing Services                 
20160729 45774N108 US45774N1081 IPHS     NASDAQ       INNOPHOS HOLDINGS INC          2140      92162.18  0.010959 07 Materials & Processing         0720 Chemicals and Synthetics                         0720433 Chemicals: Diversified                           
20160729 45780V102 US45780V1026 ITEK     NASDAQ       INOTEK PHARMACEUTICALS         1707      16185.72  0.001925 02 Health Care                    0230 Pharmaceuticals & Biotech                        0230412 Biotechnology                                    
20160729 45781M101 US45781M1018 INVA     NASDAQ       INNOVIVA INC                   8866     114107.03  0.013569 02 Health Care                    0230 Pharmaceuticals & Biotech                        0230460 Pharmaceuticals                                  
20160729 45826H109 US45826H1095 ITGR     NYSE         INTEGER HOLDINGS CORP         30219     671163.99  0.079811 02 Health Care                    0220 Medical Equipment & Services                     0220471 Medical Equipment                                
20160729 458334109 US4583341098 IPAR     NASDAQ       INTER PARFUMS INC              9547     310659.12  0.036942 03 Consumer Discretionary         0320 Consumer Products                                0320450 Cosmetics                                        
20160729 458665304 US4586653044 TILE     NASDAQ       INTERFACE INC                  7289     130192.54  0.015482 07 Materials & Processing         0730 Industrial Materials & Processes                 0730852 Textile Products                                 
20160729 459044103 US4590441030 IBOC     NASDAQ       INTERNATIONAL BANCSHARES      54110    1483696.20  0.176433 10 Financial Services             1010 Banks                                            1010400 Banks: Diversified                               
20160729 460335201 US4603352018 ISCA     NASDAQ       INTERNATIONAL SPEEDWAY        26045     879539.65  0.104590 03 Consumer Discretionary         0340 Leisure                                          0340556 Leisure Time                                     
20160729 46069S109 US46069S1096 ISIL     NASDAQ       INTERSIL CORP                132752    2028450.56  0.241212 01 Technology                     0120 Electronics                                      0120476 Semiconductors & Components                      
20160729 46090K109 US46090K1097 SNOW     NYSE         INTRAWEST RSRTS HLDG INC      15913     231375.02  0.027514 03 Consumer Discretionary         0340 Leisure                                          0340556 Leisure Time                                     
20160729 46113M108 US46113M1080 IILG     NASDAQ       INTERVAL LEISURE GRP INC     101106    1817870.92  0.216171 03 Consumer Discretionary         0340 Leisure                                          0340556 Leisure Time                                     
20160729 46116V105 US46116V1052 INTL     NASDAQ       INTL FCSTONE INC              14887     433807.18  0.051586 10 Financial Services             1040 Investment Banking & Brokerage Services          1040823 Securities Brokerage & Services                  
20160729 46118H104 US46118H1041 IL       NYSE         INTRALINKS HLDGS INC          38550     268306.89  0.031906 01 Technology                     0130 Information Technology                           0130439 Computer Services Software & Systems             
20160729 461203101 US4612031017 IVC      NYSE         INVACARE CORP                 31322     360829.44  0.042908 02 Health Care                    0220 Medical Equipment & Services                     0220507 Medical & Dental Instruments & Supplies          
20160729 46123D205 US46123D2053 INVN     NYSE         INVENSENSE INC                80801     547830.78  0.065145 01 Technology                     0120 Electronics                                      0120463 Electronic Components                            
20160729 46131B100 US46131B1008 IVR      NYSE         INVESCO MORTGAGE CAP         111271    1602302.40  0.190537 10 Financial Services             1060 Real Estate Investment Trusts                    1060932 Mortgage REIT: Diversified                       
20160729 46145F105 US46145F1057 ITG      NYSE         INVESTMENT TECHNOLOGY         27911     466109.36  0.055427 10 Financial Services             1040 Investment Banking & Brokerage Services          1040823 Securities Brokerage & Services                  
20160729 46146L101 US46146L1017 ISBC     NASDAQ       INVESTORS BANCORP INC        294090    3340862.40  0.397276 10 Financial Services             1010 Banks                                            1010400 Banks: Diversified                               
20160729 461730103 US4617301035 IRET     NYSE         INVESTORS REAL ESTATE TR     119737     792658.94  0.094258 10 Financial Services             1060 Real Estate Investment Trusts                    1060916 Equity REIT: Diversified                         
20160729 461804106 US4618041069 ITIC     NASDAQ       INVESTORS TITLE CO             1413     142006.50  0.016887 10 Financial Services             1030 Insurance                                        1030542 Insurance: Property-Casualty                     
20160729 46269C102 US46269C1027 IRDM     NASDAQ       IRIDIUM COMMUNICATIONS        81506     731923.88  0.087036 11 Utilities                      1110 Utilities                                        1110880 Utilities: Telecommunications                    
20160729 46600W106 US46600W1062 IXYS     NASDAQ       IXYS CORP                     24819     271519.86  0.032288 01 Technology                     0120 Electronics                                      0120476 Semiconductors & Components                      
20160729 46609J106 US46609J1060 JAX      NYSE         J ALEXANDERS HOLDINGS         13183     126161.31  0.015002 03 Consumer Discretionary         0340 Leisure                                          0340810 Restaurants                                      
20160729 466367109 US4663671091 JACK     NASDAQ       JACK IN THE BOX INC            7131     630387.85  0.074962 03 Consumer Discretionary         0340 Leisure                                          0340810 Restaurants                                      
20160729 47012E106 US47012E1064 JAKK     NASDAQ       JAKKS PACIFIC INC             15131     139507.82  0.016589 03 Consumer Discretionary         0320 Consumer Products                                0320858 Toys                                             
20160729 47102X105 US47102X1054 JNS      NYSE         JANUS CAPITAL GROUP INC      142751    2155540.10  0.256325 10 Financial Services             1040 Investment Banking & Brokerage Services          1040544 Asset Management & Custodian                     
20160729 479167108 US4791671088 JOUT     NASDAQ       JOHNSON OUTDOORS INC           4844     147499.80  0.017540 03 Consumer Discretionary         0340 Leisure                                          0340556 Leisure Time                                     
20160729 48019R108 US48019R1086 JONE     NYSE         JONES ENERGY INC              30462     112709.40  0.013403 06 Energy                         0620 Non-Renewable Energy                             0620670 Oil: Crude Producers                             
20160729 481165108 US4811651086 JOY      NYSE         JOY GLOBAL INC                97450    2692543.50  0.320182 08 Producer Durables              0810 Machinery                                        0810584 Machinery: Industrial                            
20160729 48244B100 US48244B1008 KCG      NYSE         KCG HOLDINGS INC              51841     784354.33  0.093271 10 Financial Services             1040 Investment Banking & Brokerage Services          1040823 Securities Brokerage & Services                  
20160729 482539103 US4825391034 KLXI     NASDAQ       KLX INC                       52213    1686479.90  0.200547 08 Producer Durables              0840 Transportation & Freight                         0840300 Aerospace                                        
20160729 482564101 US4825641016 KMG      NYSE         KMG CHEMICALS INC              4873     133934.83  0.015927 07 Materials & Processing         0720 Chemicals and Synthetics                         0720433 Chemicals: Diversified                           
20160729 482738101 US4827381017 KVHI     NASDAQ       KVH INDUSTRIES INC            14919     135315.33  0.016091 01 Technology                     0140 Telecommunication                                0140448 Communications Technology                        
20160729 48273J107 US48273J1079 KTWO     NASDAQ       K2M GROUP HLDGS INC           17472     292827.10  0.034821 02 Health Care                    0220 Medical Equipment & Services                     0220471 Medical Equipment                                
20160729 48273U102 US48273U1025 LRN      NYSE         K12 INC                       33405     413553.90  0.049177 03 Consumer Discretionary         0330 Consumer Services                                0330461 Education Services                               
20160729 48282T104 US48282T1043 KAI      NYSE         KADANT INC                     8733     479777.39  0.057052 08 Producer Durables              0810 Machinery                                        0810584 Machinery: Industrial                            
20160729 483007704 US4830077040 KALU     NASDAQ       KAISER ALUMINUM CORP          11095     919220.75  0.109308 07 Materials & Processing         0740 Metals & Minerals                                0740320 Aluminum                                         
20160729 483548103 US4835481031 KAMN     NYSE         KAMAN CORP                    24185    1043799.39  0.124123 08 Producer Durables              0810 Machinery                                        0810584 Machinery: Industrial                            
20160729 48562P103 US48562P1030 KS       NYSE         KAPSTONE PAPER AND PACK       79715    1138317.32  0.135362 07 Materials & Processing         0730 Industrial Materials & Processes                 0730720 Paper                                            
20160729 48576U106 US48576U1060 KPTI     NASDAQ       KARYOPHARM THERAPEUTICS       18350     135422.68  0.016104 02 Health Care                    0230 Pharmaceuticals & Biotech                        0230412 Biotechnology                                    
20160729 48666K109 US48666K1097 KBH      NYSE         KB HOME                       64479    1012308.46  0.120378 03 Consumer Discretionary         0320 Consumer Products                                0320501 Homebuilding                                     
20160729 48716P108 US48716P1084 KRNY     NASDAQ       KEARNY FINANCIAL CORP         91183    1187202.66  0.141175 10 Financial Services             1010 Banks                                            1010820 Banks: Savings/Thrifts & Mortgage Lend           
20160729 488152208 US4881522084 KELYA    NASDAQ       KELLY SERVICES INC            29012     593875.64  0.070620 08 Producer Durables              0850 Commercial Services                              0850365 Back Office Support HR & Consulting              
20160729 488401100 US4884011002 KMPR     NYSE         KEMPER CORPORATION            39207    1343623.89  0.159776 10 Financial Services             1030 Insurance                                        1030535 Insurance: Multi-Line                            
20160729 489170100 US4891701009 KMT      NYSE         KENNAMETAL INC                78083    1941143.38  0.230830 08 Producer Durables              0810 Machinery                                        0810584 Machinery: Industrial                            
20160729 489398107 US4893981070 KW       NYSE         KENNEDY-WILSON HLDGS INC      40929     861535.66  0.102449 10 Financial Services             1050 Real Estate                                      1050801 Real Estate Services                             
20160729 493723100 US4937231003 KEYW     NASDAQ       KEYW HOLDING CORP             35464     363151.36  0.043184 01 Technology                     0130 Information Technology                           0130439 Computer Services Software & Systems             
20160729 494274103 US4942741038 KBAL     NASDAQ       KIMBALL INTERNATIONAL          5582      63588.29  0.007562 08 Producer Durables              0820 Manufacturing & Production                       0820650 Office Supplies Equipment                        
20160729 49428J109 US49428J1097 KE       NASDAQ       KIMBALL ELECTRONICS INC       27756     350280.72  0.041653 01 Technology                     0120 Electronics                                      0120643 Technology: Misc                                 
20160729 494580103 US4945801037 KND      NYSE         KINDRED HEALTHCARE INC        83276    1020963.76  0.121407 02 Health Care                    0210 Health Care Services                             0210504 Health Care Facilities                           
20160729 497498105 US4974981056 KIRK     NASDAQ       KIRKLANDS INC                  7960     121295.80  0.014424 03 Consumer Discretionary         0320 Consumer Products                                0320523 Household Furnishings                            
20160729 49803T300 US49803T3005 KRG      NYSE         KITE REALTY GROUP TRUST       81722    2485166.02  0.295522 10 Financial Services             1060 Real Estate Investment Trusts                    1060908 Equity REIT: Retail                              
20160729 499064103 US4990641031 KNX      NYSE         KNIGHT TRANSPORTATION          4631     138171.67  0.016431 08 Producer Durables              0840 Transportation & Freight                         0840865 Truckers                                         
20160729 49926D109 US49926D1090 KN       NYSE         KNOWLES CORPORATION           87264    1172828.16  0.139466 01 Technology                     0140 Telecommunication                                0140849 Telecommunications Equipment                     
20160729 50047H201 US50047H2013 KONA     NASDAQ       KONA GRILL INC                 3701      46263.84  0.005501 03 Consumer Discretionary         0340 Leisure                                          0340810 Restaurants                                      
20160729 500600101 US5006001011 KOPN     NASDAQ       KOPIN CORP                    60898     141892.34  0.016873 01 Technology                     0120 Electronics                                      0120476 Semiconductors & Components                      
20160729 50060P106 US50060P1066 KOP      NYSE         KOPPERS HOLDINGS INC           4020     127112.40  0.015115 07 Materials & Processing         0730 Industrial Materials & Processes                 0730452 Diversified Materials & Processing               
20160729 500643200 US5006432000 KFY      NYSE         KORN FERRY INTERNATIONAL      23217     534224.78  0.063527 08 Producer Durables              0850 Commercial Services                              0850365 Back Office Support HR & Consulting              
20160729 50077B207 US50077B2079 KTOS     NASDAQ       KRATOS DEFENSE & SEC SOL      45791     201938.31  0.024013 08 Producer Durables              0840 Transportation & Freight                         0840300 Aerospace                                        
20160729 50077C106 US50077C1062 KRA      NYSE         KRATON PERF POLYMERS          29248     874807.68  0.104027 07 Materials & Processing         0720 Chemicals and Synthetics                         0720833 Chemicals: Specialty                             
20160729 50105F105 US50105F1057 KRO      NYSE         KRONOS WORLDWIDE INC          21749     122881.85  0.014612 07 Materials & Processing         0730 Industrial Materials & Processes                 0730714 Paints & Coatings                                
20160729 50181P100 US50181P1003 LCNB     NASDAQ       LCNB CORP                      8700     154338.00  0.018353 10 Financial Services             1010 Banks                                            1010400 Banks: Diversified                               
20160729 50187A107 US50187A1079 LHCG     NASDAQ       LHC GROUP INC                 13831     625976.21  0.074438 02 Health Care                    0210 Health Care Services                             0210499 Health Care Services                             
20160729 50187T106 US50187T1060 LGIH     NASDAQ       LGI HOMES INC                   900      30918.80  0.003677 03 Consumer Discretionary         0320 Consumer Products                                0320501 Homebuilding                                     
20160729 502160104 US5021601043 LXU      NYSE         LSB INDUSTRIES INC            20388     236093.04  0.028075 07 Materials & Processing         0720 Chemicals and Synthetics                         0720433 Chemicals: Diversified                           
20160729 50216C108 US50216C1080 LYTS     NASDAQ       LSI INDUSTRIES INC            20255     221988.38  0.026398 07 Materials & Processing         0710 Building Materials & Services                    0710430 Building Materials                               
20160729 502175102 US5021751020 LTC      NYSE         LTC PROPERTIES INC             5140     275178.35  0.032723 10 Financial Services             1060 Real Estate Investment Trusts                    1060910 Equity REIT: Health Care                         
20160729 50420D108 US50420D1081 LQ       NYSE         LA QUINTA HLDGS INC           66484     822401.32  0.097795 03 Consumer Discretionary         0340 Leisure                                          0340514 Hotel/Motel                                      
20160729 505336107 US5053361078 LZB      NYSE         LA Z BOY INC                  28095     849025.37  0.100961 03 Consumer Discretionary         0320 Consumer Products                                0320523 Household Furnishings                            
20160729 505743104 US5057431042 LADR     NYSE         LADDER CAPITAL CORP           37864     494503.84  0.058804 10 Financial Services             1060 Real Estate Investment Trusts                    1060931 Mortgage REIT: Commercial                        
20160729 50575Q102 US50575Q1022 LTS      NYSE MKT     LADENBURG THALMAN FIN         88500     215939.71  0.025678 10 Financial Services             1040 Investment Banking & Brokerage Services          1040823 Securities Brokerage & Services                  
20160729 510866106 US5108661068 LSBG     NASDAQ       LAKE SUNAPEE BANK GROUP        7743     142780.92  0.016979 10 Financial Services             1010 Banks                                            1010820 Banks: Savings/Thrifts & Mortgage Lend           
20160729 511637100 US5116371007 LBAI     NASDAQ       LAKELAND BANCORP INC          38360     456867.60  0.054328 10 Financial Services             1010 Banks                                            1010400 Banks: Diversified                               
20160729 511656100 US5116561003 LKFN     NASDAQ       LAKELAND FINANCIAL CORP       15883     815592.05  0.096986 10 Financial Services             1010 Banks                                            1010400 Banks: Diversified                               
20160729 514766104 US5147661046 LNDC     NASDAQ       LANDEC CORP                   20249     232857.11  0.027690 07 Materials & Processing         0720 Chemicals and Synthetics                         0720433 Chemicals: Diversified                           
20160729 51509F105 US51509F1057 LE       NASDAQ       LANDS END INC                 14744     209512.24  0.024914 03 Consumer Discretionary         0360 Retail                                           0360815 Diversified Retail                               
20160729 516012101 US5160121019 LCI      NYSE         LANNETT CO INC                27378     854741.16  0.101641 02 Health Care                    0230 Pharmaceuticals & Biotech                        0230460 Pharmaceuticals                                  
20160729 517942108 US5179421087 LHO      NYSE         LASALLE HOTEL PROPERTIES     105483    2906056.65  0.345572 10 Financial Services             1060 Real Estate Investment Trusts                    1060909 Equity REIT: Lodging and Resorts                 
20160729 520776105 US5207761058 LAWS     NASDAQ       LAWSON PRODUCTS INC            1552      25453.08  0.003027 07 Materials & Processing         0740 Metals & Minerals                                0740630 Metal Fabricating                                
20160729 521050104 US5210501046 LAYN     NASDAQ       LAYNE CHRISTENSEN CO          17891     143128.00  0.017020 08 Producer Durables              0850 Commercial Services                              0850479 Engineering & Contracting Services               
20160729 52471Y106 US52471Y1064 LTXB     NASDAQ       LEGACYTEXAS FIN GROUP         43838    1250259.76  0.148674 10 Financial Services             1010 Banks                                            1010820 Banks: Savings/Thrifts & Mortgage Lend           
20160729 52603A109 US52603A1097 LC       NYSE         LENDINGCLUB CORPORATION      180083     831979.45  0.098934 10 Financial Services             1020 Consumer Finance & Credit Services               1020489 Financial Data & Systems                         
20160729 529043101 US5290431015 LXP      NYSE         LEXINGTON REALTY TRUST       227269    2470414.03  0.293768 10 Financial Services             1060 Real Estate Investment Trusts                    1060916 Equity REIT: Diversified                         
20160729 529898108 US5298981086 LBY      NYSE MKT     LIBBEY INC                    19913     372161.60  0.044255 03 Consumer Discretionary         0320 Consumer Products                                0320521 Household Equip & Products                       
20160729 531229706 US5312297063 BATRA    NASDAQ       LIBERTY BRAVES SERIES A        8431     139025.08  0.016532 03 Consumer Discretionary         0340 Leisure                                          0340556 Leisure Time                                     
20160729 531229854 US5312298541 LMCK     NASDAQ       LIBERTY MEDIA CORP CL C       37960     851063.20  0.101204 03 Consumer Discretionary         0350 Media                                            0350438 Diversified Media                                
20160729 531229870 US5312298707 LMCA     NASDAQ       LIBERTY MEDIA CORP CL A       18816     427115.94  0.050790 03 Consumer Discretionary         0350 Media                                            0350438 Diversified Media                                
20160729 531229888 US5312298889 BATRK    NASDAQ       LIBERTY BRAVES SERIES C       28982     463123.92  0.055072 03 Consumer Discretionary         0340 Leisure                                          0340556 Leisure Time                                     
20160729 53128T102 US53128T1025 TAX      NASDAQ       LIBERTY TAX INC                1324      18359.34  0.002183 03 Consumer Discretionary         0330 Consumer Services                                0330638 Consumer Services: Misc                          
20160729 53222Q103 US53222Q1031 LCUT     NASDAQ       LIFETIME BRANDS INC           10918     146192.02  0.017384 03 Consumer Discretionary         0320 Consumer Products                                0320523 Household Furnishings                            
20160729 53261M104 US53261M1045 LLNW     NASDAQ       LIMELIGHT NETWORKS INC        70113     118490.97  0.014090 01 Technology                     0130 Information Technology                           0130439 Computer Services Software & Systems             
20160729 532746104 US5327461043 LMNR     NASDAQ       LIMONEIRA CO                    764      13530.62  0.001609 04 Consumer Staples               0410 Food/Beverage & Tobacco                          0410305 Agriculture Fishing & Ranching                   
20160729 535555106 US5355551061 LNN      NYSE         LINDSAY CORP                   1341      94097.47  0.011190 08 Producer Durables              0810 Machinery                                        0810570 Machinery: Agricultural                          
20160729 53635B107 US53635B1070 LQDT     NASDAQ       LIQUIDITY SERVICES INC        24633     199034.64  0.023668 08 Producer Durables              0850 Commercial Services                              0850365 Back Office Support HR & Consulting              
20160729 546347105 US5463471053 LPX      NYSE         LOUISIANA PACIFIC CORP         9691     195769.59  0.023280 07 Materials & Processing         0710 Building Materials & Services                    0710430 Building Materials                               
20160729 549282101 US5492821013 LUB      NYSE         LUBYS INC                     19221      89185.44  0.010605 03 Consumer Discretionary         0340 Leisure                                          0340810 Restaurants                                      
20160729 55003T107 US55003T1079 LL       NYSE         LUMBER LIQUIDATORS HLDGS      26020     391080.60  0.046505 03 Consumer Discretionary         0360 Retail                                           0360834 Specialty Retail                                 
20160729 55027E102 US55027E1029 LMNX     NASDAQ       LUMINEX CORP                  22839     489423.95  0.058200 02 Health Care                    0220 Medical Equipment & Services                     0220471 Medical Equipment                                
20160729 550283105 US5502831051 LMOS     NASDAQ       LUMOS NETWORKS CORP           17031     199253.74  0.023694 11 Utilities                      1110 Utilities                                        1110880 Utilities: Telecommunications                    
20160729 552074700 US5520747008 WLH      NYSE         WILLIAM LYON HOMES            23629     409963.15  0.048750 03 Consumer Discretionary         0320 Consumer Products                                0320501 Homebuilding                                     
20160729 55262C100 US55262C1009 MBI      NYSE         MBIA INC                     130023    1097394.12  0.130496 10 Financial Services             1030 Insurance                                        1030542 Insurance: Property-Casualty                     
20160729 55264U108 US55264U1088 MBFI     NASDAQ       MB FINANCIAL INC              69182    2655896.98  0.315824 10 Financial Services             1010 Banks                                            1010400 Banks: Diversified                               
20160729 552676108 US5526761086 MDC      NYSE         MDC HOLDINGS INC              24094     634143.76  0.075409 03 Consumer Discretionary         0320 Consumer Products                                0320501 Homebuilding                                     
20160729 552697104 CA5526971042 MDCA     NASDAQ       MDC CORP                      35235     449589.72  0.053463 03 Consumer Discretionary         0350 Media                                            0350301 Advertising Agencies                             
20160729 55277P104 US55277P1049 MGEE     NASDAQ       MGE ENERGY INC                18667    1048136.33  0.124638 11 Utilities                      1110 Utilities                                        1110870 Utilities: Electrical                            
20160729 552848103 US5528481030 MTG      NYSE         MGIC INVESTMENT CORP         337332    2425417.08  0.288417 10 Financial Services             1020 Consumer Finance & Credit Services               1020492 Consumer Lending                                 
20160729 55305B101 US55305B1017 MHO      NYSE         M/I HOMES INC                 18855     425174.79  0.050559 03 Consumer Discretionary         0320 Consumer Products                                0320501 Homebuilding                                     
20160729 55306N104 US55306N1046 MKSI     NASDAQ       MKS INSTRUMENTS INC           49828    2276113.44  0.270662 01 Technology                     0120 Electronics                                      0120738 Production Technology Equipment                  
20160729 55345K103 US55345K1034 MRC      NYSE         MRC GLOBAL INC                92664    1225944.72  0.145782 07 Materials & Processing         0740 Metals & Minerals                                0740630 Metal Fabricating                                
20160729 553498106 US5534981064 MSA      NYSE         MSA SAFETY INC                 9764     545640.71  0.064884 08 Producer Durables              0830 Scientific Instruments & Services                0830524 Scientific Instruments: Control & Filter         
20160729 553573106 US5535731062 MSGN     NYSE         MSG NETWORKS INC              38997     625901.80  0.074429 03 Consumer Discretionary         0350 Media                                            0350480 Entertainment                                    
20160729 553777103 US5537771033 MTSC     NASDAQ       MTS SYSTEMS CORP               1348      63969.79  0.007607 08 Producer Durables              0810 Machinery                                        0810584 Machinery: Industrial                            
20160729 55405W104 US55405W1045 MYRG     NASDAQ       MYR GROUP INC                 16799     414431.33  0.049282 08 Producer Durables              0850 Commercial Services                              0850479 Engineering & Contracting Services               
20160729 554225102 US5542251021 MCBC     NASDAQ       MACATAWA BANK CORP            26134     202538.50  0.024085 10 Financial Services             1010 Banks                                            1010400 Banks: Diversified                               
20160729 554489104 US5544891048 CLI      NYSE         MACK CALI REALTY CORP         88241    2488396.20  0.295906 10 Financial Services             1060 Real Estate Investment Trusts                    1060912 Equity REIT: Office                              
20160729 559079207 US5590792074 MGLN     NASDAQ       MAGELLAN HEALTH INC            7196     492755.72  0.058596 02 Health Care                    0210 Health Care Services                             0210503 Health Care Management Services                  
20160729 56062Y102 US56062Y1029 MSFG     NASDAQ       MAINSOURCE FINANCIAL GRP      22796     507666.92  0.060369 10 Financial Services             1010 Banks                                            1010400 Banks: Diversified                               
20160729 563571108 US5635711089 MTW      NYSE         MANITOWOC CO INC             125689     700087.73  0.083250 08 Producer Durables              0810 Machinery                                        0810577 Machinery: Construction & Handling               
20160729 56382Q102 US56382Q1022 MN       NYSE         MANNING & NAPIER INC          14767     115034.93  0.013679 10 Financial Services             1040 Investment Banking & Brokerage Services          1040544 Asset Management & Custodian                     
20160729 564563104 US5645631046 MANT     NASDAQ       MANTECH INTERNATIONAL         24426     965071.26  0.114761 01 Technology                     0130 Information Technology                           0130439 Computer Services Software & Systems             
20160729 56624R108 US56624R1086 MCHX     NASDAQ       MARCHEX INC                   33013     104651.21  0.012445 03 Consumer Discretionary         0350 Media                                            0350301 Advertising Agencies                             
20160729 566330106 US5663301068 MCS      NYSE         MARCUS CORP                   18385     407227.75  0.048425 03 Consumer Discretionary         0340 Leisure                                          0340514 Hotel/Motel                                      
20160729 567908108 US5679081084 HZO      NYSE         MARINEMAX INC                 10723     216604.88  0.025757 03 Consumer Discretionary         0360 Retail                                           0360834 Specialty Retail                                 
20160729 571157106 US5711571068 MRLN     NASDAQ       MARLIN BUSINESS SVCS           8185     150276.60  0.017870 08 Producer Durables              0840 Transportation & Freight                         0840808 Commercial Services: Rental & Leasing            
20160729 57164Y107 US57164Y1073 VAC      NYSE         MARRIOTT VAC WORLD CORP       20750    1583214.70  0.188267 03 Consumer Discretionary         0340 Leisure                                          0340556 Leisure Time                                     
20160729 573075108 US5730751089 MRTN     NASDAQ       MARTEN TRANS LTD              22710     491671.50  0.058467 08 Producer Durables              0840 Transportation & Freight                         0840865 Truckers                                         
20160729 576690101 US5766901012 MTRN     NYSE         MATERION CORPORATION          19668     519431.88  0.061768 07 Materials & Processing         0740 Metals & Minerals                                0740635 Metals & Minerals: Diversified                   
20160729 576853105 US5768531056 MTRX     NASDAQ       MATRIX SERVICE CO             26274     435360.18  0.051771 06 Energy                         0610 Energy Equipment & Services                      0610600 Oil Well Equipment & Services                    
20160729 57686G105 US57686G1058 MATX     NYSE         MATSON INC                    23687     885155.91  0.105258 08 Producer Durables              0840 Transportation & Freight                         0840830 Shipping                                         
20160729 577767106 US5777671067 MXWL     NASDAQ       MAXWELL TECHNOLOGIES INC      31124     171182.00  0.020356 08 Producer Durables              0820 Manufacturing & Production                       0820734 Power Transmission Equip                         
20160729 578877102 US5788771021 MBTF     NASDAQ       MBT FINL CORP                 17580     158044.20  0.018794 10 Financial Services             1010 Banks                                            1010400 Banks: Diversified                               
20160729 580037109 PA5800371096 MDR      NYSE         MCDERMOTT INTL INC           238910    1237553.80  0.147163 06 Energy                         0610 Energy Equipment & Services                      0610600 Oil Well Equipment & Services                    
20160729 580589109 US5805891091 MGRC     NASDAQ       MCGRATH RENTCORP              23193     739160.91  0.087897 08 Producer Durables              0840 Transportation & Freight                         0840808 Commercial Services: Rental & Leasing            
20160729 58441K100 US58441K1007 MEG      NYSE         MEDIA GENERAL INC            107805    1896289.95  0.225496 03 Consumer Discretionary         0350 Media                                            0350740 Publishing                                       
20160729 58463J304 US58463J3041 MPW      NYSE         MEDICAL PROPERTIES TRUST     154964    2432927.23  0.289310 10 Financial Services             1060 Real Estate Investment Trusts                    1060910 Equity REIT: Health Care                         
20160729 584688105 US5846881051 MDCO     NASDAQ       MEDICINES CO                   5722     223797.90  0.026613 02 Health Care                    0230 Pharmaceuticals & Biotech                        0230460 Pharmaceuticals                                  
20160729 58503T106 US58503T1060 MDLY     NYSE         MEDLEY MANAGEMENT INC          3097      23254.72  0.002765 10 Financial Services             1040 Investment Banking & Brokerage Services          1040544 Asset Management & Custodian                     
20160729 585141104 US5851411042 MEET     NASDAQ       MEETME INC                     5546      35664.79  0.004241 01 Technology                     0130 Information Technology                           0130439 Computer Services Software & Systems             
20160729 587200106 US5872001061 MENT     NASDAQ       MENTOR GRAPHICS CORP         105915    2262344.40  0.269025 01 Technology                     0130 Information Technology                           0130439 Computer Services Software & Systems             
20160729 587376104 US5873761044 MBWM     NASDAQ       MERCANTILE BANK CORP          15707     395502.26  0.047031 10 Financial Services             1010 Banks                                            1010400 Banks: Diversified                               
20160729 588448100 US5884481004 MBVT     NASDAQ       MERCHANTS BANCSHARES           5686     180701.08  0.021488 10 Financial Services             1010 Banks                                            1010400 Banks: Diversified                               
20160729 589378108 US5893781089 MRCY     NASDAQ       MERCURY SYSTEMS INC           35499     920130.04  0.109417 01 Technology                     0130 Information Technology                           0130439 Computer Services Software & Systems             
20160729 589433101 US5894331017 MDP      NYSE         MEREDITH CORP                 37088    2020554.24  0.240273 03 Consumer Discretionary         0350 Media                                            0350740 Publishing                                       
20160729 589584101 US5895841014 VIVO     NASDAQ       MERIDIAN BIOSCIENCE INC        5727     110889.69  0.013186 02 Health Care                    0220 Medical Equipment & Services                     0220507 Medical & Dental Instruments & Supplies          
20160729 58958U103 US58958U1034 EBSB     NASDAQ       MERIDIAN BANCORP INC          40093     589367.00  0.070084 10 Financial Services             1010 Banks                                            1010400 Banks: Diversified                               
20160729 589889104 US5898891040 MMSI     NASDAQ       MERIT MED SYSTEMS INC         26109     611983.43  0.072774 02 Health Care                    0220 Medical Equipment & Services                     0220507 Medical & Dental Instruments & Supplies          
20160729 59001A102 US59001A1025 MTH      NYSE         MERITAGE HOMES CORP           35114    1277777.10  0.151946 03 Consumer Discretionary         0320 Consumer Products                                0320501 Homebuilding                                     
20160729 59001K100 US59001K1007 MTOR     NYSE         MERITOR INC                   85718     718316.84  0.085418 03 Consumer Discretionary         0310 Auto & Auto Parts                                0310340 Auto Parts                                       
20160729 590328100 US5903281005 MACK     NASDAQ       MERRIMACK PHARMACEUTICAL      45944     266479.78  0.031688 02 Health Care                    0230 Pharmaceuticals & Biotech                        0230412 Biotechnology                                    
20160729 59100U108 US59100U1088 CASH     NASDAQ       META FINANCIAL GROUP INC       8135     444903.15  0.052905 10 Financial Services             1010 Banks                                            1010820 Banks: Savings/Thrifts & Mortgage Lend           
20160729 59116R107 US59116R1077 MPG      NYSE         METALDYNE PERFORM GROUP        5615      89231.38  0.010611 03 Consumer Discretionary         0310 Auto & Auto Parts                                0310340 Auto Parts                                       
20160729 591520200 US5915202007 MEI      NYSE         METHODE ELECTRS INC            3064     107337.70  0.012764 01 Technology                     0120 Electronics                                      0120463 Electronic Components                            
20160729 594972408 US5949724083 MSTR     NASDAQ       MICROSTRATEGY INC              4402     769871.73  0.091549 01 Technology                     0130 Information Technology                           0130439 Computer Services Software & Systems             
20160729 596094102 US5960941020 MBRG     NASDAQ       MIDDLEBURG FINANCIAL           4637     130392.44  0.015506 10 Financial Services             1010 Banks                                            1010400 Banks: Diversified                               
20160729 596680108 US5966801087 MSEX     NASDAQ       MIDDLESEX WATER CO             2446     101054.01  0.012017 11 Utilities                      1110 Utilities                                        1110882 Utilities: Water                                 
20160729 597742105 US5977421057 MSBI     NASDAQ       MIDLAND STATES BANCORP         3638      82800.88  0.009846 10 Financial Services             1010 Banks                                            1010400 Banks: Diversified                               
20160729 598511103 US5985111039 MOFG     NASDAQ       MIDWESTONE FINL GROUP          8156     236116.20  0.028078 10 Financial Services             1040 Investment Banking & Brokerage Services          1040457 Diversified Financial Services                   
20160729 59870L106 US59870L1061 MCRN     NYSE         MILACRON HOLDINGS CORP         1882      32413.88  0.003854 08 Producer Durables              0810 Machinery                                        0810584 Machinery: Industrial                            
20160729 600551204 US6005512040 MLR      NYSE         MILLER INDUSTRIES INC         10057     215819.27  0.025664 08 Producer Durables              0840 Transportation & Freight                         0840350 Commercial Vehicles & Parts                      
20160729 603158106 US6031581068 MTX      NYSE         MINERALS TECHNOLOGIES         15829    1033003.41  0.122839 07 Materials & Processing         0740 Metals & Minerals                                0740635 Metals & Minerals: Diversified                   
20160729 60740F105 US60740F1057 MINI     NASDAQ       MOBILE MINI INC               11426     371478.12  0.044174 08 Producer Durables              0840 Transportation & Freight                         0840808 Commercial Services: Rental & Leasing            
20160729 607828100 US6078281002 MOD      NYSE         MODINE MANUFACTURING CO       46538     446764.80  0.053127 08 Producer Durables              0840 Transportation & Freight                         0840350 Commercial Vehicles & Parts                      
20160729 60855R100 US60855R1005 MOH      NYSE         MOLINA HEALTHCARE INC         14325     813818.59  0.096775 02 Health Care                    0210 Health Care Services                             0210503 Health Care Management Services                  
20160729 60877T100 US60877T1007 MNTA     NASDAQ       MOMENTA PHARMACEUTICALS       48804     549526.28  0.065347 02 Health Care                    0230 Pharmaceuticals & Biotech                        0230412 Biotechnology                                    
20160729 609027107 US6090271072 MCRI     NASDAQ       MONARCH CASINO & RESORT       10492     244778.36  0.029108 03 Consumer Discretionary         0340 Leisure                                          0340434 Casinos & Gambling                               
20160729 60935Y208 US60935Y2081 MGI      NASDAQ       MONEYGRAM INTERNATIONAL       29243     203531.28  0.024203 10 Financial Services             1020 Consumer Finance & Credit Services               1020492 Consumer Lending                                 
20160729 609720107 US6097201072 MNR      NYSE         MONMOUTH REAL ESTATE          51735     714973.97  0.085021 10 Financial Services             1060 Real Estate Investment Trusts                    1060906 Equity REIT: Industrial                          
20160729 60979P105 US60979P1057 MORE     NYSE         MONOGRAM RESIDENTIAL TR      166495    1783161.45  0.212043 10 Financial Services             1060 Real Estate Investment Trusts                    1060907 Equity REIT: Residential                         
20160729 611742107 US6117421072 MWW      NYSE         MONSTER WORLDWIDE INC         86562     219001.86  0.026042 08 Producer Durables              0850 Commercial Services                              0850365 Back Office Support HR & Consulting              
20160729 615394202 US6153942023 MOG.A    NYSE         MOOG INC                      28562    1572902.73  0.187041 08 Producer Durables              0840 Transportation & Freight                         0840300 Aerospace                                        
20160729 620071100 US6200711009 MPAA     NASDAQ       MOTORCAR PTS AMERICA INC       1139      31930.82  0.003797 03 Consumer Discretionary         0310 Auto & Auto Parts                                0310340 Auto Parts                                       
20160729 624580106 US6245801062 MOV      NYSE         MOVADO GROUP INC              15204     343458.36  0.040842 03 Consumer Discretionary         0320 Consumer Products                                0320547 Luxury Items                                     
20160729 624756102 US6247561029 MLI      NYSE         MUELLER INDUSTRIES INC        16071     547071.34  0.065055 07 Materials & Processing         0740 Metals & Minerals                                0740630 Metal Fabricating                                
20160729 62845B104 US62845B1044 MFSF     NASDAQ       MUTUALFIRST FINL INC           5377     154481.21  0.018370 10 Financial Services             1010 Banks                                            1010820 Banks: Savings/Thrifts & Mortgage Lend           
20160729 628778102 US6287781024 NBTB     NASDAQ       NBT BANCORP INC               41910    1249756.20  0.148614 10 Financial Services             1010 Banks                                            1010400 Banks: Diversified                               
20160729 62886K104 US62886K1043 NCIT     NASDAQ       NCI INC                        5966      75708.54  0.009003 01 Technology                     0130 Information Technology                           0130439 Computer Services Software & Systems             
20160729 62913F508 US62913F5089 NIHD     NASDAQ       NII HOLDINGS INC              52902     160822.08  0.019124 11 Utilities                      1110 Utilities                                        1110880 Utilities: Telecommunications                    
20160729 629156407 US6291564077 NL       NYSE         NL INDUSTRIES INC              8234      24454.98  0.002908 07 Materials & Processing         0730 Industrial Materials & Processes                 0730452 Diversified Materials & Processing               
20160729 629209305 US6292093050 NMIH     NASDAQ       NMI HLDGS INC                 48814     306551.92  0.036453 10 Financial Services             1030 Insurance                                        1030542 Insurance: Property-Casualty                     
20160729 629337106 US6293371067 NNBR     NASDAQ       NN INC                        25927     437388.49  0.052012 07 Materials & Processing         0740 Metals & Minerals                                0740630 Metal Fabricating                                
20160729 62942X306 US62942X3061 NYLD.A   NYSE         NRG YIELD INC CL A            34531     593242.58  0.070545 11 Utilities                      1110 Utilities                                        1110870 Utilities: Electrical                            
20160729 62942X405 US62942X4051 NYLD     NYSE         NRG YIELD INC CL C            62714    1125089.16  0.133789 11 Utilities                      1110 Utilities                                        1110870 Utilities: Electrical                            
20160729 629445206 US6294452064 NVEC     NASDAQ       NVE CORP                       2390     136287.50  0.016207 01 Technology                     0120 Electronics                                      0120463 Electronic Components                            
20160729 62945V109 US62945V1098 NVEE     NASDAQ       NV5 GLOBAL INC                 1950      62739.54  0.007461 08 Producer Durables              0850 Commercial Services                              0850365 Back Office Support HR & Consulting              
20160729 629579103 US6295791031 NC       NYSE         NACCO INDUSTRIES INC           3833     215682.91  0.025648 08 Producer Durables              0810 Machinery                                        0810577 Machinery: Construction & Handling               
20160729 630077105 US6300771051 NANO     NASDAQ       NANOMETRICS INC                4560      91383.90  0.010867 01 Technology                     0120 Electronics                                      0120738 Production Technology Equipment                  
20160729 63016Q102 US63016Q1022 NK       NASDAQ       NANTKWEST INC                 14709     100459.76  0.011946 02 Health Care                    0230 Pharmaceuticals & Biotech                        0230412 Biotechnology                                    
20160729 634865109 US6348651091 NKSH     NASDAQ       NATIONAL BANKSHARES INC        6730     234271.30  0.027858 10 Financial Services             1010 Banks                                            1010400 Banks: Diversified                               
20160729 635309107 US6353091076 NCMI     NASDAQ       NATIONAL CINEMEDIA INC        60814     947482.12  0.112669 03 Consumer Discretionary         0350 Media                                            0350301 Advertising Agencies                             
20160729 63546L102 US63546L1026 NCOM     NASDAQ       NATIONAL COMM CORP             8358     203182.98  0.024161 10 Financial Services             1010 Banks                                            1010400 Banks: Diversified                               
20160729 635906100 US6359061008 NHC      NYSE MKT     NATIONAL HEALTHCARE CORP      11057     714282.20  0.084938 02 Health Care                    0210 Health Care Services                             0210504 Health Care Facilities                           
20160729 636220303 US6362203035 NGHC     NASDAQ       NATIONAL GEN HLDGS CORP       19903     410618.20  0.048828 10 Financial Services             1030 Insurance                                        1030535 Insurance: Multi-Line                            
20160729 63654U100 US63654U1007 NATL     NASDAQ       NATIONAL INTERSTATE CORP       5552     180035.15  0.021409 10 Financial Services             1030 Insurance                                        1030542 Insurance: Property-Casualty                     
20160729 637215104 US6372151042 NPK      NYSE         NATIONAL PRESTO INDS INC       4363     390583.42  0.046446 03 Consumer Discretionary         0320 Consumer Products                                0320470 Household Appliance                              
20160729 637372202 US6373722023 NRCIA    NASDAQ       NATIONAL RESEARCH CORP          836      12560.93  0.001494 02 Health Care                    0210 Health Care Services                             0210503 Health Care Management Services                  
20160729 637870106 US6378701063 NSA      NYSE         NATIONAL STORAGE AFFIL        20274     433251.41  0.051520 10 Financial Services             1060 Real Estate Investment Trusts                    1060911 Equity REIT: Storage                             
20160729 638517102 US6385171029 NWLI     NASDAQ       NATIONAL WESTERN LIFE          2228     421403.92  0.050111 10 Financial Services             1030 Insurance                                        1030528 Insurance: Life                                  
20160729 63861C109 US63861C1099 NSM      NYSE         NATIONSTAR MTG HLDGS INC      17729     223907.17  0.026626 10 Financial Services             1020 Consumer Finance & Credit Services               1020487 Commercial Finance & Mortgage Co                 
20160729 63886Q109 US63886Q1094 NGS      NYSE         NATURAL GAS SERVICES GRP      12185     305965.35  0.036384 06 Energy                         0610 Energy Equipment & Services                      0610600 Oil Well Equipment & Services                    
20160729 63888U108 US63888U1088 NGVC     NYSE         NATURAL GROCERS VITA CTG       8988     123045.72  0.014632 04 Consumer Staples               0420 Personal Care/Drug & Grocery Stores              0420459 Drug & Grocery Store Chains                      
20160729 638904102 US6389041020 NAVG     NASDAQ       NAVIGATORS GROUP INC          11092    1038987.64  0.123550 10 Financial Services             1030 Insurance                                        1030542 Insurance: Property-Casualty                     
20160729 639027101 US6390271012 NATR     NASDAQ       NATURES SUNSHINE PRODS         8418      99332.40  0.011812 04 Consumer Staples               0410 Food/Beverage & Tobacco                          0410494 Foods                                            
20160729 63934E108 US63934E1082 NAV      NYSE         NAVISTAR INTL CORP            45894     588355.00  0.069964 08 Producer Durables              0840 Transportation & Freight                         0840350 Commercial Vehicles & Parts                      
20160729 63935N107 US63935N1072 NCI      NYSE         NAVIGANT CONSULTING INC       46993     926232.03  0.110142 08 Producer Durables              0850 Commercial Services                              0850365 Back Office Support HR & Consulting              
20160729 640094207 US6400942073 NEFF     NYSE         NEFF CORP                      5652      55218.13  0.006566 08 Producer Durables              0840 Transportation & Freight                         0840808 Commercial Services: Rental & Leasing            
20160729 64031N108 US64031N1081 NNI      NYSE         NELNET INC                    19986     807634.26  0.096039 10 Financial Services             1020 Consumer Finance & Credit Services               1020492 Consumer Lending                                 
20160729 64051T100 US64051T1007 NPTN     NYSE         NEOPHOTONICS CORP             25465     319580.23  0.038003 01 Technology                     0140 Telecommunication                                0140448 Communications Technology                        
20160729 64052L106 US64052L1061 NEOS     NASDAQ       NEOS THERAPEUTICS INC           882       7793.09  0.000927 02 Health Care                    0230 Pharmaceuticals & Biotech                        0230412 Biotechnology                                    
20160729 64111Q104 US64111Q1040 NTGR     NASDAQ       NETGEAR INC                   10817     556336.41  0.066156 01 Technology                     0140 Telecommunication                                0140448 Communications Technology                        
20160729 64115T104 US64115T1043 NTCT     NASDAQ       NETSCOUT SYSTEMS INC          94899    2655274.02  0.315750 01 Technology                     0130 Information Technology                           0130439 Computer Services Software & Systems             
20160729 64126X201 US64126X2018 NSR      NYSE         NEUSTAR INC                   36177     911294.00  0.108366 01 Technology                     0140 Telecommunication                                0140448 Communications Technology                        
20160729 645370107 US6453701079 NWHM     NYSE         NEW HOME COMPANY INC           9961      98113.19  0.011667 03 Consumer Discretionary         0320 Consumer Products                                0320501 Homebuilding                                     
20160729 646025106 US6460251068 NJR      NYSE         NEW JERSEY RESOURCES          77889    2900572.51  0.344920 11 Utilities                      1110 Utilities                                        1110875 Utilities: Gas Distributors                      
20160729 64704V106 US64704V1061 NEWM     NYSE         NEW MEDIA INVT GROUP INC      32093     566751.22  0.067395 03 Consumer Discretionary         0350 Media                                            0350740 Publishing                                       
20160729 64828T201 US64828T2015 NRZ      NYSE         NEW RESIDENTIAL INVT         221049    3021739.83  0.359328 10 Financial Services             1060 Real Estate Investment Trusts                    1060930 Mortgage REIT: Residential                       
20160729 648691103 US6486911034 SNR      NYSE         NEW SR INVT GROUP INC         75441     904537.59  0.107562 10 Financial Services             1060 Real Estate Investment Trusts                    1060910 Equity REIT: Health Care                         
20160729 649604501 US6496045013 NYMT     NASDAQ       NEW YORK MTG TR INC          108739     711153.06  0.084566 10 Financial Services             1060 Real Estate Investment Trusts                    1060930 Mortgage REIT: Residential                       
20160729 64976L109 US64976L1098 NYRT     NYSE         NEW YORK REIT INC            163344    1558301.76  0.185304 10 Financial Services             1060 Real Estate Investment Trusts                    1060912 Equity REIT: Office                              
20160729 650111107 US6501111073 NYT      NYSE         NEW YORK TIMES CO            123000    1596540.00  0.189851 03 Consumer Discretionary         0350 Media                                            0350740 Publishing                                       
20160729 651511107 US6515111077 NLNK     NASDAQ       NEWLINK GENETICS CORP          5066      53604.48  0.006374 02 Health Care                    0230 Pharmaceuticals & Biotech                        0230412 Biotechnology                                    
20160729 651718504 US6517185046 NR       NYSE         NEWPARK RESOURCES INC         81959     517980.88  0.061595 06 Energy                         0610 Energy Equipment & Services                      0610600 Oil Well Equipment & Services                    
20160729 65251F105 US65251F1057 NEWS     NASDAQ       NEWSTAR FINANCIAL INC         24222     247548.84  0.029437 10 Financial Services             1020 Consumer Finance & Credit Services               1020487 Commercial Finance & Mortgage Co                 
20160729 65341D102 US65341D1028 NXRT     NYSE         NEXPOINT RESIDENTIAL TR       17748     345908.52  0.041133 10 Financial Services             1060 Real Estate Investment Trusts                    1060907 Equity REIT: Residential                         
20160729 65406E102 US65406E1029 NCBS     NASDAQ       NICOLET BANKSHARES INC         7503     272809.08  0.032441 10 Financial Services             1010 Banks                                            1010400 Banks: Diversified                               
20160729 65500B103 CA65500B1031 HLTH     NYSE MKT     NOBILIS HEALTH CORP           50764     144675.46  0.017204 02 Health Care                    0210 Health Care Services                             0210504 Health Care Facilities                           
20160729 65540B105 US65540B1052 NDLS     NASDAQ       NOODLES & COMPANY              2881      21292.78  0.002532 03 Consumer Discretionary         0340 Leisure                                          0340810 Restaurants                                      
20160729 665531109 US6655311099 NOG      NYSE MKT     NORTHERN OIL & GAS INC        46187     182900.52  0.021749 06 Energy                         0620 Non-Renewable Energy                             0620670 Oil: Crude Producers                             
20160729 66611T108 US66611T1088 NFBK     NASDAQ       NORTHFIELD BANCORP INC        37353     557669.99  0.066315 10 Financial Services             1010 Banks                                            1010820 Banks: Savings/Thrifts & Mortgage Lend           
20160729 666762109 US6667621097 NRIM     NASDAQ       NORTHRIM BANCORP INC           6652     188916.80  0.022465 10 Financial Services             1010 Banks                                            1010400 Banks: Diversified                               
20160729 66706L101 US66706L1017 NRE      NYSE         NORTHSTAR REALTY EUROPE       58931     545111.75  0.064822 10 Financial Services             1060 Real Estate Investment Trusts                    1060912 Equity REIT: Office                              
20160729 667340103 US6673401039 NWBI     NASDAQ       NORTHWEST BANCSHARES INC      94956    1415793.96  0.168358 10 Financial Services             1010 Banks                                            1010820 Banks: Savings/Thrifts & Mortgage Lend           
20160729 667655104 US6676551046 NWN      NYSE         NORTHWEST NATURAL GAS CO      26849    1743574.06  0.207336 11 Utilities                      1110 Utilities                                        1110875 Utilities: Gas Distributors                      
20160729 668074305 US6680743050 NWE      NYSE         NORTHWESTERN CORP             48113    2922383.62  0.347513 11 Utilities                      1110 Utilities                                        1110870 Utilities: Electrical                            
20160729 67000B104 CA67000B1040 NOVT     NASDAQ       NOVANTA INC                   23067     362369.84  0.043091 01 Technology                     0120 Electronics                                      0120738 Production Technology Equipment                  
20160729 67011P100 US67011P1003 DNOW     NYSE         NOW INC                      105764    1936538.84  0.230282 06 Energy                         0610 Energy Equipment & Services                      0610600 Oil Well Equipment & Services                    
20160729 67053A102 US67053A1025 NMRX     NASDAQ       NUMEREX CORP                  11318      86349.50  0.010268 01 Technology                     0140 Telecommunication                                0140448 Communications Technology                        
20160729 67060Y101 US67060Y1010 NUTR     NASDAQ       NUTRACEUTICAL INTL CORP        8151     208991.64  0.024852 04 Consumer Staples               0410 Food/Beverage & Tobacco                          0410494 Foods                                            
20160729 67103X102 PR67103X1020 OFG      NYSE         OFG BANCORP                   42758     453662.38  0.053947 10 Financial Services             1010 Banks                                            1010400 Banks: Diversified                               
20160729 671044105 US6710441055 OSIS     NASDAQ       OSI SYSTEMS INC               17306    1029187.82  0.122385 08 Producer Durables              0820 Manufacturing & Production                       0820453 Diversified Manufacturing Operations             
20160729 674215108 US6742151086 OAS      NYSE         OASIS PETE INC               175924    1337022.40  0.158991 06 Energy                         0620 Non-Renewable Energy                             0620670 Oil: Crude Producers                             
20160729 675234108 US6752341080 OCFC     NASDAQ       OCEANFIRST FINANCIAL          20257     382047.02  0.045431 10 Financial Services             1010 Banks                                            1010820 Banks: Savings/Thrifts & Mortgage Lend           
20160729 67555N206 US67555N2062 OCLR     NASDAQ       OCLARO INC                    13945      79910.19  0.009502 01 Technology                     0140 Telecommunication                                0140448 Communications Technology                        
20160729 675746309 US6757463095 OCN      NYSE         OCWEN FINANCIAL CORP          99433     198866.00  0.023648 10 Financial Services             1020 Consumer Finance & Credit Services               1020487 Commercial Finance & Mortgage Co                 
20160729 676220106 US6762201068 ODP      NASDAQ       OFFICE DEPOT INC             546899    1892270.54  0.225018 03 Consumer Discretionary         0360 Retail                                           0360834 Specialty Retail                                 
20160729 677864100 US6778641000 ODC      NYSE         OIL DRI CORP OF AMERICA        4931     184665.95  0.021959 07 Materials & Processing         0740 Metals & Minerals                                0740635 Metals & Minerals: Diversified                   
20160729 678026105 US6780261052 OIS      NYSE         OIL STATES INTERNATIONAL      50597    1564459.24  0.186037 06 Energy                         0610 Energy Equipment & Services                      0610600 Oil Well Equipment & Services                    
20160729 67984M100 US67984M1009 OLBK     NASDAQ       OLD LINE BANCSHARES INC        8267     158230.38  0.018816 10 Financial Services             1010 Banks                                            1010400 Banks: Diversified                               
20160729 680033107 US6800331075 ONB      NASDAQ       OLD NATIONAL BANCORP         131321    1728184.36  0.205506 10 Financial Services             1010 Banks                                            1010400 Banks: Diversified                               
20160729 680277100 US6802771005 OSBC     NASDAQ       OLD SECOND BANCORP INC        28403     214442.65  0.025500 10 Financial Services             1010 Banks                                            1010400 Banks: Diversified                               
20160729 680665205 US6806652052 OLN      NYSE         OLIN CORP                    163728    3421915.20  0.406915 07 Materials & Processing         0720 Chemicals and Synthetics                         0720433 Chemicals: Diversified                           
20160729 68162K106 US68162K1060 ZEUS     NASDAQ       OLYMPIC STEEL INC              9059     259630.94  0.030874 07 Materials & Processing         0740 Metals & Minerals                                0740835 Steel                                            
20160729 68210P107 US68210P1075 OME      NYSE         OMEGA PROTEIN CORP            20445     460420.32  0.054751 04 Consumer Staples               0410 Food/Beverage & Tobacco                          0410494 Foods                                            
20160729 682129101 US6821291019 OMN      NYSE         OMNOVA SOLUTIONS INC          15364     145500.05  0.017302 07 Materials & Processing         0720 Chemicals and Synthetics                         0720833 Chemicals: Specialty                             
20160729 682143102 US6821431029 OMER     NASDAQ       OMEROS CORP                   13462     158319.52  0.018826 02 Health Care                    0230 Pharmaceuticals & Biotech                        0230412 Biotechnology                                    
20160729 682163100 US6821631008 ONDK     NYSE         ON DECK CAPITAL INC           47415     246558.00  0.029319 10 Financial Services             1020 Consumer Finance & Credit Services               1020487 Commercial Finance & Mortgage Co                 
20160729 68235P108 US68235P1084 OGS      NYSE         ONE GAS INC                   51507    3345894.72  0.397875 11 Utilities                      1110 Utilities                                        1110875 Utilities: Gas Distributors                      
20160729 682406103 US6824061039 OLP      NYSE         ONE LIBERTY PROPERTIES        13053     326586.06  0.038836 10 Financial Services             1060 Real Estate Investment Trusts                    1060916 Equity REIT: Diversified                         
20160729 68243Q106 US68243Q1067 FLWS     NASDAQ       1-800 FLOWERS COM             18186     166033.20  0.019744 03 Consumer Discretionary         0360 Retail                                           0360834 Specialty Retail                                 
20160729 683797104 US6837971042 OPY      NYSE         OPPENHEIMER HOLDINGS INC       9786     154031.64  0.018317 10 Financial Services             1040 Investment Banking & Brokerage Services          1040544 Asset Management & Custodian                     
20160729 684000102 US6840001027 OPB      NASDAQ       OPUS BK IRVINE CALIF           6017     194248.29  0.023099 10 Financial Services             1010 Banks                                            1010400 Banks: Diversified                               
20160729 68555P100 US68555P1003 ORBC     NASDAQ       ORBCOMM INC                    5429      57499.78  0.006838 11 Utilities                      1110 Utilities                                        1110880 Utilities: Telecommunications                    
20160729 68571X103 US68571X1037 ORC      NYSE         ORCHID ISLAND CAPITAL         16139     180108.47  0.021417 10 Financial Services             1060 Real Estate Investment Trusts                    1060930 Mortgage REIT: Residential                       
20160729 68628V308 US68628V3087 ORN      NYSE         ORION GROUP HOLDINGS          24135     136359.15  0.016215 08 Producer Durables              0820 Manufacturing & Production                       0820443 Construction                                     
20160729 68633D103 US68633D1037 ORIT     NASDAQ       ORITANI FINANCIAL CORP        38130     618468.60  0.073545 10 Financial Services             1010 Banks                                            1010820 Banks: Savings/Thrifts & Mortgage Lend           
20160729 686688102 US6866881021 ORA      NYSE         ORMAT TECHNOLOGIES INC        21026     959607.75  0.114111 11 Utilities                      1110 Utilities                                        1110868 Utilities: Miscellaneous                         
20160729 687380105 US6873801053 ORRF     NASDAQ       ORRSTOWN FINL SVCS INC         7309     141356.06  0.016809 10 Financial Services             1010 Banks                                            1010400 Banks: Diversified                               
20160729 68827R108 US68827R1086 OSIR     NASDAQ       OSIRIS THERAPEUTICS            1473       7365.75  0.000876 02 Health Care                    0230 Pharmaceuticals & Biotech                        0230412 Biotechnology                                    
20160729 68906L105 US68906L1052 OTIC     NASDAQ       OTONOMY INC                   23746     340992.56  0.040549 02 Health Care                    0230 Pharmaceuticals & Biotech                        0230412 Biotechnology                                    
20160729 689648103 US6896481032 OTTR     NASDAQ       OTTER TAIL CORP               37526    1307781.10  0.155514 11 Utilities                      1110 Utilities                                        1110870 Utilities: Electrical                            
20160729 69014Q101 US69014Q1013 OVAS     NASDAQ       OVASCIENCE INC                26832     135230.43  0.016081 02 Health Care                    0230 Pharmaceuticals & Biotech                        0230412 Biotechnology                                    
20160729 69036R863 US69036R8631 OSG      NYSE         OVERSEAS SHIPHOLDING INC      35727     456948.33  0.054338 08 Producer Durables              0840 Transportation & Freight                         0840830 Shipping                                         
20160729 690732102 US6907321029 OMI      NYSE         OWENS & MINOR INC             54430    1943663.23  0.231129 02 Health Care                    0220 Medical Equipment & Services                     0220507 Medical & Dental Instruments & Supplies          
20160729 690828108 US6908281081 ORM      NYSE MKT     OWENS RLTY MTG INC             9912     165728.64  0.019708 10 Financial Services             1060 Real Estate Investment Trusts                    1060932 Mortgage REIT: Diversified                       
20160729 69290R104 US69290R1041 PDVW     NASDAQ       PDVWIRELESS INC                9651     207496.50  0.024674 01 Technology                     0140 Telecommunication                                0140448 Communications Technology                        
20160729 693149106 US6931491061 PTSI     NASDAQ       P A M TRANSN SVCS INC          2330      46669.90  0.005550 08 Producer Durables              0840 Transportation & Freight                         0840865 Truckers                                         
20160729 69318J100 US69318J1007 PCCC     NASDAQ       P C CONNECTION                11217     289510.77  0.034427 01 Technology                     0130 Information Technology                           0130449 Computer Technology                              
20160729 69327R101 US69327R1014 PDCE     NASDAQ       PDC ENERGY INC                45565    2495595.05  0.296762 06 Energy                         0620 Non-Renewable Energy                             0620670 Oil: Crude Producers                             
20160729 693282105 US6932821050 PDFS     NASDAQ       PDF SOLUTIONS INC              1709      28206.82  0.003354 01 Technology                     0130 Information Technology                           0130439 Computer Services Software & Systems             
20160729 69329Y104 US69329Y1047 PDLI     NASDAQ       PDL BIOPHARMA INC            163264     574689.28  0.068339 02 Health Care                    0230 Pharmaceuticals & Biotech                        0230412 Biotechnology                                    
20160729 693320202 US6933202029 PHH      NYSE         PHH CORPORATION               52354     764891.94  0.090957 08 Producer Durables              0840 Transportation & Freight                         0840808 Commercial Services: Rental & Leasing            
20160729 693366205 US6933662057 PICO     NASDAQ       PICO HOLDINGS INC             19583     197389.42  0.023472 10 Financial Services             1050 Real Estate                                      1050802 Real Estate Holding and Development              
20160729 69336T205 US69336T2050 PHIIK    NASDAQ       PHI INC                       10806     208756.19  0.024824 08 Producer Durables              0840 Transportation & Freight                         0840310 Air Transport                                    
20160729 69343T107 US69343T1079 PJT      NYSE         PJT PARTNERS INC              17516     447183.48  0.053177 10 Financial Services             1040 Investment Banking & Brokerage Services          1040457 Diversified Financial Services                   
20160729 69349H107 US69349H1077 PNM      NYSE         PNM RESOURCES INC             79057    2716398.52  0.323019 11 Utilities                      1110 Utilities                                        1110870 Utilities: Electrical                            
20160729 69354N106 US69354N1063 PRAA     NASDAQ       PRA GROUP INC                 45547    1268939.42  0.150895 10 Financial Services             1020 Consumer Finance & Credit Services               1020492 Consumer Lending                                 
20160729 69366J200 US69366J2006 PTCT     NASDAQ       PTC THERAPEUTICS INC          32863     196192.11  0.023330 02 Health Care                    0230 Pharmaceuticals & Biotech                        0230412 Biotechnology                                    
20160729 69412V108 US69412V1089 PCBK     NASDAQ       PACIFIC CONTINENTAL CORP      18858     273063.84  0.032471 10 Financial Services             1010 Banks                                            1010400 Banks: Diversified                               
20160729 69423U305 US69423U3059 PEIX     NASDAQ       PACIFIC ETHANOL INC           28347     193610.01  0.023023 06 Energy                         0630 Alternative Energy                               0630478 Alternative Energy                               
20160729 694552100 US6945521002 PMBC     NASDAQ       PACIFIC MERCANTILE BANCO      15135     103372.05  0.012292 10 Financial Services             1010 Banks                                            1010400 Banks: Diversified                               
20160729 69478X105 US69478X1054 PPBI     NASDAQ       PACIFIC PREMIER BANCORP       17931     433016.60  0.051492 10 Financial Services             1010 Banks                                            1010400 Banks: Diversified                               
20160729 698477106 US6984771062 PHX      NYSE         PANHANDLE OIL AND GAS          7453     121936.12  0.014500 06 Energy                         0620 Non-Renewable Energy                             0620670 Oil: Crude Producers                             
20160729 69888T207 US69888T2078 PARR     NYSE MKT     PAR PACIFIC HOLDINGS INC      17517     262751.79  0.031245 06 Energy                         0620 Non-Renewable Energy                             0620605 Oil: Refining & Marketing                        
20160729 700215304 US7002153044 PCYG     NASDAQ       PARK CITY GROUP INC             727       7118.76  0.000847 01 Technology                     0130 Information Technology                           0130439 Computer Services Software & Systems             
20160729 700416209 US7004162092 PKE      NYSE         PARK ELECTROCHEMICAL          19096     309355.20  0.036787 01 Technology                     0120 Electronics                                      0120463 Electronic Components                            
20160729 700658107 US7006581075 PRK      NYSE MKT     PARK NATIONAL CORP            13145    1176740.40  0.139931 10 Financial Services             1010 Banks                                            1010400 Banks: Diversified                               
20160729 700666100 US7006661000 PKOH     NASDAQ       PARK OHIO HOLDINGS CORP        8410     250449.80  0.029782 08 Producer Durables              0820 Manufacturing & Production                       0820644 Producer Durables: Misc                          
20160729 70086Y105 US70086Y1055 PSTB     NASDAQ       PARK STERLING CORP            34235     264289.32  0.031428 10 Financial Services             1010 Banks                                            1010400 Banks: Diversified                               
20160729 701081101 US7010811013 PKD      NYSE         PARKER DRILLING CO           119424     247207.68  0.029397 06 Energy                         0610 Energy Equipment & Services                      0610600 Oil Well Equipment & Services                    
20160729 70159Q104 US70159Q1040 PKY      NYSE         PARKWAY PROPERTIES INC        79266    1376850.42  0.163727 10 Financial Services             1060 Real Estate Investment Trusts                    1060912 Equity REIT: Office                              
20160729 702149105 US7021491052 PRTY     NYSE         PARTY CITY HOLDCO INC         14853     237933.62  0.028294 03 Consumer Discretionary         0360 Retail                                           0360834 Specialty Retail                                 
20160729 70338P100 US70338P1003 PEGI     NASDAQ       PATTERN ENERGY GROUP INC      11342     276414.36  0.032870 11 Utilities                      1110 Utilities                                        1110870 Utilities: Electrical                            
20160729 704699107 US7046991078 PGC      NASDAQ       PEAPACK-GLADSTONE FINL        15538     311847.66  0.037083 10 Financial Services             1010 Banks                                            1010400 Banks: Diversified                               
20160729 70509V100 US70509V1008 PEB      NYSE         PEBBLEBROOK HOTEL TRUST       70684    2095780.60  0.249218 10 Financial Services             1060 Real Estate Investment Trusts                    1060909 Equity REIT: Lodging and Resorts                 
20160729 707569109 US7075691094 PENN     NASDAQ       PENN NATIONAL GAMING INC      10238     153785.87  0.018287 03 Consumer Discretionary         0340 Leisure                                          0340434 Casinos & Gambling                               
20160729 708430103 US7084301032 PWOD     NASDAQ       PENNS WOODS BANCORP INC        4575     193751.25  0.023040 10 Financial Services             1010 Banks                                            1010400 Banks: Diversified                               
20160729 709102107 US7091021078 PEI      NYSE         PENNSYLVANIA REAL ESTATE      48002    1221164.34  0.145214 10 Financial Services             1060 Real Estate Investment Trusts                    1060908 Equity REIT: Retail                              
20160729 70931T103 US70931T1034 PMT      NYSE         PENNYMAC MORTGAGE INV         67352    1093122.96  0.129988 10 Financial Services             1060 Real Estate Investment Trusts                    1060930 Mortgage REIT: Residential                       
20160729 70932B101 US70932B1017 PFSI     NYSE         PENNYMAC FINL SVCS INC        13442     169503.62  0.020156 10 Financial Services             1020 Consumer Finance & Credit Services               1020487 Commercial Finance & Mortgage Co                 
20160729 709789101 US7097891011 PEBO     NASDAQ       PEOPLES BANCORP INC           15876     356416.20  0.042383 10 Financial Services             1010 Banks                                            1010400 Banks: Diversified                               
20160729 711040105 US7110401053 PFIS     NASDAQ       PEOPLES FINL SVCS CORP         6792     268080.24  0.031879 10 Financial Services             1010 Banks                                            1010400 Banks: Diversified                               
20160729 712706209 US7127062096 PUB      NASDAQ       PEOPLES UTAH BANCORP          12836     229379.32  0.027276 10 Financial Services             1010 Banks                                            1010400 Banks: Diversified                               
20160729 71375U101 US71375U1016 PRFT     NASDAQ       PERFICIENT INC                 9966     221456.25  0.026334 01 Technology                     0130 Information Technology                           0130439 Computer Services Software & Systems             
20160729 71377G100 CA71377G1000 PSG      NYSE         PERFORMANCE SPORTS GROUP      37742     125680.86  0.014945 03 Consumer Discretionary         0360 Retail                                           0360834 Specialty Retail                                 
20160729 717071104 US7170711045 PFNX     NYSE MKT     PFENEX INC                     1097       8855.45  0.001053 02 Health Care                    0230 Pharmaceuticals & Biotech                        0230412 Biotechnology                                    
20160729 717098206 US7170982067 PFSW     NASDAQ       PFSWEB INC                      856       8485.02  0.001009 08 Producer Durables              0850 Commercial Services                              0850365 Back Office Support HR & Consulting              
20160729 71714F104 US71714F1049 PMC      NYSE         PHARMERICA CORP               29185     775153.60  0.092177 02 Health Care                    0210 Health Care Services                             0210499 Health Care Services                             
20160729 71714G102 US71714G1022 PIP      NYSE MKT     PHARMATHENE INC                3632       9299.23  0.001106 02 Health Care                    0230 Pharmaceuticals & Biotech                        0230412 Biotechnology                                    
20160729 71742Q106 US71742Q1067 PAHC     NASDAQ       PHIBRO ANIMAL HEALTH           1203      24834.39  0.002953 02 Health Care                    0230 Pharmaceuticals & Biotech                        0230460 Pharmaceuticals                                  
20160729 719405102 US7194051022 PLAB     NASDAQ       PHOTRONICS INC                64509     623156.94  0.074102 01 Technology                     0120 Electronics                                      0120738 Production Technology Equipment                  
20160729 71943U104 US71943U1043 DOC      NYSE         PHYSICIANS REALTY TRUST       64782    1407084.70  0.167322 10 Financial Services             1060 Real Estate Investment Trusts                    1060910 Equity REIT: Health Care                         
20160729 720279108 US7202791080 PIR      NYSE         PIER 1 IMPORTS INC            67373     344947.87  0.041019 03 Consumer Discretionary         0360 Retail                                           0360834 Specialty Retail                                 
20160729 72346Q104 US72346Q1040 PNFP     NASDAQ       PINNACLE FINANCIAL            36974    1963653.45  0.233506 10 Financial Services             1010 Banks                                            1010400 Banks: Diversified                               
20160729 72348Y105 US72348Y1055 PNK      NASDAQ       PINNACLE ENTERTAINMENT        52696     575433.82  0.068427 03 Consumer Discretionary         0340 Leisure                                          0340434 Casinos & Gambling                               
20160729 723664108 US7236641087 PES      NYSE         PIONEER ENERGY SERVICES       63042     198582.30  0.023614 06 Energy                         0610 Energy Equipment & Services                      0610600 Oil Well Equipment & Services                    
20160729 724078100 US7240781002 PJC      NYSE         PIPER JAFFRAY COMPANIES       15144     626052.96  0.074447 10 Financial Services             1040 Investment Banking & Brokerage Services          1040457 Diversified Financial Services                   
20160729 729132100 US7291321005 PLXS     NASDAQ       PLEXUS CORP                   32958    1514090.52  0.180047 01 Technology                     0120 Electronics                                      0120643 Technology: Misc                                 
20160729 72919P202 US72919P2020 PLUG     NASDAQ       PLUG POWER INC                64610     115652.12  0.013753 08 Producer Durables              0830 Scientific Instruments & Services                0830465 Scientific Instruments: Electrical               
20160729 73172K104 US73172K1043 PLCM     NASDAQ       POLYCOM INC                  134553    1667111.67  0.198243 01 Technology                     0140 Telecommunication                                0140448 Communications Technology                        
20160729 736508847 US7365088472 POR      NYSE         PORTLAND GEN ELEC CO          88486    3864183.62  0.459507 11 Utilities                      1110 Utilities                                        1110870 Utilities: Electrical                            
20160729 737010108 US7370101088 PTLA     NASDAQ       PORTOLA PHARMACEUTICALS        4088     106136.11  0.012621 02 Health Care                    0230 Pharmaceuticals & Biotech                        0230460 Pharmaceuticals                                  
20160729 739128106 US7391281067 POWL     NASDAQ       POWELL INDUSTRIES INC          8595     316639.80  0.037653 08 Producer Durables              0820 Manufacturing & Production                       0820734 Power Transmission Equip                         
20160729 73933G202 US73933G2021 PSIX     NASDAQ       POWER SOLUTIONS INTL INC       1055      18569.45  0.002208 08 Producer Durables              0810 Machinery                                        0810579 Machinery: Engines                               
20160729 740367404 US7403674044 PFBC     NASDAQ       PREFERRED BANK                11998     391974.66  0.046611 10 Financial Services             1010 Banks                                            1010400 Banks: Diversified                               
20160729 74039L103 US74039L1035 APTS     NYSE         PREFERRED APT CMNTYS INC      22406     333177.22  0.039620 10 Financial Services             1060 Real Estate Investment Trusts                    1060907 Equity REIT: Residential                         
20160729 740444104 US7404441047 PLPC     NASDAQ       PREFORMED LINE PRODUCTS        2478     121099.86  0.014401 08 Producer Durables              0830 Scientific Instruments & Services                0830465 Scientific Instruments: Electrical               
20160729 74050M105 US74050M1053 PFBI     NASDAQ       PREMIER FINL BANCORP INC       8403     149909.52  0.017826 10 Financial Services             1010 Banks                                            1010400 Banks: Diversified                               
20160729 742962103 US7429621037 PVTB     NASDAQ       PRIVATEBANCORP INC            77631    3431290.20  0.408029 10 Financial Services             1010 Banks                                            1010400 Banks: Diversified                               
20160729 743312100 US7433121008 PRGS     NASDAQ       PROGRESS SOFTWARE CORP        42574    1237184.17  0.147119 01 Technology                     0130 Information Technology                           0130439 Computer Services Software & Systems             
20160729 743606105 US7436061052 PB       NYSE         PROSPERITY BANCSHARES         66161    3380165.49  0.401950 10 Financial Services             1010 Banks                                            1010400 Banks: Diversified                               
20160729 74383X109 US74383X1090 PVBC     NASDAQ       PROVIDENT BANCORP INC          3968      63203.87  0.007516 10 Financial Services             1010 Banks                                            1010820 Banks: Savings/Thrifts & Mortgage Lend           
20160729 743868101 US7438681014 PROV     NASDAQ       PROVIDENT FINL HLDGS INC       6520     127074.80  0.015111 10 Financial Services             1010 Banks                                            1010820 Banks: Savings/Thrifts & Mortgage Lend           
20160729 74386T105 US74386T1051 PFS      NYSE         PROVIDENT FINANCIAL SVCS      60361    1216274.15  0.144632 10 Financial Services             1010 Banks                                            1010400 Banks: Diversified                               
20160729 747277101 US7472771010 QLGC     NASDAQ       QLOGIC CORP                   82939    1287213.28  0.153068 01 Technology                     0140 Telecommunication                                0140448 Communications Technology                        
20160729 74727A104 US74727A1043 QCRH     NASDAQ       QCR HOLDINGS INC              11760     348566.40  0.041450 10 Financial Services             1010 Banks                                            1010400 Banks: Diversified                               
20160729 74727D306 US74727D3061 QADA     NASDAQ       QAD INC                        9308     176107.36  0.020942 01 Technology                     0130 Information Technology                           0130439 Computer Services Software & Systems             
20160729 747301109 US7473011093 QUAD     NYSE         QUAD / GRAPHICS INC           13466     341508.92  0.040610 08 Producer Durables              0850 Commercial Services                              0850486 Forms and Bulk Printing Services                 
20160729 747316107 US7473161070 KWR      NYSE         QUAKER CHEMICAL CORP           3206     306760.19  0.036478 07 Materials & Processing         0720 Chemicals and Synthetics                         0720833 Chemicals: Specialty                             
20160729 74731Q103 US74731Q1031 PZN      NYSE         PZENA INVESTMENT MGMT          3683      28952.11  0.003443 10 Financial Services             1040 Investment Banking & Brokerage Services          1040544 Asset Management & Custodian                     
20160729 747619104 US7476191041 NX       NYSE         QUANEX BUILDING PRODUCTS      30853     616732.44  0.073338 07 Materials & Processing         0710 Building Materials & Services                    0710430 Building Materials                               
20160729 74838J101 US74838J1016 QDEL     NASDAQ       QUIDEL CORP                    1539      35101.79  0.004174 02 Health Care                    0220 Medical Equipment & Services                     0220507 Medical & Dental Instruments & Supplies          
20160729 74874Q100 US74874Q1004 QNST     NASDAQ       QUINSTREET INC                36169     131293.47  0.015613 03 Consumer Discretionary         0350 Media                                            0350301 Advertising Agencies                             
20160729 749227609 US7492276099 RAS      NYSE         RAIT FINANCIAL TRUST          90724     287595.08  0.034199 10 Financial Services             1060 Real Estate Investment Trusts                    1060931 Mortgage REIT: Commercial                        
20160729 749607107 US7496071074 RLI      NYSE         RLI CORP                       6653     453576.39  0.053937 10 Financial Services             1030 Insurance                                        1030542 Insurance: Property-Casualty                     
20160729 74965L101 US74965L1017 RLJ      NYSE         RLJ LODGING TR               120532    2861429.68  0.340265 10 Financial Services             1060 Real Estate Investment Trusts                    1060909 Equity REIT: Lodging and Resorts                 
20160729 74972G103 US74972G1031 RPXC     NASDAQ       RPX CORP                      49069     494124.83  0.058759 08 Producer Durables              0850 Commercial Services                              0850365 Back Office Support HR & Consulting              
20160729 74975N105 US74975N1054 RTIX     NASDAQ       RTI SURGICAL INC              56779     184531.75  0.021943 02 Health Care                    0220 Medical Equipment & Services                     0220507 Medical & Dental Instruments & Supplies          
20160729 74978Q105 US74978Q1058 RSPP     NYSE         RSP PERMIAN INC               77752    2795184.40  0.332387 06 Energy                         0620 Non-Renewable Energy                             0620670 Oil: Crude Producers                             
20160729 750236101 US7502361014 RDN      NYSE         RADIAN GROUP INC             212846    2745713.40  0.326505 10 Financial Services             1030 Insurance                                        1030542 Insurance: Property-Casualty                     
20160729 75025X100 US75025X1000 RLGT     NYSE MKT     RADIANT LOGISTICS INC         15184      47982.56  0.005706 08 Producer Durables              0850 Commercial Services                              0850546 International Trade & Diversified Logistics      
20160729 75040P405 US75040P4054 ROIAK    NASDAQ       RADIO ONE INC                  2146       6868.79  0.000817 03 Consumer Discretionary         0350 Media                                            0350760 Radio & TV Broadcasters                          
20160729 750459109 US7504591097 RSYS     NASDAQ       RADISYS CORP                   2604      12555.14  0.001493 01 Technology                     0130 Information Technology                           0130449 Computer Technology                              
20160729 750917106 US7509171069 RMBS     NASDAQ       RAMBUS INC                    80178    1083994.34  0.128902 01 Technology                     0120 Electronics                                      0120476 Semiconductors & Components                      
20160729 751452202 US7514522025 RPT      NYSE         RAMCO-GERSHENSON PPTYS        77856    1544663.04  0.183683 10 Financial Services             1060 Real Estate Investment Trusts                    1060908 Equity REIT: Retail                              
20160729 754212108 US7542121089 RAVN     NASDAQ       RAVEN INDUSTRIES INC          13554     281387.77  0.033461 08 Producer Durables              0820 Manufacturing & Production                       0820453 Diversified Manufacturing Operations             
20160729 75508B104 US75508B1044 RYAM     NYSE         RAYONIER ADV MATERIALS        16759     230784.81  0.027444 07 Materials & Processing         0720 Chemicals and Synthetics                         0720433 Chemicals: Diversified                           
20160729 75524W108 US75524W1080 RMAX     NYSE         RE/MAX HOLDINGS INC           17541     759876.12  0.090360 10 Financial Services             1050 Real Estate                                      1050801 Real Estate Services                             
20160729 755408101 US7554081015 RDI      NASDAQ       READING INTERNATIONAL         12567     172785.69  0.020547 03 Consumer Discretionary         0350 Media                                            0350480 Entertainment                                    
20160729 75605L708 US75605L7082 RNWK     NASDAQ       REALNETWORKS INC              23207     100486.31  0.011949 01 Technology                     0130 Information Technology                           0130439 Computer Services Software & Systems             
20160729 756764106 US7567641060 RLH      NYSE         RED LION HOTELS CORP          14020     111318.80  0.013237 03 Consumer Discretionary         0340 Leisure                                          0340514 Hotel/Motel                                      
20160729 75689M101 US75689M1018 RRGB     NASDAQ       RED ROBIN GOURMET BURGER      10940     529012.46  0.062907 03 Consumer Discretionary         0340 Leisure                                          0340810 Restaurants                                      
20160729 758075402 US7580754023 RWT      NYSE         REDWOOD TRUST INC             75376    1075615.52  0.127906 10 Financial Services             1060 Real Estate Investment Trusts                    1060932 Mortgage REIT: Diversified                       
20160729 758932107 US7589321071 RGS      NYSE         REGIS CORP                    36711     493395.84  0.058672 03 Consumer Discretionary         0360 Retail                                           0360834 Specialty Retail                                 
20160729 75901B107 US75901B1070 RGNX     NASDAQ       REGENXBIO INC                 20015     163522.55  0.019445 02 Health Care                    0230 Pharmaceuticals & Biotech                        0230412 Biotechnology                                    
20160729 75902K106 US75902K1060 RM       NYSE         REGIONAL MGMT CORP             9544     179419.47  0.021336 10 Financial Services             1020 Consumer Finance & Credit Services               1020492 Consumer Lending                                 
20160729 75936P105 US75936P1057 REIS     NASDAQ       REIS INC                       2747      69465.34  0.008260 01 Technology                     0130 Information Technology                           0130439 Computer Services Software & Systems             
20160729 75970E107 US75970E1073 RNST     NASDAQ       RENASANT CORP                 40370    1300721.40  0.154674 10 Financial Services             1010 Banks                                            1010400 Banks: Diversified                               
20160729 75972A301 US75972A3014 REGI     NASDAQ       RENEWABLE ENER GROUP INC      40086     390836.52  0.046476 06 Energy                         0630 Alternative Energy                               0630478 Alternative Energy                               
20160729 76009N100 US76009N1000 RCII     NASDAQ       RENT A CENTER INC             51278     553802.40  0.065855 03 Consumer Discretionary         0330 Consumer Services                                0330809 Rental & Leasing Services: Consumer              
20160729 760281204 US7602812049 RBCAA    NASDAQ       REPUBLIC BANCORP INC KY        9547     284596.07  0.033843 10 Financial Services             1010 Banks                                            1010400 Banks: Diversified                               
20160729 760416107 US7604161072 FRBK     NASDAQ       REPUBLIC FIRST BANCORP        33232     145888.48  0.017348 10 Financial Services             1010 Banks                                            1010400 Banks: Diversified                               
20160729 761195205 US7611952059 REXI     NASDAQ       RESOURCE AMERICA INC          11622     113198.28  0.013461 10 Financial Services             1040 Investment Banking & Brokerage Services          1040544 Asset Management & Custodian                     
20160729 76120W708 US76120W7083 RSO      NYSE         RESOURCE CAPITAL CORP         29930     407347.30  0.048439 10 Financial Services             1060 Real Estate Investment Trusts                    1060932 Mortgage REIT: Diversified                       
20160729 76122Q105 US76122Q1058 RECN     NASDAQ       RESOURCES CONNECTION          35219     524763.10  0.062402 08 Producer Durables              0850 Commercial Services                              0850365 Back Office Support HR & Consulting              
20160729 761283100 US7612831005 RH       NYSE         RESTORATION HARDWARE          38246    1178359.26  0.140124 03 Consumer Discretionary         0320 Consumer Products                                0320523 Household Furnishings                            
20160729 761299106 US7612991064 RTRX     NASDAQ       RETROPHIN INC                 35783     641589.19  0.076294 02 Health Care                    0230 Pharmaceuticals & Biotech                        0230412 Biotechnology                                    
20160729 76131N101 US76131N1019 ROIC     NASDAQ       RETAIL OPPORTUNITY INVTS      28419     648814.74  0.077153 10 Financial Services             1060 Real Estate Investment Trusts                    1060908 Equity REIT: Retail                              
20160729 76132B106 US76132B1061 SALE     NASDAQ       RETAILMENOT INC               38104     318168.40  0.037835 01 Technology                     0130 Information Technology                           0130439 Computer Services Software & Systems             
20160729 761525609 US7615256093 REV      NYSE         REVLON INC                     8152     289289.10  0.034401 03 Consumer Discretionary         0320 Consumer Products                                0320450 Cosmetics                                        
20160729 761624105 US7616241052 REX      NYSE         REX AMERICAN RESOURCES         5594     368085.20  0.043771 06 Energy                         0630 Alternative Energy                               0630478 Alternative Energy                               
20160729 76169B102 US76169B1026 RXN      NYSE         REXNORD CORP                  18928     402985.02  0.047921 07 Materials & Processing         0740 Metals & Minerals                                0740630 Metal Fabricating                                
20160729 76169C100 US76169C1009 REXR     NYSE         REXFORD INDUSTRIAL RLTY       39681     907090.38  0.107866 10 Financial Services             1060 Real Estate Investment Trusts                    1060906 Equity REIT: Industrial                          
20160729 766559603 US7665596034 RIGL     NASDAQ       RIGEL PHARMACEUTICALS         17851      40880.81  0.004861 02 Health Care                    0230 Pharmaceuticals & Biotech                        0230412 Biotechnology                                    
20160729 766582100 US7665821002 RNET     NASDAQ       RIGNET INC                    11454     136867.29  0.016275 06 Energy                         0610 Energy Equipment & Services                      0610600 Oil Well Equipment & Services                    
20160729 76658B100 US76658B1008 NAME     NASDAQ       RIGHTSIDE GROUP LTD           11487     137844.00  0.016392 01 Technology                     0130 Information Technology                           0130439 Computer Services Software & Systems             
20160729 76680V108 US76680V1089 REI      NYSE MKT     RING ENERGY INC               35332     280536.08  0.033360 06 Energy                         0620 Non-Renewable Energy                             0620670 Oil: Crude Producers                             
20160729 76973Q105 US76973Q1058 RRTS     NYSE         ROADRUNNER TRNSN SVCS         30231     228848.67  0.027213 08 Producer Durables              0840 Transportation & Freight                         0840865 Truckers                                         
20160729 774374102 US7743741024 RMTI     NASDAQ       ROCKWELL MEDICAL INC           4261      34302.18  0.004079 02 Health Care                    0220 Medical Equipment & Services                     0220507 Medical & Dental Instruments & Supplies          
20160729 775043102 US7750431022 RSTI     NASDAQ       ROFIN SINAR TECHNOLOGIES      26718     844288.80  0.100398 01 Technology                     0120 Electronics                                      0120475 Electronics                                      
20160729 775133101 US7751331015 ROG      NYSE         ROGERS CORP                   11683     799564.26  0.095080 01 Technology                     0120 Electronics                                      0120463 Electronic Components                            
20160729 777780107 US7777801074 RST      NYSE         ROSETTA STONE INC              4348      33482.80  0.003982 03 Consumer Discretionary         0330 Consumer Services                                0330461 Education Services                               
20160729 779376102 US7793761021 ROVI     NASDAQ       ROVI CORPORATION              79956    1503972.36  0.178844 01 Technology                     0130 Information Technology                           0130439 Computer Services Software & Systems             
20160729 78112V102 US78112V1026 RUBI     NYSE         RUBICON PROJ INC              22292     314758.95  0.037429 01 Technology                     0130 Information Technology                           0130439 Computer Services Software & Systems             
20160729 781182100 US7811821005 RT       NYSE         RUBY TUESDAY INC              58714     237204.56  0.028207 03 Consumer Discretionary         0340 Leisure                                          0340810 Restaurants                                      
20160729 781270103 US7812701032 RTEC     NYSE         RUDOLPH TECHNOLOGIES INC      29595     521463.90  0.062010 01 Technology                     0120 Electronics                                      0120738 Production Technology Equipment                  
20160729 781846209 US7818462092 RUSHA    NASDAQ       RUSH ENTERPRISES INC          29120     669177.60  0.079575 08 Producer Durables              0840 Transportation & Freight                         0840350 Commercial Vehicles & Parts                      
20160729 781846308 US7818463082 RUSHB    NASDAQ       RUSH ENTERPRISES INC           6509     151854.97  0.018058 08 Producer Durables              0840 Transportation & Freight                         0840350 Commercial Vehicles & Parts                      
20160729 783754104 US7837541041 RYI      NYSE         RYERSON HOLDING CORP          10773     155562.12  0.018499 07 Materials & Processing         0740 Metals & Minerals                                0740835 Steel                                            
20160729 783859101 US7838591011 STBA     NASDAQ       S & T BANCORP INC             33746     860185.54  0.102288 10 Financial Services             1010 Banks                                            1010400 Banks: Diversified                               
20160729 78425V104 US78425V1044 SIFI     NASDAQ       SI FINANCIAL GROUP            10996     147016.52  0.017482 10 Financial Services             1010 Banks                                            1010820 Banks: Savings/Thrifts & Mortgage Lend           
20160729 784305104 US7843051043 SJW      NYSE         SJW CORP                      16136     683520.96  0.081280 11 Utilities                      1110 Utilities                                        1110882 Utilities: Water                                 
20160729 784635104 US7846351044 SPXC     NYSE         SPX CORP                      41074     621860.36  0.073948 08 Producer Durables              0820 Manufacturing & Production                       0820644 Producer Durables: Misc                          
20160729 78469C103 US78469C1036 SP       NASDAQ       SP PLUS CORPORATION             922      22158.16  0.002635 08 Producer Durables              0850 Commercial Services                              0850484 Environmental Maint & Security Service           
20160729 78469X107 US78469X1072 FLOW     NYSE         SPX FLOW INC                  34889     951771.92  0.113179 08 Producer Durables              0830 Scientific Instruments & Services                0830524 Scientific Instruments: Control & Filter         
20160729 78573L106 US78573L1061 SBRA     NASDAQ       SABRA HEALTH CARE REIT        53440    1277728.93  0.151940 10 Financial Services             1060 Real Estate Investment Trusts                    1060910 Equity REIT: Health Care                         
20160729 786449207 US7864492076 SFE      NYSE         SAFEGUARD SCIENTIFICS         19890     256978.80  0.030558 10 Financial Services             1040 Investment Banking & Brokerage Services          1040457 Diversified Financial Services                   
20160729 78648T100 US78648T1007 SAFT     NASDAQ       SAFETY INSURANCE GRP INC      14215     905495.50  0.107676 10 Financial Services             1030 Insurance                                        1030542 Insurance: Property-Casualty                     
20160729 786598300 US7865983008 SGA      NYSE MKT     SAGA COMMUNICATIONS INC        3612     148164.24  0.017619 03 Consumer Discretionary         0350 Media                                            0350760 Radio & TV Broadcasters                          
20160729 786692103 US7866921031 SGNT     NASDAQ       SAGENT PHARMACEUTICALS        23779     515747.94  0.061330 02 Health Care                    0230 Pharmaceuticals & Biotech                        0230460 Pharmaceuticals                                  
20160729 78709Y105 US78709Y1055 SAIA     NASDAQ       SAIA INC                      24903     719447.67  0.085553 08 Producer Durables              0840 Transportation & Freight                         0840865 Truckers                                         
20160729 790148100 US7901481009 JOE      NYSE         ST JOE CO                     49918     919988.74  0.109400 10 Financial Services             1050 Real Estate                                      1050802 Real Estate Holding and Development              
20160729 794093104 US7940931048 SALM     NASDAQ       SALEM MEDIA GROUP INC         10924      82694.68  0.009834 03 Consumer Discretionary         0350 Media                                            0350760 Radio & TV Broadcasters                          
20160729 79970Y105 US79970Y1055 SN       NYSE         SANCHEZ ENERGY CORP           37114     235297.79  0.027980 06 Energy                         0620 Non-Renewable Energy                             0620670 Oil: Crude Producers                             
20160729 800013104 US8000131040 SAFM     NASDAQ       SANDERSON FARMS INC           19770    1731654.30  0.205918 04 Consumer Staples               0410 Food/Beverage & Tobacco                          0410305 Agriculture Fishing & Ranching                   
20160729 800363103 US8003631038 SASR     NASDAQ       SANDY SPRING BANCORP          23256     693959.04  0.082522 10 Financial Services             1010 Banks                                            1010400 Banks: Diversified                               
20160729 800422107 US8004221078 JBSS     NASDAQ       SANFILIPPO JOHN B & SON        6078     283617.04  0.033726 04 Consumer Staples               0410 Food/Beverage & Tobacco                          0410494 Foods                                            
20160729 801056102 US8010561020 SANM     NASDAQ       SANMINA CORPORATION           72608    1839886.72  0.218789 01 Technology                     0120 Electronics                                      0120643 Technology: Misc                                 
20160729 804395101 US8043951016 BFS      NYSE         SAUL CENTERS INC               1024      68793.10  0.008180 10 Financial Services             1060 Real Estate Investment Trusts                    1060908 Equity REIT: Retail                              
20160729 806037107 US8060371072 SCSC     NASDAQ       SCANSOURCE INC                24821    1018405.63  0.121103 01 Technology                     0120 Electronics                                      0120463 Electronic Components                            
20160729 806882106 US8068821060 SCHN     NASDAQ       SCHNITZER STEEL INDS          25793     502705.57  0.059779 07 Materials & Processing         0740 Metals & Minerals                                0740835 Steel                                            
20160729 807066105 US8070661058 SCHL     NASDAQ       SCHOLASTIC CORP               26729    1098561.90  0.130635 03 Consumer Discretionary         0350 Media                                            0350740 Publishing                                       
20160729 808194104 US8081941044 SHLM     NASDAQ       SCHULMAN A INC                28416     832872.96  0.099040 07 Materials & Processing         0730 Industrial Materials & Processes                 0730733 Plastics                                         
20160729 808541106 US8085411069 SWM      NYSE         SCHWEITZER-MAUDUIT INTL       24182     914284.21  0.108721 07 Materials & Processing         0730 Industrial Materials & Processes                 0730720 Paper                                            
20160729 811054402 US8110544025 SSP      NYSE         SCRIPPS E W CO                58842     997960.32  0.118672 03 Consumer Discretionary         0350 Media                                            0350760 Radio & TV Broadcasters                          
20160729 811543107 US8115431079 SEB      NYSE MKT     SEABOARD CORP                   262     767660.00  0.091286 04 Consumer Staples               0410 Food/Beverage & Tobacco                          0410305 Agriculture Fishing & Ranching                   
20160729 811707801 US8117078019 SBCF     NASDAQ       SEACOAST BANKING CORP FL      29266     467378.02  0.055578 10 Financial Services             1010 Banks                                            1010400 Banks: Diversified                               
20160729 811904101 US8119041015 CKH      NYSE         SEACOR HOLDINGS INC           15756     890529.12  0.105897 06 Energy                         0610 Energy Equipment & Services                      0610600 Oil Well Equipment & Services                    
20160729 812350106 US8123501061 SHLD     NASDAQ       SEARS HOLDINGS CORP            8933     137650.93  0.016369 03 Consumer Discretionary         0360 Retail                                           0360815 Diversified Retail                               
20160729 812362101 US8123621018 SHOS     NASDAQ       SEARS HOMETOWN OUTLET         11118      76491.84  0.009096 03 Consumer Discretionary         0360 Retail                                           0360815 Diversified Retail                               
20160729 81374A105 US81374A1051 SCWX     NASDAQ       SECUREWORKS CORP               4080      60422.89  0.007185 01 Technology                     0130 Information Technology                           0130439 Computer Services Software & Systems             
20160729 81618T100 US81618T1007 SIR      NASDAQ       SELECT INCOME REIT            62683    1740080.08  0.206920 10 Financial Services             1060 Real Estate Investment Trusts                    1060916 Equity REIT: Diversified                         
20160729 81619Q105 US81619Q1058 SEM      NYSE         SELECT MEDICAL HOLDINGS       97579    1122149.88  0.133440 02 Health Care                    0210 Health Care Services                             0210504 Health Care Facilities                           
20160729 816300107 US8163001071 SIGI     NASDAQ       SELECTIVE INSURANCE GRP       56186    2200243.76  0.261640 10 Financial Services             1030 Insurance                                        1030542 Insurance: Property-Casualty                     
20160729 81663A105 US81663A1051 SEMG     NYSE         SEMGROUP CORP                 43782    1267926.72  0.150775 06 Energy                         0620 Non-Renewable Energy                             0620877 Gas Pipeline                                     
20160729 817070501 US8170705011 SENEA    NASDAQ       SENECA FOODS CORP              6473     253547.41  0.030150 04 Consumer Staples               0410 Food/Beverage & Tobacco                          0410494 Foods                                            
20160729 81734P107 US81734P1075 SQBG     NASDAQ       SEQUENTIAL BRANDS GROUP       38785     315322.05  0.037496 03 Consumer Discretionary         0320 Consumer Products                                0320850 Textiles Apparel & Shoes                         
20160729 81752R100 US81752R1005 SRG      NYSE         SERITAGE GROWTH PROP          24669    1234930.14  0.146851 10 Financial Services             1060 Real Estate Investment Trusts                    1060908 Equity REIT: Retail                              
20160729 81763U100 US81763U1007 SREV     NASDAQ       SERVICESOURCE INTL            22432     101395.88  0.012057 08 Producer Durables              0850 Commercial Services                              0850365 Back Office Support HR & Consulting              
20160729 824889109 US8248891090 SCVL     NASDAQ       SHOE CARNIVAL INC             14136     371918.16  0.044226 03 Consumer Discretionary         0360 Retail                                           0360834 Specialty Retail                                 
20160729 825107105 US8251071051 SHBI     NASDAQ       SHORE BANCSHARES INC          12390     145706.40  0.017327 10 Financial Services             1010 Banks                                            1010400 Banks: Diversified                               
20160729 825211105 US8252111054 SHOR     NASDAQ       SHORETEL INC                  50930     373824.79  0.044453 01 Technology                     0140 Telecommunication                                0140448 Communications Technology                        
20160729 82620P102 US82620P1021 BSRR     NASDAQ       SIERRA BANCORP                11506     205727.28  0.024464 10 Financial Services             1010 Banks                                            1010400 Banks: Diversified                               
20160729 826565103 US8265651039 SIGM     NASDAQ       SIGMA DESIGNS INC             35426     237354.20  0.028225 01 Technology                     0120 Electronics                                      0120476 Semiconductors & Components                      
20160729 82706L108 US82706L1089 SGI      NASDAQ       SILICON GRAPHICS INTL          6087      32869.91  0.003909 01 Technology                     0130 Information Technology                           0130449 Computer Technology                              
20160729 82735Q102 US82735Q1022 SBY      NYSE         SILVER BAY RLTY TR CORP       32858     592101.16  0.070409 10 Financial Services             1060 Real Estate Investment Trusts                    1060907 Equity REIT: Residential                         
20160729 82817Q103 US82817Q1031 SSNI     NYSE         SILVER SPRING NETWORKS         1947      24475.55  0.002910 01 Technology                     0130 Information Technology                           0130439 Computer Services Software & Systems             
20160729 828730200 US8287302009 SFNC     NASDAQ       SIMMONS FIRST NATIONAL        28964    1330895.80  0.158263 10 Financial Services             1010 Banks                                            1010400 Banks: Diversified                               
20160729 830879102 US8308791024 SKYW     NASDAQ       SKYWEST INC                   49648    1428372.96  0.169854 08 Producer Durables              0840 Transportation & Freight                         0840310 Air Transport                                    
20160729 83190B101 US83190B1017 SFS      NYSE         SMART & FINAL STORES INC       6740      92946.81  0.011053 04 Consumer Staples               0420 Personal Care/Drug & Grocery Stores              0420459 Drug & Grocery Store Chains                      
20160729 833551104 US8335511049 LNCE     NASDAQ       SNYDER'S-LANCE INC            79585    2726582.10  0.324230 04 Consumer Staples               0410 Food/Beverage & Tobacco                          0410494 Foods                                            
20160729 83545G102 US83545G1022 SAH      NYSE         SONIC AUTOMOTIVE INC          27641     502513.38  0.059756 03 Consumer Discretionary         0360 Retail                                           0360834 Specialty Retail                                 
20160729 835898107 US8358981079 BID      NYSE         SOTHEBYS                      22025     713419.03  0.084836 03 Consumer Discretionary         0330 Consumer Services                                0330638 Consumer Services: Misc                          
20160729 835916503 US8359165037 SONS     NASDAQ       SONUS NETWORKS INC            40922     352746.43  0.041947 01 Technology                     0140 Telecommunication                                0140448 Communications Technology                        
20160729 838518108 US8385181081 SJI      NYSE         SOUTH JERSEY INDUSTRIES       78945    2516766.60  0.299280 11 Utilities                      1110 Utilities                                        1110875 Utilities: Gas Distributors                      
20160729 840441109 US8404411097 SSB      NASDAQ       SOUTH STATE CORPORATION       23370    1703906.70  0.202619 10 Financial Services             1010 Banks                                            1010400 Banks: Diversified                               
20160729 842873101 US8428731017 SFST     NASDAQ       SOUTHERN FIRST BANCSHARE       5663     153240.78  0.018223 10 Financial Services             1010 Banks                                            1010400 Banks: Diversified                               
20160729 843380106 US8433801060 SMBC     NASDAQ       SOUTHERN MO BANCORP INC        5776     140992.16  0.016766 10 Financial Services             1010 Banks                                            1010820 Banks: Savings/Thrifts & Mortgage Lend           
20160729 843395104 US8433951048 SONA     NASDAQ       SOUTHERN NATL BANCORP         11066     147509.78  0.017541 10 Financial Services             1010 Banks                                            1010400 Banks: Diversified                               
20160729 84470P109 US84470P1093 SBSI     NASDAQ       SOUTHSIDE BANCSHARES INC      24221     740920.39  0.088106 10 Financial Services             1010 Banks                                            1010400 Banks: Diversified                               
20160729 844767103 US8447671038 OKSB     NASDAQ       SOUTHWEST BANCORP INC OK      17846     346569.32  0.041212 10 Financial Services             1010 Banks                                            1010400 Banks: Diversified                               
20160729 844895102 US8448951025 SWX      NYSE         SOUTHWEST GAS CORP            41942    3250486.40  0.386529 11 Utilities                      1110 Utilities                                        1110875 Utilities: Gas Distributors                      
20160729 846819100 US8468191007 SPAR     NASDAQ       SPARTAN MOTORS INC            32861     278989.89  0.033176 08 Producer Durables              0840 Transportation & Freight                         0840350 Commercial Vehicles & Parts                      
20160729 847215100 US8472151005 SPTN     NASDAQ       SPARTANNASH COMPANY           36506    1149939.00  0.136744 04 Consumer Staples               0420 Personal Care/Drug & Grocery Stores              0420459 Drug & Grocery Store Chains                      
20160729 847235108 US8472351084 SPA      NYSE         SPARTON CORP                   8634     179655.14  0.021364 01 Technology                     0120 Electronics                                      0120643 Technology: Misc                                 
20160729 84763A108 US84763A1088 SPPI     NASDAQ       SPECTRUM PHARMACEUTICALS      46656     320521.94  0.038115 02 Health Care                    0230 Pharmaceuticals & Biotech                        0230460 Pharmaceuticals                                  
20160729 847788106 US8477881069 TRK      NYSE         SPEEDWAY MOTORSPORTS INC      11613     205201.71  0.024401 03 Consumer Discretionary         0340 Leisure                                          0340556 Leisure Time                                     
20160729 84857L101 US84857L1017 SR       NYSE         SPIRE INC                     44198    3067341.20  0.364751 11 Utilities                      1110 Utilities                                        1110875 Utilities: Gas Distributors                      
20160729 84863T106 US84863T1060 SPOK     NASDAQ       SPOK HOLDINGS INC             20248     374183.04  0.044496 11 Utilities                      1110 Utilities                                        1110880 Utilities: Telecommunications                    
20160729 84920Y106 US84920Y1064 SPWH     NASDAQ       SPORTSMANS WHSE HLDGS          1275      12981.54  0.001544 03 Consumer Discretionary         0360 Retail                                           0360834 Specialty Retail                                 
20160729 85254C305 US85254C3051 SSI      NYSE         STAGE STORES INC              25335     150236.55  0.017865 03 Consumer Discretionary         0360 Retail                                           0360834 Specialty Retail                                 
20160729 853666105 US8536661056 SMP      NYSE         STANDARD MOTOR PRODUCTS        8596     360538.47  0.042873 03 Consumer Discretionary         0310 Auto & Auto Parts                                0310340 Auto Parts                                       
20160729 854231107 US8542311076 SXI      NYSE         STANDEX INTERNATIONAL          2912     258673.69  0.030760 08 Producer Durables              0820 Manufacturing & Production                       0820453 Diversified Manufacturing Operations             
20160729 855707105 US8557071052 STFC     NASDAQ       STATE AUTO FINANCIAL          15281     345044.98  0.041031 10 Financial Services             1030 Insurance                                        1030542 Insurance: Property-Casualty                     
20160729 856190103 US8561901039 STBZ     NASDAQ       STATE BK FINL CORP            34553     756019.64  0.089902 10 Financial Services             1010 Banks                                            1010400 Banks: Diversified                               
20160729 85711T305 US85711T3059 SNC      NASDAQ       STATE NATIONAL COMPANIES      27652     301951.30  0.035906 10 Financial Services             1030 Insurance                                        1030542 Insurance: Property-Casualty                     
20160729 858586100 US8585861003 SCL      NYSE         STEPAN CO                     17504    1125637.87  0.133854 07 Materials & Processing         0720 Chemicals and Synthetics                         0720833 Chemicals: Specialty                             
20160729 85858C107 US85858C1071 STML     NASDAQ       STEMLINE THERAPEUTICS         13643     100951.41  0.012005 02 Health Care                    0230 Pharmaceuticals & Biotech                        0230412 Biotechnology                                    
20160729 85917A100 US85917A1007 STL      NYSE         STERLING BANCORP             125286    2116080.54  0.251632 10 Financial Services             1010 Banks                                            1010820 Banks: Savings/Thrifts & Mortgage Lend           
20160729 860372101 US8603721015 STC      NYSE         STEWART INFORMATION           22592     967163.52  0.115010 10 Financial Services             1030 Insurance                                        1030542 Insurance: Property-Casualty                     
20160729 860630102 US8606301021 SF       NYSE         STIFEL FINANCIAL CORP         63409    2241508.15  0.266547 10 Financial Services             1040 Investment Banking & Brokerage Services          1040457 Diversified Financial Services                   
20160729 86074Q102 US86074Q1022 SWC      NYSE         STILLWATER MINING CO         120830    1848699.00  0.219837 07 Materials & Processing         0740 Metals & Minerals                                0740549 Precious Metals & Minerals                       
20160729 861025104 US8610251048 SYBT     NASDAQ       STOCK YARDS BANCORP INC       20998     620280.92  0.073760 10 Financial Services             1010 Banks                                            1010400 Banks: Diversified                               
20160729 861811107 US8618111079 SGBK     NASDAQ       STONEGATE BANK                11321     358762.49  0.042662 10 Financial Services             1010 Banks                                            1010400 Banks: Diversified                               
20160729 863111100 US8631111007 STRT     NASDAQ       STRATTEC SEC CORP              3439     153379.40  0.018239 03 Consumer Discretionary         0310 Auto & Auto Parts                                0310340 Auto Parts                                       
20160729 863167201 US8631672016 STRS     NASDAQ       STRATUS PPTYS INC              6150     108178.50  0.012864 10 Financial Services             1050 Real Estate                                      1050802 Real Estate Holding and Development              
20160729 863236105 US8632361056 STRA     NASDAQ       STRAYER EDUCATION INC          5782     264352.58  0.031435 03 Consumer Discretionary         0330 Consumer Services                                0330461 Education Services                               
20160729 864739107 US8647391072 SCNB     NYSE         SUFFOLK BANCORP               11314     372343.74  0.044277 10 Financial Services             1010 Banks                                            1010400 Banks: Diversified                               
20160729 86606G101 US86606G1013 SMMF     NASDAQ       SUMMIT FINANCIAL GROUP         8230     161719.50  0.019231 10 Financial Services             1010 Banks                                            1010400 Banks: Diversified                               
20160729 866082100 US8660821005 INN      NYSE         SUMMIT HOTEL PPTYS            85547    1213056.46  0.144250 10 Financial Services             1060 Real Estate Investment Trusts                    1060909 Equity REIT: Lodging and Resorts                 
20160729 86663B201 US86663B2016 SNBC     NASDAQ       SUN BANCORP INC NJ            10602     226246.68  0.026904 10 Financial Services             1010 Banks                                            1010400 Banks: Diversified                               
20160729 866942105 US8669421054 SNHY     NASDAQ       SUN HYDRAULICS CORP            2390      72206.99  0.008586 08 Producer Durables              0830 Scientific Instruments & Services                0830524 Scientific Instruments: Control & Filter         
20160729 86722A103 US86722A1034 SXC      NYSE         SUNCOKE ENERGY INC            63712     486122.56  0.057807 06 Energy                         0620 Non-Renewable Energy                             0620435 Coal                                             
20160729 86771W105 US86771W1053 RUN      NASDAQ       SUNRUN INC                    62495     323724.10  0.038495 06 Energy                         0610 Energy Equipment & Services                      0610477 Energy Equipment                                 
20160729 867892101 US8678921011 SHO      NYSE         SUNSTONE HOTEL INVS INC      214877    2857864.10  0.339841 10 Financial Services             1060 Real Estate Investment Trusts                    1060909 Equity REIT: Lodging and Resorts                 
20160729 86800U104 US86800U1043 SMCI     NASDAQ       SUPER MICRO COMPUTER INC      30062     647832.35  0.077037 01 Technology                     0130 Information Technology                           0130449 Computer Technology                              
20160729 868168105 US8681681057 SUP      NYSE         SUPERIOR INDUSTRIES INTL      24821     758529.76  0.090200 03 Consumer Discretionary         0310 Auto & Auto Parts                                0310340 Auto Parts                                       
20160729 868536103 US8685361037 SVU      NYSE         SUPERVALU INC                262801    1282468.88  0.152504 04 Consumer Staples               0420 Personal Care/Drug & Grocery Stores              0420459 Drug & Grocery Store Chains                      
20160729 868607102 US8686071023 STS      NYSE MKT     SUPREME INDS INC               5460      91743.02  0.010910 08 Producer Durables              0840 Transportation & Freight                         0840350 Commercial Vehicles & Parts                      
20160729 86881A100 US86881A1007 SGRY     NASDAQ       SURGERY PARTNERS INC           7669     139054.94  0.016536 02 Health Care                    0210 Health Care Services                             0210504 Health Care Facilities                           
20160729 871237103 US8712371033 SYKE     NASDAQ       SYKES ENTERPRISES INC         38242    1173646.98  0.139563 08 Producer Durables              0850 Commercial Services                              0850365 Back Office Support HR & Consulting              
20160729 87162W100 US87162W1009 SNX      NYSE         SYNNEX CORP                   28893    2904613.29  0.345400 01 Technology                     0130 Information Technology                           0130439 Computer Services Software & Systems             
20160729 87164C102 US87164C1027 SYUT     NASDAQ       SYNUTRA INTL INC              15043      52499.62  0.006243 04 Consumer Staples               0410 Food/Beverage & Tobacco                          0410494 Foods                                            
20160729 87164F105 US87164F1057 SNDX     NASDAQ       SYNDAX PHARMACEUTICALS         2446      30379.01  0.003612 02 Health Care                    0230 Pharmaceuticals & Biotech                        0230412 Biotechnology                                    
20160729 87164P103 US87164P1030 SYRG     NYSE MKT     SYNERGY RES CORP             162395    1057187.13  0.125715 06 Energy                         0620 Non-Renewable Energy                             0620670 Oil: Crude Producers                             
20160729 871851101 US8718511012 SYX      NYSE         SYSTEMAX INC                  11361     101680.95  0.012091 03 Consumer Discretionary         0360 Retail                                           0360834 Specialty Retail                                 
20160729 872625108 US8726251080 TRR      NYSE         TRC COS INC                   18380     129027.60  0.015343 08 Producer Durables              0830 Scientific Instruments & Services                0830735 Scientific Instruments: Pollution Control        
20160729 87265H109 US87265H1095 TPH      NYSE         TRI POINTE GROUP INC         138357    1860897.88  0.221287 03 Consumer Discretionary         0320 Consumer Products                                0320501 Homebuilding                                     
20160729 87305R109 US87305R1095 TTMI     NASDAQ       TTM TECHNOLOGIES INC          71624     712658.80  0.084745 01 Technology                     0120 Electronics                                      0120463 Electronic Components                            
20160729 87403A107 US87403A1079 TLRD     NYSE         TAILORED BRANDS INC           33669     493244.77  0.058654 03 Consumer Discretionary         0360 Retail                                           0360834 Specialty Retail                                 
20160729 87422J105 US87422J1051 TLN      NYSE         TALEN ENERGY CORP             83318    1133124.80  0.134745 11 Utilities                      1110 Utilities                                        1110870 Utilities: Electrical                            
20160729 87482X101 US87482X1019 TLMR     NASDAQ       TALMER BANCORP INC            13179     277038.72  0.032944 10 Financial Services             1010 Banks                                            1010400 Banks: Diversified                               
20160729 87582Y108 US87582Y1082 TNGO     NASDAQ       TANGOE INC                    27314     220970.26  0.026277 01 Technology                     0130 Information Technology                           0130439 Computer Services Software & Systems             
20160729 878155100 US8781551002 TISI     NYSE         TEAM INC                       1913      52824.89  0.006282 08 Producer Durables              0830 Scientific Instruments & Services                0830735 Scientific Instruments: Pollution Control        
20160729 878237106 US8782371061 TECD     NASDAQ       TECH DATA CORP                34591    2695676.63  0.320554 01 Technology                     0120 Electronics                                      0120463 Electronic Components                            
20160729 87874R100 US87874R1005 TTGT     NASDAQ       TECHTARGET INC                12761     116372.75  0.013838 01 Technology                     0130 Information Technology                           0130439 Computer Services Software & Systems             
20160729 879080109 US8790801091 TRC      NYSE         TEJON RANCH CO                13755     361343.85  0.042969 10 Financial Services             1050 Real Estate                                      1050802 Real Estate Holding and Development              
20160729 879360105 US8793601050 TDY      NYSE         TELEDYNE TECHNOLOGIES         24280    2549312.85  0.303150 08 Producer Durables              0840 Transportation & Freight                         0840300 Aerospace                                        
20160729 879455103 US8794551031 TNAV     NASDAQ       TELENAV INC                   32198     160346.04  0.019067 01 Technology                     0140 Telecommunication                                0140448 Communications Technology                        
20160729 880345103 US8803451033 TNC      NYSE         TENNANT CO                     1003      64323.89  0.007649 08 Producer Durables              0810 Machinery                                        0810584 Machinery: Industrial                            
20160729 88104M101 US88104M1018 GLBL     NASDAQ       TERRAFORM GLOBAL INC          90298     314237.04  0.037367 06 Energy                         0630 Alternative Energy                               0630478 Alternative Energy                               
20160729 88104R100 US88104R1005 TERP     NASDAQ       TERRAFORM POWER INC           86428    1016393.28  0.120864 06 Energy                         0630 Alternative Energy                               0630478 Alternative Energy                               
20160729 88105A106 US88105A1060 TVIA     NASDAQ       TERRAVIA HOLDINGS             77615     196365.95  0.023351 06 Energy                         0630 Alternative Energy                               0630478 Alternative Energy                               
20160729 88145X108 US88145X1081 TBNK     NASDAQ       TERRITORIAL BANCORP INC        7480     201212.00  0.023927 10 Financial Services             1010 Banks                                            1010820 Banks: Savings/Thrifts & Mortgage Lend           
20160729 88146M101 US88146M1018 TRNO     NYSE         TERRENO REALTY CORP           31284     871244.42  0.103603 10 Financial Services             1060 Real Estate Investment Trusts                    1060906 Equity REIT: Industrial                          
20160729 88157K101 CA88157K1012 TESO     NASDAQ       TESCO CORP                    38666     255582.26  0.030392 06 Energy                         0610 Energy Equipment & Services                      0610600 Oil Well Equipment & Services                    
20160729 88162F105 US88162F1057 TTI      NYSE         TETRA TECHNOLOGIES INC        26771     160894.61  0.019133 06 Energy                         0610 Energy Equipment & Services                      0610600 Oil Well Equipment & Services                    
20160729 88162G103 US88162G1031 TTEK     NASDAQ       TETRA TECH INC                47812    1574447.55  0.187224 08 Producer Durables              0850 Commercial Services                              0850479 Engineering & Contracting Services               
20160729 88164L100 US88164L1008 TSRA     NASDAQ       TESSERA TECHNOLOGIES INC      16792     539723.00  0.064181 01 Technology                     0120 Electronics                                      0120738 Production Technology Equipment                  
20160729 88165N105 US88165N1054 TTPH     NASDAQ       TETRAPHASE PHARMA INC         35918     144390.36  0.017170 02 Health Care                    0230 Pharmaceuticals & Biotech                        0230412 Biotechnology                                    
20160729 88224Q107 US88224Q1076 TCBI     NASDAQ       TEXAS CAPITAL BANCSHARES      42225    2049572.38  0.243723 10 Financial Services             1010 Banks                                            1010400 Banks: Diversified                               
20160729 88338N107 US88338N1072 TXMD     NYSE MKT     THERAPEUTICSMD INC             9491      73747.62  0.008770 02 Health Care                    0230 Pharmaceuticals & Biotech                        0230460 Pharmaceuticals                                  
20160729 88362T103 US88362T1034 THR      NYSE         THERMON GROUP HLDGS INC       31605     637788.90  0.075842 08 Producer Durables              0830 Scientific Instruments & Services                0830524 Scientific Instruments: Control & Filter         
20160729 886423102 US8864231027 TDW      NYSE         TIDEWATER INC                 46770     199707.90  0.023748 08 Producer Durables              0840 Transportation & Freight                         0840830 Shipping                                         
20160729 88650V208 US88650V2088 TIER     NYSE         TIER REIT INC                 47198     822661.14  0.097826 10 Financial Services             1060 Real Estate Investment Trusts                    1060912 Equity REIT: Office                              
20160729 886885102 US8868851028 TLYS     NYSE         TILLYS INC                    11498      65423.62  0.007780 03 Consumer Discretionary         0360 Retail                                           0360834 Specialty Retail                                 
20160729 887228104 US8872281048 TIME     NYSE         TIME INC                     101569    1658621.77  0.197234 03 Consumer Discretionary         0350 Media                                            0350740 Publishing                                       
20160729 887399103 US8873991033 TMST     NYSE         TIMKENSTEEL CORPORATION       38975     390529.50  0.046440 07 Materials & Processing         0740 Metals & Minerals                                0740835 Steel                                            
20160729 88822Q103 US88822Q1031 TIPT     NASDAQ       TIPTREE FINANCIAL INC         26942     140637.24  0.016724 10 Financial Services             1040 Investment Banking & Brokerage Services          1040457 Diversified Financial Services                   
20160729 88830M102 US88830M1027 TWI      NYSE         TITAN INTERNATIONAL INC       43733     289075.13  0.034375 08 Producer Durables              0810 Machinery                                        0810570 Machinery: Agricultural                          
20160729 88830R101 US88830R1014 TITN     NASDAQ       TITAN MACHINERY INC           17511     196298.31  0.023343 08 Producer Durables              0810 Machinery                                        0810570 Machinery: Agricultural                          
20160729 888314309 US8883143096 TTNP     NASDAQ       TITAN PHARMACEUTICALS          1078       5347.40  0.000636 02 Health Care                    0230 Pharmaceuticals & Biotech                        0230412 Biotechnology                                    
20160729 890110109 US8901101092 TMP      NYSE MKT     TOMPKINS FINANCIAL CORP       14335    1042727.90  0.123995 10 Financial Services             1010 Banks                                            1010400 Banks: Diversified                               
20160729 89055F103 US89055F1030 BLD      NYSE         TOPBUILD CORP                 32943    1243914.84  0.147919 08 Producer Durables              0850 Commercial Services                              0850479 Engineering & Contracting Services               
20160729 891826109 US8918261095 TOWR     NYSE         TOWER INTERNATIONAL INC       20265     467716.20  0.055618 03 Consumer Discretionary         0310 Auto & Auto Parts                                0310340 Auto Parts                                       
20160729 89214P109 US89214P1093 TOWN     NASDAQ       TOWNEBANK PORTSMOUTH VA       55235    1267643.25  0.150741 10 Financial Services             1010 Banks                                            1010400 Banks: Diversified                               
20160729 892231101 US8922311019 TSQ      NYSE         TOWNSQUARE MEDIA INC           8090      66170.34  0.007869 03 Consumer Discretionary         0350 Media                                            0350760 Radio & TV Broadcasters                          
20160729 89366M201 US89366M2017 TRXC     NYSE MKT     TRANSENTERIX INC              60715      81964.17  0.009747 02 Health Care                    0220 Medical Equipment & Services                     0220507 Medical & Dental Instruments & Supplies          
20160729 894648104 US8946481046 TREC     NYSE         TRECORA RESOURCES              3901      44590.67  0.005302 06 Energy                         0620 Non-Renewable Energy                             0620605 Oil: Refining & Marketing                        
20160729 894650100 US8946501009 TG       NYSE         TREDEGAR CORP                 25123     444677.10  0.052878 07 Materials & Processing         0730 Industrial Materials & Processes                 0730452 Diversified Materials & Processing               
20160729 896095106 US8960951064 TCBK     NASDAQ       TRICO BANCSHARES              19987     520061.74  0.061843 10 Financial Services             1010 Banks                                            1010400 Banks: Diversified                               
20160729 896215209 US8962152091 TRS      NASDAQ       TRIMAS CORP                   44539     795911.93  0.094645 08 Producer Durables              0820 Manufacturing & Production                       0820453 Diversified Manufacturing Operations             
20160729 89656D101 US89656D1019 TPHS     NYSE MKT     TRINITY PLACE HOLDINGS        16918     137543.27  0.016356 10 Financial Services             1050 Real Estate                                      1050802 Real Estate Holding and Development              
20160729 896749108 PR8967491088 GTS      NYSE         TRIPLE-S MANAGEMENT CORP      23026     572196.10  0.068042 02 Health Care                    0210 Health Care Services                             0210503 Health Care Management Services                  
20160729 89678F100 US89678F1003 TSC      NASDAQ       TRISTATE CAP HLDGS INC        21673     309273.71  0.036777 10 Financial Services             1010 Banks                                            1010400 Banks: Diversified                               
20160729 89679E300 US89679E3009 TBK      NASDAQ       TRIUMPH BANCORP INC           15285     267028.95  0.031754 10 Financial Services             1010 Banks                                            1010400 Banks: Diversified                               
20160729 896818101 US8968181011 TGI      NYSE         TRIUMPH GROUP INC             48735    1502500.05  0.178669 08 Producer Durables              0840 Transportation & Freight                         0840300 Aerospace                                        
20160729 89703P107 US89703P1075 TRNC     NASDAQ       TRONC INC                     10462     156839.40  0.018650 03 Consumer Discretionary         0350 Media                                            0350740 Publishing                                       
20160729 897238309 US8972383090 TROV     NASDAQ       TROVAGENE INC                  2282      12851.69  0.001528 02 Health Care                    0230 Pharmaceuticals & Biotech                        0230412 Biotechnology                                    
20160729 89785X101 US89785X1019 TBI      NYSE         TRUEBLUE INC                  38997     870782.15  0.103548 08 Producer Durables              0850 Commercial Services                              0850365 Back Office Support HR & Consulting              
20160729 898349105 US8983491056 TRST     NASDAQ       TRUSTCO BANK CORP NY          90242     598304.46  0.071147 10 Financial Services             1010 Banks                                            1010400 Banks: Diversified                               
20160729 898402102 US8984021027 TRMK     NASDAQ       TRUSTMARK CORP                66654    1739669.40  0.206872 10 Financial Services             1010 Banks                                            1010400 Banks: Diversified                               
20160729 899035505 US8990355054 TUES     NASDAQ       TUESDAY MORNING CORP          44357     349976.73  0.041617 03 Consumer Discretionary         0360 Retail                                           0360815 Diversified Retail                               
20160729 90041L105 US90041L1052 TPB      NYSE         TURNING POINT BRANDS INC       2725      30386.18  0.003613 04 Consumer Staples               0410 Food/Beverage & Tobacco                          0410856 Tobacco                                          
20160729 901109108 US9011091082 TPC      NYSE         TUTOR PERINI CORP             31536     792169.25  0.094200 08 Producer Durables              0820 Manufacturing & Production                       0820443 Construction                                     
20160729 902104108 US9021041085 IIVI     NASDAQ       II VI INC                     42289     850002.95  0.101077 01 Technology                     0120 Electronics                                      0120475 Electronics                                      
20160729 90265Y106 US90265Y1064 UCP      NYSE         UCP INC                        7454      62611.39  0.007445 10 Financial Services             1050 Real Estate                                      1050802 Real Estate Holding and Development              
20160729 902673102 US9026731029 UFPT     NASDAQ       UFP TECHNOLOGIES INC           6332     144939.48  0.017235 07 Materials & Processing         0730 Industrial Materials & Processes                 0730442 Containers & Packaging                           
20160729 902788108 US9027881088 UMBF     NASDAQ       UMB FINANCIAL CORP            44376    2458874.16  0.292395 10 Financial Services             1010 Banks                                            1010400 Banks: Diversified                               
20160729 902925106 US9029251066 USAK     NASDAQ       USA TRUCK INC                  8836     170358.08  0.020258 08 Producer Durables              0840 Transportation & Freight                         0840865 Truckers                                         
20160729 903002103 US9030021037 UMH      NYSE         UMH PROPERTIES INC            17255     213261.52  0.025360 10 Financial Services             1060 Real Estate Investment Trusts                    1060907 Equity REIT: Residential                         
20160729 90328S500 US90328S5001 USAT     NASDAQ       USA TECHNOLOGIES INC           4285      20229.64  0.002406 01 Technology                     0130 Information Technology                           0130449 Computer Technology                              
20160729 903313104 US9033131049 USMD     NASDAQ       USMD HLDGS INC                 2157      44396.34  0.005279 02 Health Care                    0210 Health Care Services                             0210504 Health Care Facilities                           
20160729 90385V107 US90385V1070 UCTT     NASDAQ       ULTRA CLEAN HOLDINGS INC      31714     202652.46  0.024098 01 Technology                     0120 Electronics                                      0120738 Production Technology Equipment                  
20160729 904034105 US9040341052 UTEK     NASDAQ       ULTRATECH INC                 19654     480320.30  0.057117 01 Technology                     0120 Electronics                                      0120738 Production Technology Equipment                  
20160729 904214103 US9042141039 UMPQ     NASDAQ       UMPQUA HOLDINGS CORP         218451    3327008.73  0.395629 10 Financial Services             1010 Banks                                            1010400 Banks: Diversified                               
20160729 904677200 US9046772003 UFI      NYSE         UNIFI INC                     15474     418262.22  0.049737 07 Materials & Processing         0730 Industrial Materials & Processes                 0730852 Textile Products                                 
20160729 904708104 US9047081040 UNF      NYSE         UNIFIRST CORP MASS            13518    1579982.09  0.187882 08 Producer Durables              0850 Commercial Services                              0850484 Environmental Maint & Security Service           
20160729 90539J109 US90539J1097 UBSH     NASDAQ       UNION BANKSHARES CORP         42870    1150630.80  0.136826 10 Financial Services             1010 Banks                                            1010400 Banks: Diversified                               
20160729 905400107 US9054001071 UNB      NASDAQ       UNION BANKSHARES INC            387      13520.10  0.001608 10 Financial Services             1010 Banks                                            1010400 Banks: Diversified                               
20160729 909214306 US9092143067 UIS      NYSE         UNISYS CORP                   16281     161350.58  0.019187 01 Technology                     0130 Information Technology                           0130439 Computer Services Software & Systems             
20160729 909218109 US9092181091 UNT      NYSE         UNIT CORP                     50015     625187.50  0.074344 06 Energy                         0620 Non-Renewable Energy                             0620670 Oil: Crude Producers                             
20160729 909839102 US9098391025 UCFC     NASDAQ       UNITED CMNTY FINL CO          45965     305207.60  0.036294 10 Financial Services             1010 Banks                                            1010820 Banks: Savings/Thrifts & Mortgage Lend           
20160729 90984P303 US90984P3038 UCBI     NASDAQ       UNITED COMMUNITY BANKS        69355    1334390.20  0.158678 10 Financial Services             1010 Banks                                            1010400 Banks: Diversified                               
20160729 909907107 US9099071071 UBSI     NASDAQ       UNITED BANKSHARES INC         64920    2486436.00  0.295673 10 Financial Services             1010 Banks                                            1010400 Banks: Diversified                               
20160729 910304104 US9103041045 UBNK     NASDAQ       UNITED FINANCIAL BANCORP      49558     651687.70  0.077495 10 Financial Services             1010 Banks                                            1010400 Banks: Diversified                               
20160729 910340108 US9103401082 UFCS     NASDAQ       UNITED FIRE GROUP INC         21348     896616.00  0.106620 10 Financial Services             1030 Insurance                                        1030542 Insurance: Property-Casualty                     
20160729 910710102 US9107101027 UIHC     NASDAQ       UNITED INS HLDGS CORP          4444      70486.69  0.008382 10 Financial Services             1030 Insurance                                        1030542 Insurance: Property-Casualty                     
20160729 911163103 US9111631035 UNFI     NASDAQ       UNITED NATURAL FOODS INC      49027    2450369.46  0.291384 04 Consumer Staples               0410 Food/Beverage & Tobacco                          0410494 Foods                                            
20160729 911922102 US9119221029 USLM     NASDAQ       UNITED STATES LIME & MIN       1778     112011.23  0.013320 07 Materials & Processing         0740 Metals & Minerals                                0740635 Metals & Minerals: Diversified                   
20160729 913259107 US9132591077 UTL      NYSE         UNITIL CORP                   13730     600550.20  0.071414 11 Utilities                      1110 Utilities                                        1110870 Utilities: Electrical                            
20160729 91338E101 US91338E1010 UAM      NYSE         UNIVERSAL AMERICAN CORP       57226     438351.16  0.052126 02 Health Care                    0210 Health Care Services                             0210503 Health Care Management Services                  
20160729 913456109 US9134561094 UVV      NYSE         UNIVERSAL CORP                21924    1300312.44  0.154626 04 Consumer Staples               0410 Food/Beverage & Tobacco                          0410856 Tobacco                                          
20160729 913543104 US9135431040 UFPI     NASDAQ       UNIVERSAL FOREST PRODS         2507     271085.38  0.032236 07 Materials & Processing         0730 Industrial Materials & Processes                 0730496 Forest Products                                  
20160729 91359V107 US91359V1070 UVE      NYSE         UNIVERSAL INSURANCE            8693     188997.60  0.022475 10 Financial Services             1030 Insurance                                        1030542 Insurance: Property-Casualty                     
20160729 91388P105 US91388P1057 ULH      NASDAQ       UNIVERSAL LOGISTICS HLDG       2554      38188.28  0.004541 08 Producer Durables              0840 Transportation & Freight                         0840865 Truckers                                         
20160729 915271100 US9152711001 UVSP     NASDAQ       UNIVEST CORP OF PENN          24500     516705.00  0.061444 10 Financial Services             1010 Banks                                            1010400 Banks: Diversified                               
20160729 918284100 US9182841000 VSEC     NASDAQ       VSE CORP                       4255     270447.80  0.032160 08 Producer Durables              0850 Commercial Services                              0850479 Engineering & Contracting Services               
20160729 918905100 US9189051009 VHI      NYSE         VALHI INC                     23172      43099.19  0.005125 07 Materials & Processing         0720 Chemicals and Synthetics                         0720833 Chemicals: Specialty                             
20160729 919794107 US9197941076 VLY      NYSE         VALLEY NATIONAL BANCORP      244851    2220798.57  0.264085 10 Financial Services             1010 Banks                                            1010400 Banks: Diversified                               
20160729 920437100 US9204371002 VALU     NASDAQ       VALUE LINE INC                  109       1986.16  0.000236 10 Financial Services             1020 Consumer Finance & Credit Services               1020489 Financial Data & Systems                         
20160729 92230Y104 US92230Y1047 VDSI     NASDAQ       VASCO DATA SECURITY INTL       2860      47802.36  0.005684 01 Technology                     0130 Information Technology                           0130439 Computer Services Software & Systems             
20160729 92240M108 US92240M1080 VGR      NYSE         VECTOR GROUP LTD              49184    1086467.49  0.129197 04 Consumer Staples               0410 Food/Beverage & Tobacco                          0410856 Tobacco                                          
20160729 922417100 US9224171002 VECO     NASDAQ       VEECO INSTRUMENTS INC         39294     658960.38  0.078360 01 Technology                     0120 Electronics                                      0120738 Production Technology Equipment                  
20160729 92242T101 US92242T1016 VEC      NYSE         VECTRUS INC                    8544     266140.90  0.031648 08 Producer Durables              0850 Commercial Services                              0850546 International Trade & Diversified Logistics      
20160729 92335C106 US92335C1062 VRA      NASDAQ       VERA BRADLEY INC               5990      87221.17  0.010372 03 Consumer Discretionary         0320 Consumer Products                                0320850 Textiles Apparel & Shoes                         
20160729 92343X100 US92343X1000 VRNT     NASDAQ       VERINT SYS INC                61383    2164978.41  0.257447 01 Technology                     0130 Information Technology                           0130439 Computer Services Software & Systems             
20160729 923451108 US9234511080 VBTX     NASDAQ       VERITEX HOLDINGS               5655      98225.27  0.011680 10 Financial Services             1010 Banks                                            1010400 Banks: Diversified                               
20160729 923454102 US9234541020 VRTV     NYSE         VERITIV CORPORATION            7701     325112.58  0.038661 07 Materials & Processing         0730 Industrial Materials & Processes                 0730442 Containers & Packaging                           
20160729 92529L102 US92529L1026 VSAR     NASDAQ       VERSARTIS INC                 24623     283155.02  0.033671 02 Health Care                    0230 Pharmaceuticals & Biotech                        0230412 Biotechnology                                    
20160729 92552R406 US92552R4065 VVI      NYSE         VIAD CORP                      8507     296226.14  0.035226 03 Consumer Discretionary         0350 Media                                            0350301 Advertising Agencies                             
20160729 92552V100 US92552V1008 VSAT     NASDAQ       VIASAT INC                     5624     415243.55  0.049378 01 Technology                     0140 Telecommunication                                0140448 Communications Technology                        
20160729 925550105 US9255501051 VIAV     NASDAQ       VIAVI SOLUTIONS INC          231866    1653204.58  0.196590 01 Technology                     0140 Telecommunication                                0140849 Telecommunications Equipment                     
20160729 925815102 US9258151029 VICR     NASDAQ       VICOR CORP                     1661      17610.59  0.002094 08 Producer Durables              0820 Manufacturing & Production                       0820734 Power Transmission Equip                         
20160729 927107409 US9271074091 VLGEA    NASDAQ       VILLAGE SUPER MARKET INC       7226     228630.64  0.027187 04 Consumer Staples               0420 Personal Care/Drug & Grocery Stores              0420459 Drug & Grocery Store Chains                      
20160729 92719W108 US92719W1080 VNCE     NYSE         VINCE HOLDING CORP            19123      95610.06  0.011369 03 Consumer Discretionary         0320 Consumer Products                                0320850 Textiles Apparel & Shoes                         
20160729 92765X208 US92765X2080 VA       NASDAQ       VIRGIN AMERICA INC             1051      58808.55  0.006993 08 Producer Durables              0840 Transportation & Freight                         0840310 Air Transport                                    
20160729 928254101 US9282541013 VIRT     NASDAQ       VIRTU FINL INC                 1593      27408.82  0.003259 10 Financial Services             1040 Investment Banking & Brokerage Services          1040823 Securities Brokerage & Services                  
20160729 92828Q109 US92828Q1094 VRTS     NASDAQ       VIRTUS INVESTMENT PTNRS        6183     521165.07  0.061974 10 Financial Services             1040 Investment Banking & Brokerage Services          1040544 Asset Management & Custodian                     
20160729 928298108 US9282981086 VSH      NYSE         VISHAY INTERTECHNOLOGY       134845    1797483.85  0.213747 01 Technology                     0120 Electronics                                      0120476 Semiconductors & Components                      
20160729 92835K103 US92835K1034 VPG      NYSE         VISHAY PRECISION GROUP        11956     157221.40  0.018696 08 Producer Durables              0830 Scientific Instruments & Services                0830474 Scientific Instruments: Gauges & Meters          
20160729 92849E101 US92849E1010 VSI      NYSE         VITAMIN SHOPPE INC            22376     654708.89  0.077854 03 Consumer Discretionary         0360 Retail                                           0360834 Specialty Retail                                 
20160729 92854Q106 US92854Q1067 VSLR     NYSE         VIVINT SOLAR INC              22459      67826.18  0.008066 06 Energy                         0630 Alternative Energy                               0630478 Alternative Energy                               
20160729 92857F107 US92857F1075 VCRA     NYSE         VOCERA COMMUNICATIONS          7530     111373.02  0.013244 01 Technology                     0140 Telecommunication                                0140849 Telecommunications Equipment                     
20160729 92886T201 US92886T2015 VG       NYSE         VONAGE HLDGS CORP            167692     994411.76  0.118250 11 Utilities                      1110 Utilities                                        1110880 Utilities: Telecommunications                    
20160729 92915B106 US92915B1061 VYGR     NASDAQ       VOYAGER THERAPEUTICS INC       6298      92820.30  0.011038 02 Health Care                    0230 Pharmaceuticals & Biotech                        0230412 Biotechnology                                    
20160729 92922P106 US92922P1066 WTI      NYSE         W&T OFFSHORE INC              35133      69914.67  0.008314 06 Energy                         0620 Non-Renewable Energy                             0620670 Oil: Crude Producers                             
20160729 92923C807 US92923C8073 WCIC     NYSE         WCI COMMUNITIES INC           21401     360178.83  0.042830 03 Consumer Discretionary         0320 Consumer Products                                0320501 Homebuilding                                     
20160729 92924F106 US92924F1066 WGL      NYSE         WGL HOLDINGS INC              47360    3352603.43  0.398672 11 Utilities                      1110 Utilities                                        1110875 Utilities: Gas Distributors                      
20160729 929328102 US9293281021 WSFS     NASDAQ       WSFS FINANCIAL CORP           28303     995982.57  0.118437 10 Financial Services             1010 Banks                                            1010820 Banks: Savings/Thrifts & Mortgage Lend           
20160729 92939N102 US92939N1028 WPG      NYSE         WP GLIMCHER INC              144172    1828095.00  0.217387 10 Financial Services             1060 Real Estate Investment Trusts                    1060908 Equity REIT: Retail                              
20160729 929566107 US9295661071 WNC      NYSE         WABASH NATIONAL CORP          46616     674987.21  0.080266 08 Producer Durables              0840 Transportation & Freight                         0840350 Commercial Vehicles & Parts                      
20160729 930059100 US9300591008 WDR      NYSE         WADDELL & REED FINANCIAL      70865    1293989.99  0.153874 10 Financial Services             1040 Investment Banking & Brokerage Services          1040544 Asset Management & Custodian                     
20160729 93148P102 US93148P1021 WD       NYSE         WALKER & DUNLOP INC           27201     643847.67  0.076563 10 Financial Services             1020 Consumer Finance & Credit Services               1020487 Commercial Finance & Mortgage Co                 
20160729 93317W102 US93317W1027 WAC      NYSE         WALTER INV MGMT CORP          18439      52919.93  0.006293 10 Financial Services             1020 Consumer Finance & Credit Services               1020487 Commercial Finance & Mortgage Co                 
20160729 938824109 US9388241096 WAFD     NASDAQ       WASHINGTON FED INC            89867    2246675.00  0.267162 10 Financial Services             1010 Banks                                            1010400 Banks: Diversified                               
20160729 939653101 US9396531017 WRE      NYSE         WASHINGTON REAL ESTATE        47471    1627766.53  0.193565 10 Financial Services             1060 Real Estate Investment Trusts                    1060912 Equity REIT: Office                              
20160729 940610108 US9406101082 WASH     NASDAQ       WASHINGTON TRUST BANCORP      14712     558467.52  0.066410 10 Financial Services             1010 Banks                                            1010400 Banks: Diversified                               
20160729 940730104 US9407301046 WFBI     NASDAQ       WASHINGTONFIRST BANK INC       7988     191712.00  0.022797 10 Financial Services             1010 Banks                                            1010400 Banks: Diversified                               
20160729 94188P101 US94188P1012 WSBF     NASDAQ       WATERSTONE FINANCIAL INC      25144     394257.92  0.046883 10 Financial Services             1010 Banks                                            1010820 Banks: Savings/Thrifts & Mortgage Lend           
20160729 942749102 US9427491025 WTS      NYSE         WATTS WATER TECH INC           1896     117309.16  0.013950 08 Producer Durables              0830 Scientific Instruments & Services                0830524 Scientific Instruments: Control & Filter         
20160729 947890109 US9478901096 WBS      NYSE         WEBSTER FINANCIAL CORP        90722    3262363.12  0.387942 10 Financial Services             1010 Banks                                            1010400 Banks: Diversified                               
20160729 948626106 US9486261061 WTW      NYSE         WEIGHT WATCHERS INTL INC       1864      22239.33  0.002645 03 Consumer Discretionary         0330 Consumer Services                                0330638 Consumer Services: Misc                          
20160729 948849104 US9488491047 WMK      NYSE         WEIS MARKETS INC               9474     489521.58  0.058211 04 Consumer Staples               0420 Personal Care/Drug & Grocery Stores              0420459 Drug & Grocery Store Chains                      
20160729 950755108 US9507551086 WERN     NASDAQ       WERNER ENTERPRISES INC        44157    1109223.84  0.131903 08 Producer Durables              0840 Transportation & Freight                         0840865 Truckers                                         
20160729 950810101 US9508101014 WSBC     NASDAQ       WESBANCO INC                  35002    1082261.84  0.128696 10 Financial Services             1010 Banks                                            1010400 Banks: Diversified                               
20160729 950814103 US9508141036 WAIR     NYSE         WESCO AIRCRAFT HLDGS INC      42786     549791.52  0.065378 08 Producer Durables              0840 Transportation & Freight                         0840300 Aerospace                                        
20160729 95123P106 US95123P1066 WTBA     NASDAQ       WEST BANCORPORATION INC       15682     297958.00  0.035431 10 Financial Services             1010 Banks                                            1010400 Banks: Diversified                               
20160729 952355204 US9523552043 WSTC     NASDAQ       WEST CORP                     36511     807240.74  0.095992 11 Utilities                      1110 Utilities                                        1110880 Utilities: Telecommunications                    
20160729 954235107 US9542351070 WMAR     NASDAQ       WEST MARINE INC               18211     159528.36  0.018970 03 Consumer Discretionary         0340 Leisure                                          0340556 Leisure Time                                     
20160729 957090103 US9570901036 WABC     NASDAQ       WESTAMERICA BANCORP           24396    1147587.84  0.136465 10 Financial Services             1010 Banks                                            1010400 Banks: Diversified                               
20160729 95790D105 US95790D1054 WMC      NYSE         WESTERN ASSET MTG CAP         40455     398077.20  0.047337 10 Financial Services             1060 Real Estate Investment Trusts                    1060932 Mortgage REIT: Diversified                       
20160729 959319104 US9593191045 WNR      NYSE         WESTERN REFINING INC          67131    1399681.35  0.166442 06 Energy                         0620 Non-Renewable Energy                             0620605 Oil: Refining & Marketing                        
20160729 96008P104 US96008P1049 WFD      NASDAQ       WESTFIELD FINANCIAL INC       14309     112610.57  0.013391 10 Financial Services             1010 Banks                                            1010820 Banks: Savings/Thrifts & Mortgage Lend           
20160729 960878106 US9608781061 WLB      NASDAQ       WESTMORELAND COAL CO          18198     173790.90  0.020666 06 Energy                         0620 Non-Renewable Energy                             0620435 Coal                                             
20160729 962149100 US9621491003 WEYS     NASDAQ       WEYCO GROUP INC                6064     169418.49  0.020146 03 Consumer Discretionary         0320 Consumer Products                                0320850 Textiles Apparel & Shoes                         
20160729 966084204 US9660842041 WSR      NYSE         WHITESTONE REIT               25864     418220.88  0.049732 10 Financial Services             1060 Real Estate Investment Trusts                    1060916 Equity REIT: Diversified                         
20160729 969203108 US9692031084 WG       NYSE         WILLBROS GROUP INC            42733      87602.65  0.010417 06 Energy                         0610 Energy Equipment & Services                      0610600 Oil Well Equipment & Services                    
20160729 969490101 US9694901011 CWEI     NYSE         WILLIAMS CLAYTON ENERGY        5892     222187.32  0.026421 06 Energy                         0620 Non-Renewable Energy                             0620670 Oil: Crude Producers                             
20160729 970646105 US9706461053 WLFC     NASDAQ       WILLIS LEASE FINANCE           4213     113751.00  0.013527 08 Producer Durables              0840 Transportation & Freight                         0840808 Commercial Services: Rental & Leasing            
20160729 97186T108 US97186T1088 WIBC     NASDAQ       WILSHIRE BANCORP INC          71051     763087.74  0.090742 10 Financial Services             1010 Banks                                            1010400 Banks: Diversified                               
20160729 97382A200 US97382A2006 WIN      NASDAQ       WINDSTREAM HOLDINGS INC       83696     779206.28  0.092659 11 Utilities                      1110 Utilities                                        1110880 Utilities: Telecommunications                    
20160729 97650W108 US97650W1080 WTFC     NASDAQ       WINTRUST FINANCIAL CORP       47875    2527800.00  0.300592 10 Financial Services             1010 Banks                                            1010400 Banks: Diversified                               
20160729 978097103 US9780971035 WWW      NYSE         WOLVERINE WORLD WIDE          80739    1977281.58  0.235127 03 Consumer Discretionary         0320 Consumer Products                                0320850 Textiles Apparel & Shoes                         
20160729 98138J206 US98138J2069 WKHS     NASDAQ       WORKHORSE GROUP INC             836       5496.75  0.000654 08 Producer Durables              0840 Transportation & Freight                         0840350 Commercial Vehicles & Parts                      
20160729 981419104 US9814191048 WRLD     NASDAQ       WORLD ACCEPTANCE CORP          5974     259630.04  0.030874 10 Financial Services             1020 Consumer Finance & Credit Services               1020492 Consumer Lending                                 
20160729 983793100 US9837931008 XPO      NYSE         XPO LOGISTICS INC             96794    2867038.28  0.340932 08 Producer Durables              0840 Transportation & Freight                         0840860 Transportation Miscellaneous                     
20160729 98400J108 US98400J1088 XCRA     NASDAQ       XCERRA CORPORATION            52295     318999.50  0.037934 01 Technology                     0120 Electronics                                      0120738 Production Technology Equipment                  
20160729 984017103 US9840171030 XHR      NYSE         XENIA HOTELS & RESORTS       102240    1836230.40  0.218354 10 Financial Services             1060 Real Estate Investment Trusts                    1060909 Equity REIT: Lodging and Resorts                 
20160729 984249607 US9842496070 YRCW     NASDAQ       YRC WORLDWIDE INC             25282     300093.66  0.035685 08 Producer Durables              0840 Transportation & Freight                         0840865 Truckers                                         
20160729 984305102 US9843051023 YDKN     NYSE         YADKIN FINANCIAL CORP         49308    1242068.52  0.147700 10 Financial Services             1010 Banks                                            1010400 Banks: Diversified                               
20160729 987184108 US9871841089 YORW     NASDAQ       YORK WATER COMPANY             1461      45961.51  0.005465 11 Utilities                      1110 Utilities                                        1110882 Utilities: Water                                 
20160729 98779U106 US98779U1060 YCB      NASDAQ       YOUR CMNTY BANKSHARES          4858     180766.18  0.021496 10 Financial Services             1010 Banks                                            1010400 Banks: Diversified                               
20160729 98884U108 US98884U1088 ZAGG     NASDAQ       ZAGG INC                      24063     152316.47  0.018113 03 Consumer Discretionary         0320 Consumer Products                                0320451 Consumer Electronics                             
20160729 98885E103 US98885E1038 ZFGN     NASDAQ       ZAFGEN INC                    22583      68652.32  0.008164 02 Health Care                    0230 Pharmaceuticals & Biotech                        0230412 Biotechnology                                    
20160729 98978L204 US98978L2043 ZGNX     NASDAQ       ZOGENIX INC                   24518     223849.34  0.026619 02 Health Care                    0230 Pharmaceuticals & Biotech                        0230460 Pharmaceuticals                                  
20160729 989817101 US9898171015 ZUMZ     NASDAQ       ZUMIEZ INC                    17821     302600.58  0.035984 03 Consumer Discretionary         0360 Retail                                           0360834 Specialty Retail                                 
20160729 G0129K104 BMG0129K1045 AYR      NYSE         AIRCASTLE LTD                 47182    1048384.04  0.124668 08 Producer Durables              0840 Transportation & Freight                         0840808 Commercial Services: Rental & Leasing            
20160729 G037AX101 KYG037AX1015 AMBA     NASDAQ       AMBARELLA INC                 18891    1095258.09  0.130242 01 Technology                     0120 Electronics                                      0120476 Semiconductors & Components                      
20160729 G0464B107 BMG0464B1072 AGII     NASDAQ       ARGO GROUP INTL               28491    1478397.99  0.175803 10 Financial Services             1030 Insurance                                        1030542 Insurance: Property-Casualty                     
20160729 G06207115 KYG062071157 AFH      NASDAQ       ATLAS FINANCIAL HOLDINGS       5272      90722.55  0.010788 10 Financial Services             1030 Insurance                                        1030542 Insurance: Property-Casualty                     
20160729 G0751N103 GB00BLP5YB54 ABY      NASDAQ       ATLANTICA YIELD PLC           58175    1172226.25  0.139394 11 Utilities                      1110 Utilities                                        1110870 Utilities: Electrical                            
20160729 G1154H107 BMG1154H1079 BEL      NYSE         BELMOND LTD                   82701     950234.49  0.112996 03 Consumer Discretionary         0340 Leisure                                          0340514 Hotel/Motel                                      
20160729 G1190F107 BMG1190F1077 BCRH     NYSE         BLUE CAPITAL REINSURANCE       5835     104154.75  0.012385 10 Financial Services             1030 Insurance                                        1030542 Insurance: Property-Casualty                     
20160729 G23773107 KYG237731073 CWCO     NASDAQ       CONSOLIDATED WATER CO         14367     192948.81  0.022944 11 Utilities                      1110 Utilities                                        1110882 Utilities: Water                                 
20160729 G3075P101 BMG3075P1014 ESGR     NASDAQ       ENSTAR GROUP LIMITED          11248    1873804.32  0.222822 10 Financial Services             1030 Insurance                                        1030542 Insurance: Property-Casualty                     
20160729 G33856108 GB00BYW6GV68 GSM      NASDAQ       FERROGLOBE PLC                64625     602305.00  0.071623 07 Materials & Processing         0740 Metals & Minerals                                0740635 Metals & Minerals: Diversified                   
20160729 G36738105 KYG367381053 FDP      NYSE         FRESH DEL MONTE PRODUCE       30100    1711169.42  0.203482 04 Consumer Staples               0410 Food/Beverage & Tobacco                          0410305 Agriculture Fishing & Ranching                   
20160729 G3682E192 BMG3682E1921 FRO      NYSE         FRONTLINE LTD                 64201     509755.94  0.060617 08 Producer Durables              0840 Transportation & Freight                         0840830 Shipping                                         
20160729 G37585109 BMG375851091 GLOG     NYSE         GASLOG LTD                    40427     540508.99  0.064274 08 Producer Durables              0840 Transportation & Freight                         0840830 Shipping                                         
20160729 G3788M114 IM00B86NL059 EROS     NYSE         EROS INTL PLC                 29235     508981.35  0.060525 03 Consumer Discretionary         0350 Media                                            0350480 Entertainment                                    
20160729 G39300101 BMG393001018 GSOL     NASDAQ       GLOBAL SOURCES LTD             8108      72809.84  0.008658 08 Producer Durables              0850 Commercial Services                              0850546 International Trade & Diversified Logistics      
20160729 G39319101 IE00B5NH3H04 GBLI     NASDAQ       GLOBAL INDEMNITY PLC           8291     248978.73  0.029607 10 Financial Services             1030 Insurance                                        1030542 Insurance: Property-Casualty                     
20160729 G4095J109 KYG4095J1094 GLRE     NASDAQ       GREENLIGHT CAPITAL RE LT      29035     598992.05  0.071229 10 Financial Services             1030 Insurance                                        1030542 Insurance: Property-Casualty                     
20160729 G5005R107 BMG5005R1079 JRVR     NASDAQ       JAMES RIVER GROUP HLDG        14101     474639.66  0.056441 10 Financial Services             1030 Insurance                                        1030535 Insurance: Multi-Line                            
20160729 G5753U112 BMG5753U1128 MHLD     NASDAQ       MAIDEN HOLDINGS LTD           50829     710067.30  0.084437 10 Financial Services             1030 Insurance                                        1030535 Insurance: Multi-Line                            
20160729 G6331P104 BMG6331P1041 AOSL     NASDAQ       ALPHA & OMEGA SEMICON         17950     256505.50  0.030502 01 Technology                     0120 Electronics                                      0120476 Semiconductors & Components                      
20160729 G65773106 BMG657731060 NAT      NYSE         NORDIC AMERICAN TANKER        85811    1055475.30  0.125511 08 Producer Durables              0840 Transportation & Freight                         0840830 Shipping                                         
20160729 G67506108 GB00BQVC8B38 OMAM     NYSE         OM ASSET MANAGEMENT           12608     176517.35  0.020990 10 Financial Services             1040 Investment Banking & Brokerage Services          1040544 Asset Management & Custodian                     
20160729 G67742109 BMG677421098 OB       NYSE         ONEBEACON INSURANCE GRP       19707     276095.07  0.032832 10 Financial Services             1030 Insurance                                        1030542 Insurance: Property-Casualty                     
20160729 G7945E105 BMG7945E1057 SDRL     NYSE         SEADRILL LIMITED             373662    1109776.14  0.131968 06 Energy                         0610 Energy Equipment & Services                      0610600 Oil Well Equipment & Services                    
20160729 G81075106 BMG810751062 SFL      NYSE         SHIP FINANCE INTL             59231     894388.10  0.106356 08 Producer Durables              0840 Transportation & Freight                         0840830 Shipping                                         
20160729 G8766E109 BMG8766E1093 TGH      NYSE         TEXTAINER GROUP HLDGS         22412     266254.56  0.031661 08 Producer Durables              0840 Transportation & Freight                         0840860 Transportation Miscellaneous                     
20160729 G8827U100 BMG8827U1009 TPRE     NYSE         THIRD POINT REINSURANCE       60471     761324.58  0.090532 10 Financial Services             1030 Insurance                                        1030535 Insurance: Multi-Line                            
20160729 G9019D104 BMG9019D1048 TVPT     NYSE         TRAVELPORT WORLDWIDE LTD      29239     394434.65  0.046904 03 Consumer Discretionary         0340 Leisure                                          0340556 Leisure Time                                     
20160729 G9078F107 BMG9078F1077 TRTN     NYSE         TRITON INTERNATIONAL LTD      32381     543676.62  0.064651 08 Producer Durables              0840 Transportation & Freight                         0840808 Commercial Services: Rental & Leasing            
20160729 G9456A100 BMG9456A1009 GLNG     NASDAQ       GOLAR LNG LTD BERMUDA         87904    1490851.84  0.177284 06 Energy                         0610 Energy Equipment & Services                      0610600 Oil Well Equipment & Services                    
20160729 G97223104 KYG972231040 WINS     NASDAQ       WINS FINANCE HOLDINGS          1393      28417.20  0.003379 10 Financial Services             1040 Investment Banking & Brokerage Services          1040544 Asset Management & Custodian                     
20160729 L5140P101 LU0914713705 I        NYSE         INTELSAT SA                   28799      66237.70  0.007877 11 Utilities                      1110 Utilities                                        1110880 Utilities: Telecommunications                    
20160729 M84116108 IL0010826928 SILC     NASDAQ       SILICOM LTD                    4087     148168.22  0.017619 01 Technology                     0140 Telecommunication                                0140448 Communications Technology                        
20160729 M85548101 IL0011267213 SSYS     NASDAQ       STRATASYS LTD                 25597     535999.34  0.063738 01 Technology                     0130 Information Technology                           0130449 Computer Technology                              
20160729 N96617118 NL0011327523 WMGI     NASDAQ       WRIGHT MEDICAL GROUP N V     101958    2235938.94  0.265885 02 Health Care                    0220 Medical Equipment & Services                     0220507 Medical & Dental Instruments & Supplies          
20160729 P16994132 PAP169941328 BLX      NYSE         BANCO LATINOAMERICANO         29909     817113.88  0.097167 10 Financial Services             1010 Banks                                            1010400 Banks: Diversified                               
20160729 Q9235V101 AU000XINEOA7 TROX     NYSE         TRONOX LTD                    63725     413575.25  0.049180 07 Materials & Processing         0720 Chemicals and Synthetics                         0720833 Chemicals: Specialty                             
20160729 Y0207T100 MHY0207T1001 ASC      NYSE         ARDMORE SHIPPING CORP         21564     151594.92  0.018027 08 Producer Durables              0840 Transportation & Freight                         0840830 Shipping                                         
20160729 Y1771G102 MHY1771G1026 CMRE     NYSE         COSTAMARE INC                 26149     255998.71  0.030442 08 Producer Durables              0840 Transportation & Freight                         0840830 Shipping                                         
20160729 Y2065G121 MHY2065G1219 DHT      NYSE         DHT HOLDINGS INC              90708     422699.28  0.050265 08 Producer Durables              0840 Transportation & Freight                         0840830 Shipping                                         
20160729 Y2106R110 MHY2106R1100 LPG      NYSE         DORIAN LPG LTD                23945     147740.65  0.017568 08 Producer Durables              0840 Transportation & Freight                         0840830 Shipping                                         
20160729 Y26889108 MHY268891089 GNRT     NYSE         GENER8 MARITIME INC           38792     206373.44  0.024541 08 Producer Durables              0840 Transportation & Freight                         0840830 Shipping                                         
20160729 Y62159101 MHY621591012 NNA      NYSE         NAVIOS MARITIME ACQUIS        79712     121959.36  0.014503 08 Producer Durables              0840 Transportation & Freight                         0840830 Shipping                                         
20160729 Y7542C106 MHY7542C1066 STNG     NYSE         SCORPIO TANKERS INC          161548     768968.48  0.091441 08 Producer Durables              0840 Transportation & Freight                         0840830 Shipping                                         
20160729 Y7546A122 MHY7546A1221 SALT     NYSE         SCORPIO BULKERS INC           37729     124128.41  0.014761 08 Producer Durables              0840 Transportation & Freight                         0840830 Shipping                                         
20160729 Y8564W103 MHY8564W1030 TK       NYSE         TEEKAY CORP                   43421     269210.20  0.032013 08 Producer Durables              0840 Transportation & Freight                         0840830 Shipping                                         
20160729 Y8565N102 MHY8565N1022 TNK      NYSE         TEEKAY TANKERS LTD           115131     339636.45  0.040388 08 Producer Durables              0840 Transportation & Freight                         0840830 Shipping                                         
20160729 Y95308105 SG9999014716 WVE      NASDAQ       WAVE LIFE SCIENCES LTD         1381      26671.20  0.003172 02 Health Care                    0230 Pharmaceuticals & Biotech                        0230412 Biotechnology                                    
