Date     Cusip     ISIN         Ticker   Exchange     Name                         Shares     Mkt Value    Weight ES Economic Sector                SubS SubSector                                        IND     Industry                                         
-------- --------- ------------ -------  ------------ ------------------------- --------- ------------- --------- -- ------------------------------ ---- ------------------------------------------------ ------- ------------------------------------------------ 
20120629 000361105 US0003611052 AIR      NYSE         AAR CORP                      40288     543082.24  0.094484 08 Producer Durables              0840 Transportation & Freight                         0840300 Aerospace                                        
20120629 00081T108 US00081T1088 ACCO     NYSE         ACCO BRANDS CORP              61124     632020.12  0.109957 08 Producer Durables              0820 Manufacturing & Production                       0820650 Office Supplies Equipment                        
20120629 000957100 US0009571003 ABM      NYSE         ABM INDUSTRIES INC            53731    1050978.36  0.182846 08 Producer Durables              0850 Commercial Services                              0850484 Environmental Maint & Security Service           
20120629 001228105 US0012281053 MITT     NYSE         AG MORTGAGE INVT TR INC       15806     339670.94  0.059095 10 Financial Services             1050 Real Estate                                      1050806 Real Estate Investment Trusts (REITs)            
20120629 001547108 US0015471081 AKS      NYSE         AK STEEL HOLDING CORP         92431     542568.02  0.094394 07 Materials & Processing         0740 Metals & Minerals                                0740835 Steel                                            
20120629 00163U106 US00163U1060 AMAG     NASDAQ       AMAG PHARMACEUTICALS INC       4399      67756.12  0.011788 02 Health Care                    0230 Pharmaceuticals & Biotech                        0230412 Biotechnology                                    
20120629 001744101 US0017441017 AHS      NYSE         AMN HEALTHCARE SERVICES       18330     108699.42  0.018911 02 Health Care                    0210 Health Care Services                             0210499 Health Care Services                             
20120629 00187E203 US00187E2037 ATNY     NASDAQ       API TECHNOLOGIES CORP         32338     119003.84  0.020704 08 Producer Durables              0840 Transportation & Freight                         0840300 Aerospace                                        
20120629 00207R101 US00207R1014 ATMI     NASDAQ       ATMI INC                      29911     615267.50  0.107042 01 Technology                     0120 Electronics                                      0120738 Production Technology Equipment                  
20120629 00208J108 US00208J1088 ATPG     NASDAQ       ATP OIL & GAS CORP            41029     138675.72  0.024126 06 Energy                         0620 Non-Renewable Energy                             0620670 Oil: Crude Producers                             
20120629 00234P102 US00234P1021 AVHI     NASDAQ       A V HOMES INC                  9868     143875.44  0.025031 10 Financial Services             1050 Real Estate                                      1050805 Real Estate                                      
20120629 00246W103 US00246W1036 AXTI     NASDAQ       AXT INC                       32322     127671.90  0.022212 01 Technology                     0120 Electronics                                      0120476 Semiconductors & Components                      
20120629 00430U103 US00430U1034 ACCL     NASDAQ       ACCELRYS INC                  55515     449116.35  0.078136 02 Health Care                    0230 Pharmaceuticals & Biotech                        0230412 Biotechnology                                    
20120629 004337101 US0043371014 ANCX     NASDAQ       ACCESS NATL CORP               7388      96782.80  0.016838 10 Financial Services             1010 Banks                                            1010400 Banks: Diversified                               
20120629 00439T206 US00439T2069 ACW      NYSE         ACCURIDE CORP NEW             47326     283956.00  0.049402 08 Producer Durables              0840 Transportation & Freight                         0840350 Commercial Vehicles & Parts                      
20120629 004446100 US0044461004 ACET     NASDAQ       ACETO CORP                    20571     185748.66  0.032316 07 Materials & Processing         0720 Chemicals and Synthetics                         0720433 Chemicals: Diversified                           
20120629 00508B102 US00508B1026 BIRT     NASDAQ       ACTUATE CORP                   3154      21857.55  0.003803 01 Technology                     0130 Information Technology                           0130439 Computer Services Software & Systems             
20120629 00508X203 US00508X2036 ATU      NYSE         ACTUANT CORP                  55127    1497226.78  0.260483 08 Producer Durables              0810 Machinery                                        0810584 Machinery: Industrial                            
20120629 005125109 US0051251090 ACXM     NASDAQ       ACXIOM CORP                   76805    1160523.55  0.201904 01 Technology                     0130 Information Technology                           0130439 Computer Services Software & Systems             
20120629 006351308 US0063513081 AE       NYSE MKT     ADAMS RESOURCES & ENERGY       2104      88199.68  0.015345 06 Energy                         0620 Non-Renewable Energy                             0620605 Oil: Refining & Marketing                        
20120629 00770F104 US00770F1049 AEGN     NASDAQ       AEGION CORP                   33724     603313.08  0.104962 08 Producer Durables              0820 Manufacturing & Production                       0820443 Construction                                     
20120629 007767106 US0077671065 ARX      NYSE         AEROFLEX HLDG CORP            19769     119602.45  0.020808 01 Technology                     0120 Electronics                                      0120476 Semiconductors & Components                      
20120629 007973100 US0079731008 AEIS     NASDAQ       ADVANCED ENERGY INDS INC      39732     533203.44  0.092765 08 Producer Durables              0820 Manufacturing & Production                       0820734 Power Transmission Equip                         
20120629 008073108 US0080731088 AVAV     NASDAQ       AEROVIRONMENT INC              6932     182380.92  0.031730 08 Producer Durables              0840 Transportation & Freight                         0840300 Aerospace                                        
20120629 00826T108 US00826T1088 AFFX     NASDAQ       AFFYMETRIX INC                70627     331240.63  0.057628 02 Health Care                    0220 Medical Equipment & Services                     0220471 Medical Equipment                                
20120629 00847G705 US00847G7051 AGEN     NASDAQ       AGENUS INC                     8908      46682.82  0.008122 02 Health Care                    0230 Pharmaceuticals & Biotech                        0230412 Biotechnology                                    
20120629 00847J105 US00847J1051 AGYS     NASDAQ       AGILYSYS INC                  14621     126764.07  0.022054 01 Technology                     0120 Electronics                                      0120475 Electronics                                      
20120629 008492100 US0084921008 ADC      NYSE         AGREE REALTY CORP             11436     253078.68  0.044030 10 Financial Services             1050 Real Estate                                      1050806 Real Estate Investment Trusts (REITs)            
20120629 00922R105 US00922R1059 ATSG     NASDAQ       AIR TRANSPORT SERVICES        53147     276364.40  0.048081 08 Producer Durables              0840 Transportation & Freight                         0840310 Air Transport                                    
20120629 011311107 US0113111076 ALG      NYSE         ALAMO GROUP INC                6926     217268.62  0.037800 08 Producer Durables              0810 Machinery                                        0810570 Machinery: Agricultural                          
20120629 011659109 US0116591092 ALK      NYSE         ALASKA AIR GROUP INC           3768     135278.16  0.023535 08 Producer Durables              0840 Transportation & Freight                         0840310 Air Transport                                    
20120629 012348108 US0123481089 AIN      NYSE         ALBANY INTERNATIONAL          27612     516620.52  0.089880 08 Producer Durables              0810 Machinery                                        0810610 Machinery: Specialty                             
20120629 016230104 US0162301040 ALCO     NASDAQ       ALICO INC                      1964      59956.37  0.010431 04 Consumer Staples               0410 Food/Beverage & Tobacco                          0410305 Agriculture Fishing & Ranching                   
20120629 018522300 US0185223007 ALE      NYSE         ALLETE INC                    38142    1594335.60  0.277377 11 Utilities                      1110 Utilities                                        1110870 Utilities: Electrical                            
20120629 018772103 US0187721032 AOI      NYSE         ALLIANCE ONE INTL INC         87373     302310.58  0.052595 04 Consumer Staples               0410 Food/Beverage & Tobacco                          0410856 Tobacco                                          
20120629 019205103 US0192051037 ALNC     NASDAQ       ALLIANCE FINANCIAL CORP        4785     164316.90  0.028587 10 Financial Services             1010 Banks                                            1010400 Banks: Diversified                               
20120629 020409108 US0204091088 AFAM     NASDAQ       ALMOST FAMILY INC              8248     184260.32  0.032057 02 Health Care                    0210 Health Care Services                             0210499 Health Care Services                             
20120629 020520102 US0205201025 ALJ      NYSE         ALON USA ENERGY INC            1798      15214.34  0.002647 06 Energy                         0620 Non-Renewable Energy                             0620605 Oil: Refining & Marketing                        
20120629 02081G102 US02081G1022 ATEC     NASDAQ       ALPHATEC HOLDINGS             54666     100585.44  0.017500 02 Health Care                    0220 Medical Equipment & Services                     0220507 Medical & Dental Instruments & Supplies          
20120629 02208R106 US02208R1068 AIMC     NASDAQ       ALTRA HOLDINGS INC            12202     192547.69  0.033499 08 Producer Durables              0810 Machinery                                        0810584 Machinery: Industrial                            
20120629 02341W103 US02341W1036 ACO      NYSE         AMCOL INTERNATIONAL CORP       1463      41420.59  0.007206 07 Materials & Processing         0740 Metals & Minerals                                0740635 Metals & Minerals: Diversified                   
20120629 023436108 US0234361089 AMED     NASDAQ       AMEDISYS INC                  30127     375081.15  0.065255 02 Health Care                    0210 Health Care Services                             0210499 Health Care Services                             
20120629 023586100 US0235861004 UHAL     NASDAQ       AMERCO                         8666     779680.02  0.135646 03 Consumer Discretionary         0330 Consumer Services                                0330809 Rental & Leasing Services: Consumer              
20120629 02361E108 US02361E1082 AMRC     NYSE         AMERESCO INC                   4816      57464.50  0.009997 06 Energy                         0630 Alternative Energy                               0630478 Alternative Energy                               
20120629 024013104 US0240131047 AAT      NYSE         AMERICAN ASSETS TRST INC      33051     801486.75  0.139440 10 Financial Services             1050 Real Estate                                      1050806 Real Estate Investment Trusts (REITs)            
20120629 024061103 US0240611030 AXL      NYSE         AMERICAN AXLE & MFG           66682     699494.18  0.121696 03 Consumer Discretionary         0310 Auto & Auto Parts                                0310340 Auto Parts                                       
20120629 02504A104 US02504A1043 MTGE     NASDAQ       AMERICAN CAP MTG INVT         36262     865936.56  0.150653 10 Financial Services             1050 Real Estate                                      1050806 Real Estate Investment Trusts (REITs)            
20120629 025398108 US0253981080 ADGE     NYSE MKT     AMERICAN DG ENERGY INC         2361       5361.63  0.000933 11 Utilities                      1110 Utilities                                        1110870 Utilities: Electrical                            
20120629 025676206 US0256762065 AEL      NYSE         AMERICAN EQUITY INVST         59924     659763.24  0.114784 10 Financial Services             1030 Insurance                                        1030528 Insurance: Life                                  
20120629 026375105 US0263751051 AM       NYSE         AMERICAN GREETINGS            32713     478253.36  0.083205 03 Consumer Discretionary         0320 Consumer Products                                0320521 Household Equip & Products                       
20120629 027745108 US0277451086 AMNB     NASDAQ       AMERICAN NATL BANKSHARES       7830     184474.80  0.032094 10 Financial Services             1010 Banks                                            1010400 Banks: Diversified                               
20120629 02916P103 US02916P1030 ARII     NASDAQ       AMERICAN RAILCAR IND           9458     256311.80  0.044592 08 Producer Durables              0840 Transportation & Freight                         0840770 Railroad Equipment                               
20120629 02917L101 US02917L1017 ARCT     NASDAQ       AMERICAN RLTY CAP TR INC     158475    1730547.00  0.301075 10 Financial Services             1050 Real Estate                                      1050806 Real Estate Investment Trusts (REITs)            
20120629 029263100 US0292631001 ARC      NYSE         AMERICAN REPROGRAPHICS        30213     151970.34  0.026439 01 Technology                     0130 Information Technology                           0130439 Computer Services Software & Systems             
20120629 029429107 US0294291077 ASEI     NASDAQ       AMERICAN SCIENCE & ENGR        7250     409235.46  0.071197 01 Technology                     0120 Electronics                                      0120475 Electronics                                      
20120629 029899101 US0298991011 AWR      NYSE         AMERICAN STATES WATER CO      16879     668063.10  0.116227 11 Utilities                      1110 Utilities                                        1110882 Utilities: Water                                 
20120629 030111108 US0301111086 AMSC     NASDAQ       AMERICAN SUPERCONDUCTOR       35101     164970.59  0.028701 08 Producer Durables              0830 Scientific Instruments & Services                0830465 Scientific Instruments: Electrical               
20120629 030506109 US0305061097 AMWD     NASDAQ       AMERICAN WOODMARK CORP         8100     138504.00  0.024096 03 Consumer Discretionary         0320 Consumer Products                                0320523 Household Furnishings                            
20120629 03070Q101 US03070Q1013 ASCA     NASDAQ       AMERISTAR CASINOS INC          4285      76159.38  0.013250 03 Consumer Discretionary         0340 Leisure                                          0340434 Casinos & Gambling                               
20120629 03071H100 US03071H1005 AMSF     NASDAQ       AMERISAFE INC                 18150     470992.50  0.081942 10 Financial Services             1030 Insurance                                        1030542 Insurance: Property-Casualty                     
20120629 03076K108 US03076K1088 ABCB     NASDAQ       AMERIS BANCORP                23814     300056.40  0.052203 10 Financial Services             1010 Banks                                            1010400 Banks: Diversified                               
20120629 031001100 US0310011004 ATLO     NASDAQ       AMES NATL CORP                 8212     188793.88  0.032846 10 Financial Services             1010 Banks                                            1010400 Banks: Diversified                               
20120629 031652100 US0316521006 AMKR     NASDAQ       AMKOR TECHNOLOGY INC          79768     389267.84  0.067724 01 Technology                     0120 Electronics                                      0120476 Semiconductors & Components                      
20120629 032037103 US0320371034 AP       NYSE         AMPCO-PITTSBURGH CORP          8512     156024.96  0.027145 07 Materials & Processing         0740 Metals & Minerals                                0740630 Metal Fabricating                                
20120629 03232P405 US03232P4054 AMSG     NASDAQ       AMSURG CORP                   21260     637356.57  0.110885 02 Health Care                    0210 Health Care Services                             0210504 Health Care Facilities                           
20120629 032359309 US0323593097 AFSI     NASDAQ       AMTRUST FINL SVCS             20687     614609.58  0.106928 10 Financial Services             1030 Insurance                                        1030542 Insurance: Property-Casualty                     
20120629 03236M101 US03236M1018 AMRS     NASDAQ       AMYRIS INC                    30246     133989.78  0.023311 06 Energy                         0630 Alternative Energy                               0630478 Alternative Energy                               
20120629 032515108 US0325151084 ANAD     NASDAQ       ANADIGICS INC                 70447     127509.07  0.022184 01 Technology                     0120 Electronics                                      0120476 Semiconductors & Components                      
20120629 032744104 US0327441046 ANEN     NASDAQ       ANAREN INC                    12889     252607.52  0.043948 01 Technology                     0140 Telecommunication                                0140448 Communications Technology                        
20120629 034164103 US0341641035 ANDE     NASDAQ       ANDERSONS INC                 18600     793476.00  0.138046 04 Consumer Staples               0410 Food/Beverage & Tobacco                          0410305 Agriculture Fishing & Ranching                   
20120629 03475V101 US03475V1017 ANGO     NASDAQ       ANGIODYNAMICS INC             24549     294833.49  0.051294 02 Health Care                    0220 Medical Equipment & Services                     0220507 Medical & Dental Instruments & Supplies          
20120629 035290105 US0352901054 AXE      NYSE         ANIXTER INTERNATIONAL         11000     583568.04  0.101527 01 Technology                     0140 Telecommunication                                0140448 Communications Technology                        
20120629 03600T104 US03600T1043 BNNY     NYSE         ANNIES INC                     1477      61866.07  0.010763 04 Consumer Staples               0410 Food/Beverage & Tobacco                          0410494 Foods                                            
20120629 037347101 US0373471012 ANH      NYSE         ANWORTH MORTGAGE ASSET       137191     967196.55  0.168270 10 Financial Services             1050 Real Estate                                      1050806 Real Estate Investment Trusts (REITs)            
20120629 03739T108 US03739T1088 AONE     NASDAQ       A123 SYSTEMS INC             107063     134899.38  0.023469 08 Producer Durables              0830 Scientific Instruments & Services                0830465 Scientific Instruments: Electrical               
20120629 037598109 US0375981091 APOG     NASDAQ       APOGEE ENTERPRISES INC        28284     454523.88  0.079077 07 Materials & Processing         0730 Industrial Materials & Processes                 0730502 Glass                                            
20120629 03761U106 US03761U1060 AINV     NASDAQ       APOLLO INVESTMENT CORP       202891    1558202.88  0.271091 10 Financial Services             1040 Investment Banking & Brokerage Services          1040544 Asset Management & Custodian                     
20120629 03762U105 US03762U1051 ARI      NYSE         APOLLO COMMERCIAL RE          17464     280646.48  0.048826 10 Financial Services             1050 Real Estate                                      1050806 Real Estate Investment Trusts (REITs)            
20120629 03763V102 US03763V1026 AMTG     NYSE         APOLLO RESIDENTIAL MTG        21814     420555.91  0.073167 10 Financial Services             1020 Consumer Finance & Credit Services               1020487 Commercial Finance & Mortgage Co                 
20120629 03820C105 US03820C1053 AIT      NYSE         APPLIED INDUSTRIAL TECH        3333     122841.80  0.021372 08 Producer Durables              0810 Machinery                                        0810584 Machinery: Industrial                            
20120629 03822W406 US03822W4069 AMCC     NASDAQ       APPLIED MICRO CIRCUITS        62085     355126.20  0.061784 01 Technology                     0120 Electronics                                      0120476 Semiconductors & Components                      
20120629 039380100 US0393801008 ACI      NYSE         ARCH COAL INC                212248    1462388.72  0.254422 06 Energy                         0620 Non-Renewable Energy                             0620435 Coal                                             
20120629 039762109 US0397621097 ARDNA    NASDAQ       ARDEN GROUP INC                 378      33004.71  0.005742 04 Consumer Staples               0420 Personal Care/Drug & Grocery Stores              0420459 Drug & Grocery Store Chains                      
20120629 040047102 US0400471027 ARNA     NASDAQ       ARENA PHARMACEUTICALS         22672     226270.20  0.039366 02 Health Care                    0230 Pharmaceuticals & Biotech                        0230412 Biotechnology                                    
20120629 04010E109 US04010E1091 AGX      NYSE MKT     ARGAN INC                      7701     107650.95  0.018729 08 Producer Durables              0850 Commercial Services                              0850479 Engineering & Contracting Services               
20120629 04013V108 US04013V1089 ACRE     NYSE         ARES COML REAL ESTATE          7701     134613.48  0.023420 10 Financial Services             1050 Real Estate                                      1050806 Real Estate Investment Trusts (REITs)            
20120629 040790107 US0407901075 ABFS     NASDAQ       ARKANSAS BEST CORP            25463     320833.80  0.055818 08 Producer Durables              0840 Transportation & Freight                         0840865 Truckers                                         
20120629 041356205 US0413562051 AI       NYSE         ARLINGTON ASSET INVT           8384     182016.64  0.031667 10 Financial Services             1040 Investment Banking & Brokerage Services          1040544 Asset Management & Custodian                     
20120629 042315101 US0423151010 ARR      NYSE         ARMOUR RESIDENTIAL REIT      177675    1263269.25  0.219780 10 Financial Services             1050 Real Estate                                      1050806 Real Estate Investment Trusts (REITs)            
20120629 04269Q100 US04269Q1004 ARRS     NASDAQ       ARRIS GROUP INC               98233    1366415.87  0.237725 01 Technology                     0140 Telecommunication                                0140849 Telecommunications Equipment                     
20120629 042744102 US0427441029 AROW     NASDAQ       ARROW FINANCIAL CORP           9540     230578.37  0.040115 10 Financial Services             1010 Banks                                            1010400 Banks: Diversified                               
20120629 043113208 US0431132085 ARTNA    NASDAQ       ARTESIAN RESOURCES CORP        7467     160839.18  0.027982 11 Utilities                      1110 Utilities                                        1110882 Utilities: Water                                 
20120629 043136100 US0431361007 ARTC     NASDAQ       ARTHROCARE CORP                4784     140099.94  0.024374 02 Health Care                    0220 Medical Equipment & Services                     0220471 Medical Equipment                                
20120629 04315B107 US04315B1070 ART      NYSE         ARTIO GLOBAL INVESTORS        30868     108038.00  0.018796 10 Financial Services             1040 Investment Banking & Brokerage Services          1040544 Asset Management & Custodian                     
20120629 043436104 US0434361046 ABG      NYSE         ASBURY AUTOMOTIVE GROUP        3173      75175.57  0.013079 03 Consumer Discretionary         0360 Retail                                           0360834 Specialty Retail                                 
20120629 043632108 US0436321089 ASCMA    NASDAQ       ASCENT CAPITAL GROUP INC      14206     735160.50  0.127901 08 Producer Durables              0830 Scientific Instruments & Services                0830524 Scientific Instruments: Control & Filter         
20120629 044103109 US0441031095 AHT      NYSE         ASHFORD HOSPITALITY           53357     449799.51  0.078255 10 Financial Services             1050 Real Estate                                      1050806 Real Estate Investment Trusts (REITs)            
20120629 045327103 US0453271035 AZPN     NASDAQ       ASPEN TECHNOLOGY INC           5240     121309.33  0.021105 01 Technology                     0130 Information Technology                           0130439 Computer Services Software & Systems             
20120629 04543P100 US04543P1003 AACC     NASDAQ       ASSET ACCEPTANCE CAPITAL      15850     107780.00  0.018751 10 Financial Services             1020 Consumer Finance & Credit Services               1020492 Consumer Lending                                 
20120629 04544X300 US04544X3008 ALC      NYSE         ASSISTED LIVING CONCPT        19363     275341.86  0.047903 02 Health Care                    0210 Health Care Services                             0210504 Health Care Facilities                           
20120629 045604105 US0456041054 AEC      NYSE         ASSOCIATED ESTATES RLTY       23871     356870.70  0.062087 10 Financial Services             1050 Real Estate                                      1050806 Real Estate Investment Trusts (REITs)            
20120629 046220109 US0462201098 ASFI     NASDAQ       ASTA FDG INC                  11070     103725.90  0.018046 10 Financial Services             1020 Consumer Finance & Credit Services               1020487 Commercial Finance & Mortgage Co                 
20120629 046224101 US0462241011 ASTE     NASDAQ       ASTEC INDUSTRIES INC          20070     615747.60  0.107126 08 Producer Durables              0810 Machinery                                        0810577 Machinery: Construction & Handling               
20120629 04624B103 US04624B1035 ASTX     NASDAQ       ASTEX PHARMACEUTICALS         93112     194604.08  0.033857 02 Health Care                    0230 Pharmaceuticals & Biotech                        0230460 Pharmaceuticals                                  
20120629 046265104 US0462651045 AF       NYSE         ASTORIA FINANCIAL CORP        87126     853834.80  0.148547 10 Financial Services             1010 Banks                                            1010820 Banks: Savings/Thrifts & Mortgage Lend           
20120629 04878Q863 CA04878Q8636 AT       NYSE         ATLANTIC PWR CORP            103905    1331015.80  0.231566 11 Utilities                      1110 Utilities                                        1110870 Utilities: Electrical                            
20120629 049164205 US0491642056 AAWW     NASDAQ       ATLAS AIR WORLDWIDE HLDG      26422    1149621.22  0.200007 08 Producer Durables              0840 Transportation & Freight                         0840310 Air Transport                                    
20120629 05070J102 US05070J1025 ADNC     NASDAQ       AUDIENCE INC                   5026      96894.53  0.016857 01 Technology                     0120 Electronics                                      0120476 Semiconductors & Components                      
20120629 052660107 US0526601077 AUTH     NASDAQ       AUTHENTEC INC                  3872      16767.74  0.002917 01 Technology                     0120 Electronics                                      0120476 Semiconductors & Components                      
20120629 05348P401 US05348P4019 AVNR     NASDAQ       AVANIR PHARMACEUTICALS        10854      42550.82  0.007403 02 Health Care                    0230 Pharmaceuticals & Biotech                        0230460 Pharmaceuticals                                  
20120629 053588109 US0535881090 AVEO     NASDAQ       AVEO PHARMACEUTICALS INC       2995      36431.27  0.006338 02 Health Care                    0230 Pharmaceuticals & Biotech                        0230412 Biotechnology                                    
20120629 05366Y102 US05366Y1029 AVNW     NASDAQ       AVIAT NETWORKS INC            61272     171561.60  0.029848 01 Technology                     0140 Telecommunication                                0140448 Communications Technology                        
20120629 05367P100 US05367P1003 AVID     NASDAQ       AVID TECHNOLOGY INC           29856     221830.08  0.038593 01 Technology                     0130 Information Technology                           0130439 Computer Services Software & Systems             
20120629 05379B107 US05379B1070 AVA      NYSE         AVISTA CORP                   58675    1566622.50  0.272556 11 Utilities                      1110 Utilities                                        1110870 Utilities: Electrical                            
20120629 05453N100 US05453N1000 AWRE     NASDAQ       AWARE INC                      1502       9694.11  0.001687 01 Technology                     0130 Information Technology                           0130439 Computer Services Software & Systems             
20120629 054540109 US0545401095 ACLS     NASDAQ       AXCELIS TECHNOLOGIES INC     107618     129141.60  0.022468 01 Technology                     0120 Electronics                                      0120738 Production Technology Equipment                  
20120629 055639108 US0556391086 BPZ      NYSE         BPZ RESOURCES INC             73206     185211.18  0.032222 06 Energy                         0620 Non-Renewable Energy                             0620670 Oil: Crude Producers                             
20120629 05566U108 US05566U1088 BOFI     NASDAQ       BOFI HLDG INC                  9297     183699.20  0.031959 10 Financial Services             1010 Banks                                            1010820 Banks: Savings/Thrifts & Mortgage Lend           
20120629 05573H108 US05573H1086 BLMT     NASDAQ       BSB BANCORP INC MD             8200     104550.00  0.018189 10 Financial Services             1010 Banks                                            1010820 Banks: Savings/Thrifts & Mortgage Lend           
20120629 057149106 US0571491069 BKR      NYSE MKT     BAKER MICHAEL CORP             8653     225756.77  0.039276 08 Producer Durables              0850 Commercial Services                              0850479 Engineering & Contracting Services               
20120629 057755209 US0577552096 BWINB    NASDAQ       BALDWIN & LYONS INC            9117     211879.08  0.036862 10 Financial Services             1030 Insurance                                        1030542 Insurance: Property-Casualty                     
20120629 05945F103 US05945F1030 BANF     NASDAQ       BANCFIRST CORP                 6427     269355.57  0.046862 10 Financial Services             1010 Banks                                            1010400 Banks: Diversified                               
20120629 059692103 US0596921033 BXS      NYSE         BANCORPSOUTH INC              94436    1371210.72  0.238559 10 Financial Services             1010 Banks                                            1010400 Banks: Diversified                               
20120629 05969A105 US05969A1051 TBBK     NASDAQ       BANCORP INC                   28930     273388.50  0.047563 10 Financial Services             1010 Banks                                            1010400 Banks: Diversified                               
20120629 062896105 US0628961056 BKYF     NASDAQ       BANK KY FINL CORP              5860     156110.40  0.027160 10 Financial Services             1010 Banks                                            1010400 Banks: Diversified                               
20120629 063425102 US0634251021 BMRC     NASDAQ       BANK OF MARIN BANCORP          5358     198299.58  0.034500 10 Financial Services             1010 Banks                                            1010400 Banks: Diversified                               
20120629 063750103 US0637501034 BKMU     NASDAQ       BANK MUTUAL CORP              46326     204297.66  0.035543 10 Financial Services             1010 Banks                                            1010820 Banks: Savings/Thrifts & Mortgage Lend           
20120629 063904106 US0639041062 OZRK     NASDAQ       BANK OF THE OZARKS INC         7887     237248.18  0.041276 10 Financial Services             1010 Banks                                            1010400 Banks: Diversified                               
20120629 06643P104 US06643P1049 BFIN     NASDAQ       BANKFINANCIAL CORP            21073     158679.69  0.027607 10 Financial Services             1010 Banks                                            1010820 Banks: Savings/Thrifts & Mortgage Lend           
20120629 06647F102 US06647F1021 RATE     NYSE         BANKRATE INC                   5635     103635.45  0.018030 01 Technology                     0130 Information Technology                           0130439 Computer Services Software & Systems             
20120629 06652V208 US06652V2088 BANR     NASDAQ       BANNER CORP                   18208     398937.28  0.069406 10 Financial Services             1010 Banks                                            1010400 Banks: Diversified                               
20120629 066849100 US0668491006 BHB      NYSE MKT     BAR HBR BANKSHARES             3890     140040.00  0.024364 10 Financial Services             1010 Banks                                            1010400 Banks: Diversified                               
20120629 067774109 US0677741094 BKS      NYSE         BARNES & NOBLE INC            25999     427939.98  0.074452 03 Consumer Discretionary         0360 Retail                                           0360834 Specialty Retail                                 
20120629 067806109 US0678061096 B        NYSE         BARNES GROUP INC              54246    1317635.34  0.229238 08 Producer Durables              0820 Manufacturing & Production                       0820453 Diversified Manufacturing Operations             
20120629 06846N104 US06846N1046 BBG      NYSE         BILL BARRETT CORP             48108    1030473.36  0.179278 06 Energy                         0620 Non-Renewable Energy                             0620670 Oil: Crude Producers                             
20120629 068798107 US0687981078 DFZ      NASDAQ       BARRY R G CORP OHIO             769      10457.12  0.001819 03 Consumer Discretionary         0320 Consumer Products                                0320850 Textiles Apparel & Shoes                         
20120629 06985P100 US06985P1003 BAS      NYSE         BASIC ENERGY SERVICES         30843     318299.76  0.055377 06 Energy                         0610 Energy Equipment & Services                      0610600 Oil Well Equipment & Services                    
20120629 070203104 US0702031040 BSET     NASDAQ       BASSETT FURNITURE INDS        11261     116100.91  0.020199 03 Consumer Discretionary         0320 Consumer Products                                0320523 Household Furnishings                            
20120629 073271108 US0732711082 BV       NASDAQ       BAZAARVOICE INC                 512       9330.70  0.001623 01 Technology                     0130 Information Technology                           0130439 Computer Services Software & Systems             
20120629 073295107 US0732951076 BBCN     NASDAQ       BBCN BANCORP INC              77996     849376.44  0.147772 10 Financial Services             1010 Banks                                            1010400 Banks: Diversified                               
20120629 074014101 US0740141017 BBGI     NASDAQ       BEASLEY BROADCAST GROUP        4068      23957.27  0.004168 03 Consumer Discretionary         0350 Media                                            0350760 Radio & TV Broadcasters                          
20120629 07556Q105 US07556Q1058 BZH      NYSE         BEAZER HOMES USA INC         101205     328916.25  0.057224 03 Consumer Discretionary         0320 Consumer Products                                0320501 Homebuilding                                     
20120629 075571109 US0755711092 BEBE     NASDAQ       BEBE STORES INC               33356     195793.93  0.034064 03 Consumer Discretionary         0360 Retail                                           0360834 Specialty Retail                                 
20120629 077347300 US0773473006 BELFB    NASDAQ       BEL FUSE INC                  10599     186648.39  0.032472 01 Technology                     0140 Telecommunication                                0140448 Communications Technology                        
20120629 077454106 US0774541066 BDC      NYSE         BELDEN INC                     5006     166964.44  0.029048 07 Materials & Processing         0730 Industrial Materials & Processes                 0730452 Diversified Materials & Processing               
20120629 080555105 US0805551050 BLC      NYSE         BELO CORP                     59305     381920.08  0.066445 03 Consumer Discretionary         0350 Media                                            0350438 Diversified Media                                
20120629 08160H101 US08160H1014 BHE      NYSE         BENCHMARK ELECTRONICS         57656     804301.20  0.139930 01 Technology                     0120 Electronics                                      0120643 Technology: Misc                                 
20120629 08173R104 US08173R1041 BNCL     NASDAQ       BENEFICIAL MUTUAL INC         28658     247318.29  0.043028 10 Financial Services             1010 Banks                                            1010400 Banks: Diversified                               
20120629 082047101 US0820471011 BNHN     NASDAQ       BENIHANA INC                   7181     115682.69  0.020126 03 Consumer Discretionary         0340 Leisure                                          0340810 Restaurants                                      
20120629 084597202 US0845972027 BERK     NASDAQ       BERKSHIRE BANCORP INC          4275      37620.00  0.006545 10 Financial Services             1010 Banks                                            1010400 Banks: Diversified                               
20120629 084680107 US0846801076 BHLB     NASDAQ       BERKSHIRE HILLS BANCORP       22166     487652.00  0.084840 10 Financial Services             1010 Banks                                            1010820 Banks: Savings/Thrifts & Mortgage Lend           
20120629 08915P101 US08915P1012 BGFV     NASDAQ       BIG 5 SPORTING GOODS          16621     125654.76  0.021861 03 Consumer Discretionary         0360 Retail                                           0360834 Specialty Retail                                 
20120629 08986R101 US08986R1014 BH       NYSE         BIGLARI HOLDINGS INC           1077     415979.36  0.072371 03 Consumer Discretionary         0340 Leisure                                          0340810 Restaurants                                      
20120629 09069N108 US09069N1081 BIOS     NASDAQ       BIOSCRIP INC                  31935     237276.52  0.041281 02 Health Care                    0210 Health Care Services                             0210503 Health Care Management Services                  
20120629 091826107 US0918261076 BBOX     NASDAQ       BLACK BOX CORP                17513     502623.10  0.087445 01 Technology                     0140 Telecommunication                                0140448 Communications Technology                        
20120629 09202G101 US09202G1013 BDE      NASDAQ       BLACK DIAMOND INC             20989     198346.05  0.034508 03 Consumer Discretionary         0340 Leisure                                          0340556 Leisure Time                                     
20120629 092113109 US0921131092 BKH      NYSE         BLACK HILLS CORP              44089    1418343.13  0.246759 11 Utilities                      1110 Utilities                                        1110870 Utilities: Electrical                            
20120629 092533108 US0925331086 BKCC     NASDAQ       BLACKROCK KELSO CAP CORP      73557     717916.32  0.124901 10 Financial Services             1040 Investment Banking & Brokerage Services          1040544 Asset Management & Custodian                     
20120629 095229100 US0952291005 BCOR     NASDAQ       BLUCORA INC                   33867     417231.90  0.072589 01 Technology                     0130 Information Technology                           0130439 Computer Services Software & Systems             
20120629 096231105 US0962311058 BXG      NYSE         BLUEGREEN CORP                14330      71076.80  0.012366 03 Consumer Discretionary         0340 Leisure                                          0340556 Leisure Time                                     
20120629 09624H109 US09624H1095 BXC      NYSE         BLUELINX HOLDINGS INC         19750      46412.01  0.008075 07 Materials & Processing         0710 Building Materials & Services                    0710430 Building Materials                               
20120629 096761101 US0967611015 BOBE     NASDAQ       BOB EVANS FARMS INC           25178    1012148.52  0.176090 03 Consumer Discretionary         0340 Leisure                                          0340810 Restaurants                                      
20120629 09746Y105 US09746Y1055 BZ       NYSE         BOISE INC                    100490     661224.20  0.115038 07 Materials & Processing         0730 Industrial Materials & Processes                 0730720 Paper                                            
20120629 097698104 US0976981045 BOLT     NASDAQ       BOLT TECHNOLOGY CORP           8576     128725.76  0.022395 06 Energy                         0610 Energy Equipment & Services                      0610600 Oil Well Equipment & Services                    
20120629 09776J101 US09776J1016 BONT     NASDAQ       BON-TON STORES INC            12653      98819.93  0.017192 03 Consumer Discretionary         0360 Retail                                           0360815 Diversified Retail                               
20120629 097793103 US0977931031 BCEI     NYSE         BONANZA CREEK ENER INC         8402     139724.99  0.024309 06 Energy                         0620 Non-Renewable Energy                             0620670 Oil: Crude Producers                             
20120629 101119105 US1011191053 BPFH     NASDAQ       BOSTON PRIVATE FINANCIAL      78160     697968.80  0.121430 10 Financial Services             1010 Banks                                            1010400 Banks: Diversified                               
20120629 101388106 US1013881065 EPAY     NASDAQ       BOTTOMLINE TECHNOLOGIES       24889     449240.53  0.078157 01 Technology                     0130 Information Technology                           0130439 Computer Services Software & Systems             
20120629 103304101 US1033041013 BYD      NYSE         BOYD GAMING CORP              51532     371029.90  0.064551 03 Consumer Discretionary         0340 Leisure                                          0340434 Casinos & Gambling                               
20120629 104674106 US1046741062 BRC      NYSE         BRADY CORP                    49048    1349310.48  0.234749 08 Producer Durables              0830 Scientific Instruments & Services                0830524 Scientific Instruments: Control & Filter         
20120629 108030107 US1080301070 BBNK     NASDAQ       BRIDGE CAPITAL HOLDINGS        6636     107158.51  0.018643 10 Financial Services             1010 Banks                                            1010400 Banks: Diversified                               
20120629 108035106 US1080351067 BDGE     NASDAQ       BRIDGE BANCORP INC             8597     202803.23  0.035283 10 Financial Services             1010 Banks                                            1010400 Banks: Diversified                               
20120629 109043109 US1090431099 BGG      NYSE         BRIGGS & STRATTON CO          48651     850905.99  0.148038 08 Producer Durables              0810 Machinery                                        0810579 Machinery: Engines                               
20120629 10921T101 US10921T1016 BCOV     NASDAQ       BRIGHTCOVE INC                  319       4875.94  0.000848 01 Technology                     0130 Information Technology                           0130439 Computer Services Software & Systems             
20120629 109473405 US1094734050 CELL     NASDAQ       BRIGHTPOINT INC               69096     373809.36  0.065034 01 Technology                     0140 Telecommunication                                0140849 Telecommunications Equipment                     
20120629 110394103 US1103941035 BRS      NYSE         BRISTOW GROUP INC             35767    1454643.89  0.253074 08 Producer Durables              0840 Transportation & Freight                         0840310 Air Transport                                    
20120629 11373M107 US11373M1071 BRKL     NASDAQ       BROOKLINE BANCORP INC         70041     619862.85  0.107842 10 Financial Services             1010 Banks                                            1010820 Banks: Savings/Thrifts & Mortgage Lend           
20120629 114340102 US1143401024 BRKS     NASDAQ       BROOKS AUTOMATION INC         66315     626013.60  0.108912 01 Technology                     0120 Electronics                                      0120738 Production Technology Equipment                  
20120629 115736100 US1157361007 BWS      NYSE         BROWN SHOE INC                42841     553077.31  0.096223 03 Consumer Discretionary         0360 Retail                                           0360834 Specialty Retail                                 
20120629 117665109 US1176651099 BMTC     NASDAQ       BRYN MAWR BANK CORP           11425     240724.75  0.041881 10 Financial Services             1010 Banks                                            1010400 Banks: Diversified                               
20120629 118255108 US1182551085 BKI      NYSE         BUCKEYE TECHNOLOGIES INC      16393     467045.46  0.081255 07 Materials & Processing         0730 Industrial Materials & Processes                 0730720 Paper                                            
20120629 12466Q104 US12466Q1040 CFFI     NASDAQ       C & F FINANCIAL CORP           3205     128712.80  0.022393 10 Financial Services             1010 Banks                                            1010400 Banks: Diversified                               
20120629 12467B304 US12467B3042 CJES     NYSE         C&J ENERGY SERVICES INC       30891     571473.79  0.099423 06 Energy                         0610 Energy Equipment & Services                      0610600 Oil Well Equipment & Services                    
20120629 12477X106 US12477X1063 CAP      NYSE         CAI INTERNATIONAL INC          7725     153558.33  0.026716 08 Producer Durables              0840 Transportation & Freight                         0840808 Commercial Services: Rental & Leasing            
20120629 124805102 US1248051021 CBZ      NYSE         CBIZ INC                      37990     225660.60  0.039260 08 Producer Durables              0850 Commercial Services                              0850365 Back Office Support HR & Consutling              
20120629 125071100 US1250711009 CDI      NYSE         CDI CORP                      11421     187301.05  0.032586 08 Producer Durables              0850 Commercial Services                              0850365 Back Office Support HR & Consutling              
20120629 125141101 US1251411013 CECE     NASDAQ       CECO ENVIRONMENTAL CORP        1140       9007.49  0.001567 08 Producer Durables              0830 Scientific Instruments & Services                0830735 Scientific Instruments: Pollution Control        
20120629 12541M102 US12541M1027 CHG      NYSE         CH ENERGY GROUP INC           14916     979832.04  0.170468 11 Utilities                      1110 Utilities                                        1110870 Utilities: Electrical                            
20120629 12547R105 US12547R1059 DFR      NASDAQ       CIFC CORP                      6406      47212.22  0.008214 10 Financial Services             1040 Investment Banking & Brokerage Services          1040544 Asset Management & Custodian                     
20120629 12561W105 US12561W1053 CNL      NYSE         CLECO CORP                    60920    2548283.60  0.443342 11 Utilities                      1110 Utilities                                        1110870 Utilities: Electrical                            
20120629 125906107 US1259061075 CSS      NYSE         CSS INDUSTRIES INC             9727     199889.85  0.034776 03 Consumer Discretionary         0320 Consumer Products                                0320521 Household Equip & Products                       
20120629 126128107 US1261281075 CCNE     NASDAQ       CNB FINL CORP PA              12439     202880.09  0.035296 10 Financial Services             1010 Banks                                            1010400 Banks: Diversified                               
20120629 12618T105 US12618T1051 CRAI     NASDAQ       CRA INTERNATIONAL INC         10384     152540.96  0.026539 08 Producer Durables              0850 Commercial Services                              0850365 Back Office Support HR & Consutling              
20120629 12621E103 US12621E1038 CNO      NYSE         CNO FINANCIAL GROUP          211965    1653327.00  0.287641 10 Financial Services             1030 Insurance                                        1030528 Insurance: Life                                  
20120629 126349109 US1263491094 CSGS     NASDAQ       CSG SYSTEMS INTL INC          14407     248954.62  0.043312 01 Technology                     0130 Information Technology                           0130439 Computer Services Software & Systems             
20120629 126501105 US1265011056 CTS      NYSE         CTS CORP                      34058     320826.36  0.055816 01 Technology                     0120 Electronics                                      0120643 Technology: Misc                                 
20120629 126600105 US1266001056 CVBF     NASDAQ       CVB FINANCIAL CORP            88178    1027273.70  0.178722 10 Financial Services             1010 Banks                                            1010400 Banks: Diversified                               
20120629 12662P108 US12662P1084 CVI      NYSE         CVR ENERGY INC                 5305     141022.85  0.024535 06 Energy                         0620 Non-Renewable Energy                             0620605 Oil: Refining & Marketing                        
20120629 12673A108 US12673A1088 CYS      NYSE         CYS INVESTMENTS INC          116146    1599330.42  0.278246 10 Financial Services             1050 Real Estate                                      1050806 Real Estate Investment Trusts (REITs)            
20120629 126804301 US1268043015 CAB      NYSE         CABELAS INC                    4338     164022.73  0.028536 03 Consumer Discretionary         0360 Retail                                           0360834 Specialty Retail                                 
20120629 127190304 US1271903049 CACI     NYSE         CACI INTERNATIONAL INC        24473    1346502.81  0.234260 01 Technology                     0130 Information Technology                           0130439 Computer Services Software & Systems             
20120629 127537207 US1275372076 CDZI     NASDAQ       CADIZ INC                       882       6365.80  0.001108 04 Consumer Staples               0410 Food/Beverage & Tobacco                          0410305 Agriculture Fishing & Ranching                   
20120629 127686103 US1276861036 CZR      NASDAQ       CAESARS ENTMT CORP             3941      44933.77  0.007817 03 Consumer Discretionary         0340 Leisure                                          0340434 Casinos & Gambling                               
20120629 12802T101 US12802T1016 DVR      NYSE         CAL DIVE INTL INC             96101     278692.90  0.048486 06 Energy                         0610 Energy Equipment & Services                      0610600 Oil Well Equipment & Services                    
20120629 128030202 US1280302027 CALM     NASDAQ       CAL MAINE FOODS INC            2007      78507.13  0.013658 04 Consumer Staples               0410 Food/Beverage & Tobacco                          0410305 Agriculture Fishing & Ranching                   
20120629 12811R104 US12811R1041 CLMS     NASDAQ       CALAMOS ASSET MGMT INC        19234     220229.30  0.038315 10 Financial Services             1040 Investment Banking & Brokerage Services          1040544 Asset Management & Custodian                     
20120629 129603106 US1296031065 CCC      NYSE         CALGON CARBON CORP             8994     127899.06  0.022251 07 Materials & Processing         0720 Chemicals and Synthetics                         0720833 Chemicals: Specialty                             
20120629 130222102 US1302221023 CFNB     NASDAQ       CALIFORNIA FIRST NATL          2261      35475.09  0.006172 10 Financial Services             1010 Banks                                            1010400 Banks: Diversified                               
20120629 130788102 US1307881029 CWT      NYSE         CALIFORNIA WTR SVC GRP        20954     387011.15  0.067331 11 Utilities                      1110 Utilities                                        1110882 Utilities: Water                                 
20120629 13100M509 US13100M5094 CALX     NYSE         CALIX INC                     25748     211648.56  0.036822 01 Technology                     0140 Telecommunication                                0140448 Communications Technology                        
20120629 131193104 US1311931042 ELY      NYSE         CALLAWAY GOLF CO              65030     384327.30  0.066864 03 Consumer Discretionary         0340 Leisure                                          0340556 Leisure Time                                     
20120629 13123X102 US13123X1028 CPE      NYSE         CALLON PETROLEUM CO           39444     168031.44  0.029234 06 Energy                         0620 Non-Renewable Energy                             0620670 Oil: Crude Producers                             
20120629 132011107 US1320111073 CBM      NYSE         CAMBREX CORP                  14307     134632.88  0.023423 02 Health Care                    0230 Pharmaceuticals & Biotech                        0230460 Pharmaceuticals                                  
20120629 133034108 US1330341082 CAC      NASDAQ       CAMDEN NATIONAL CORP           7685     281424.70  0.048961 10 Financial Services             1010 Banks                                            1010400 Banks: Diversified                               
20120629 13466Y105 US13466Y1055 CCG      NYSE         CAMPUS CREST CMNTYS INC       31080     322921.20  0.056181 10 Financial Services             1050 Real Estate                                      1050806 Real Estate Investment Trusts (REITs)            
20120629 139209100 US1392091005 CBNJ     NASDAQ       CAPE BANCORP INC              11276      93703.56  0.016302 10 Financial Services             1010 Banks                                            1010400 Banks: Diversified                               
20120629 139674105 US1396741050 CCBG     NASDAQ       CAPITAL CITY BANK GROUP       11655      85897.35  0.014944 10 Financial Services             1010 Banks                                            1010400 Banks: Diversified                               
20120629 139793103 US1397931031 CBKN     NASDAQ       CAPITAL BK CORP               14071      32081.88  0.005582 10 Financial Services             1010 Banks                                            1010400 Banks: Diversified                               
20120629 140288101 US1402881015 LSE      NYSE         CAPLEASE INC                  66767     277083.05  0.048206 10 Financial Services             1050 Real Estate                                      1050806 Real Estate Investment Trusts (REITs)            
20120629 140475104 US1404751042 CSU      NYSE         CAPITAL SENIOR LIVING          3829      40592.57  0.007062 02 Health Care                    0210 Health Care Services                             0210504 Health Care Facilities                           
20120629 140501107 US1405011073 CSWC     NASDAQ       CAPITAL SOUTHWEST CORP         2973     305743.32  0.053192 10 Financial Services             1040 Investment Banking & Brokerage Services          1040544 Asset Management & Custodian                     
20120629 14067E506 US14067E5069 CMO      NYSE         CAPSTEAD MORTGAGE CORP        93571    1301572.61  0.226443 10 Financial Services             1050 Real Estate                                      1050806 Real Estate Investment Trusts (REITs)            
20120629 14149F109 US14149F1093 CFNL     NASDAQ       CARDINAL FINANCIAL CORP       29224     358870.72  0.062435 10 Financial Services             1010 Banks                                            1010400 Banks: Diversified                               
20120629 141665109 US1416651099 CECO     NASDAQ       CAREER EDUCATION CORP         51770     346341.30  0.060255 03 Consumer Discretionary         0330 Consumer Services                                0330461 Education Services                               
20120629 143436400 US1434364006 CKEC     NASDAQ       CARMIKE CINEMAS INC           12079     176955.91  0.030786 03 Consumer Discretionary         0350 Media                                            0350480 Entertainment                                    
20120629 143905107 US1439051079 CSV      NYSE         CARRIAGE SERVICES INC         15863     131980.16  0.022961 03 Consumer Discretionary         0330 Consumer Services                                0330495 Funeral Parlors & Cemetery                       
20120629 144577103 US1445771033 CRZO     NASDAQ       CARRIZO OIL & GAS INC          5462     128419.05  0.022342 06 Energy                         0620 Non-Renewable Energy                             0620670 Oil: Crude Producers                             
20120629 14574X104 US14574X1046 TAST     NASDAQ       CARROLS RESTAURANT GRP         4572      27157.68  0.004725 03 Consumer Discretionary         0340 Leisure                                          0340810 Restaurants                                      
20120629 147154207 US1471542076 CACB     NASDAQ       CASCADE BANCORP                5590      33144.41  0.005766 10 Financial Services             1010 Banks                                            1010400 Banks: Diversified                               
20120629 147195101 US1471951012 CASC     NYSE         CASCADE CORP                   8689     408808.13  0.071123 08 Producer Durables              0810 Machinery                                        0810610 Machinery: Specialty                             
20120629 147448104 US1474481041 CWST     NASDAQ       CASELLA WASTE SYSTEMS         24392     142690.06  0.024825 03 Consumer Discretionary         0330 Consumer Services                                0330736 Printing and Copying Services                    
20120629 14754D100 US14754D1000 CSH      NYSE         CASH AMERICA INTL INC         17155     755480.48  0.131436 10 Financial Services             1020 Consumer Finance & Credit Services               1020492 Consumer Lending                                 
20120629 148411101 US1484111018 CAS      NYSE         CASTLE A M & CO               16696     177311.52  0.030848 08 Producer Durables              0820 Manufacturing & Production                       0820453 Diversified Manufacturing Operations             
20120629 148711302 US1487113029 CMRG     NASDAQ       CASUAL MALE RETAIL GROUP      41975     152369.25  0.026509 03 Consumer Discretionary         0360 Retail                                           0360834 Specialty Retail                                 
20120629 149150104 US1491501045 CATY     NASDAQ       CATHAY GENERAL BANCORP        78709    1299485.59  0.226080 10 Financial Services             1010 Banks                                            1010400 Banks: Diversified                               
20120629 149568107 US1495681074 CVCO     NASDAQ       CAVCO INDUSTRIES INC            675      34630.31  0.006025 03 Consumer Discretionary         0320 Consumer Products                                0320640 Manufactured Housing                             
20120629 149847105 US1498471051 CBEY     NASDAQ       CBEYOND INC                   25352     171630.07  0.029860 11 Utilities                      1110 Utilities                                        1110880 Utilities: Telecommunications                    
20120629 150602209 US1506022094 CDR      NYSE         CEDAR REALTY TRUST INC        59947     302732.35  0.052668 10 Financial Services             1050 Real Estate                                      1050806 Real Estate Investment Trusts (REITs)            
20120629 151408101 US1514081017 CNBC     NASDAQ       CENTER BANCORP INC            11890     133762.50  0.023272 10 Financial Services             1010 Banks                                            1010400 Banks: Diversified                               
20120629 15201P109 US15201P1093 CSFL     NASDAQ       CENTERSTATE BANKS INC         30071     215007.65  0.037406 10 Financial Services             1010 Banks                                            1010400 Banks: Diversified                               
20120629 153435102 US1534351028 CEDC     NASDAQ       CENTRAL EUROPEAN DISTRIB      65911     188505.46  0.032796 04 Consumer Staples               0410 Food/Beverage & Tobacco                          0410405 Beverage: Brewers & Distillers                   
20120629 153527205 US1535272058 CENTA    NASDAQ       CENTRAL GARDEN & PET CO       32805     357236.10  0.062151 03 Consumer Discretionary         0320 Consumer Products                                0320521 Household Equip & Products                       
20120629 154760409 US1547604090 CPF      NYSE         CENTRAL PACIFIC FINL          21621     305288.52  0.053113 10 Financial Services             1010 Banks                                            1010400 Banks: Diversified                               
20120629 156431108 US1564311082 CENX     NASDAQ       CENTURY ALUMINUM CO           51477     377326.41  0.065646 07 Materials & Processing         0740 Metals & Minerals                                0740320 Aluminum                                         
20120629 156432106 US1564321065 CNBKA    NASDAQ       CENTURY BANCORP INC            3445     102419.85  0.017819 10 Financial Services             1010 Banks                                            1010400 Banks: Diversified                               
20120629 15670S105 US15670S1050 CVO      NYSE         CENVEO INC                    53978     104177.54  0.018124 03 Consumer Discretionary         0330 Consumer Services                                0330736 Printing and Copying Services                    
20120629 156710105 US1567101050 CRDN     NASDAQ       CERADYNE INC                  24281     622807.65  0.108354 08 Producer Durables              0840 Transportation & Freight                         0840300 Aerospace                                        
20120629 157085101 US1570851014 CERS     NASDAQ       CERUS CORP                     6202      20593.48  0.003583 02 Health Care                    0220 Medical Equipment & Services                     0220507 Medical & Dental Instruments & Supplies          
20120629 157210105 US1572101053 CEVA     NASDAQ       CEVA INC                       5661      99690.98  0.017344 01 Technology                     0120 Electronics                                      0120476 Semiconductors & Components                      
20120629 16122M100 US16122M1009 CHFN     NASDAQ       CHARTER FINL CORP WEST         6564      63670.80  0.011077 10 Financial Services             1010 Banks                                            1010820 Banks: Savings/Thrifts & Mortgage Lend           
20120629 16150R104 US16150R1041 CCF      NYSE MKT     CHASE CORP                     6390      84348.00  0.014675 07 Materials & Processing         0730 Industrial Materials & Processes                 0730714 Paints & Coatings                                
20120629 16208T102 US16208T1025 CLDT     NYSE         CHATHAM LODGING TR            13909     198620.52  0.034555 10 Financial Services             1050 Real Estate                                      1050806 Real Estate Investment Trusts (REITs)            
20120629 162825103 US1628251035 CKP      NYSE         CHECKPOINT SYSTEMS INC        40421     352066.91  0.061251 01 Technology                     0120 Electronics                                      0120463 Electronic Components                            
20120629 163731102 US1637311028 CHFC     NASDAQ       CHEMICAL FINANCIAL CORP       27491     591056.50  0.102830 10 Financial Services             1010 Banks                                            1010400 Banks: Diversified                               
20120629 163893209 US1638932095 CHMT     NYSE         CHEMTURA CORP                 30092     436345.96  0.075914 07 Materials & Processing         0720 Chemicals and Synthetics                         0720433 Chemicals: Diversified                           
20120629 16444H102 US16444H1023 CHKE     NASDAQ       CHEROKEE INC                    847      11799.92  0.002053 03 Consumer Discretionary         0320 Consumer Products                                0320850 Textiles Apparel & Shoes                         
20120629 165240102 US1652401027 CHSP     NYSE         CHESAPEAKE LODGING TRUST      32127     553226.94  0.096249 10 Financial Services             1050 Real Estate                                      1050806 Real Estate Investment Trusts (REITs)            
20120629 165303108 US1653031088 CPK      NYSE         CHESAPEAKE UTILITIES           9579     418793.88  0.072860 11 Utilities                      1110 Utilities                                        1110875 Utilities: Gas Distributors                      
20120629 168905107 US1689051076 PLCE     NASDAQ       CHILDRENS PLACE RETAIL        15095     752137.71  0.130855 03 Consumer Discretionary         0360 Retail                                           0360834 Specialty Retail                                 
20120629 169467107 US1694671074 CHDX     NASDAQ       CHINDEX INTERNATIONAL         11556     113248.80  0.019703 02 Health Care                    0210 Health Care Services                             0210499 Health Care Services                             
20120629 170032809 US1700328099 CQB      NYSE         CHIQUITA BRANDS INTL INC      45941     229705.00  0.039963 04 Consumer Staples               0410 Food/Beverage & Tobacco                          0410494 Foods                                            
20120629 171484108 US1714841087 CHDN     NASDAQ       CHURCHILL DOWNS INC            8733     513377.44  0.089316 03 Consumer Discretionary         0340 Leisure                                          0340556 Leisure Time                                     
20120629 17163B102 US17163B1026 CBR      NYSE         CIBER INC                     72849     313979.19  0.054625 01 Technology                     0130 Information Technology                           0130439 Computer Services Software & Systems             
20120629 171779309 US1717793095 CIEN     NASDAQ       CIENA CORP                    24292     397663.97  0.069184 01 Technology                     0140 Telecommunication                                0140448 Communications Technology                        
20120629 171871106 US1718711062 CBB      NYSE         CINCINNATI BELL INC          126211     469503.28  0.081683 11 Utilities                      1110 Utilities                                        1110880 Utilities: Telecommunications                    
20120629 17273K109 US17273K1097 CIR      NYSE         CIRCOR INTERNATIONAL INC      16115     549334.85  0.095572 08 Producer Durables              0830 Scientific Instruments & Services                0830524 Scientific Instruments: Control & Filter         
20120629 172922106 US1729221069 CZNC     NASDAQ       CITIZENS & NORTHERN CORP      12217     232733.85  0.040490 10 Financial Services             1010 Banks                                            1010400 Banks: Diversified                               
20120629 17306X102 US17306X1028 CTRN     NASDAQ       CITI TRENDS INC               13907     214714.28  0.037355 03 Consumer Discretionary         0360 Retail                                           0360834 Specialty Retail                                 
20120629 174420307 US1744203076 CRBC     NASDAQ       CITIZENS REPUBLIC BANC        40035     685799.55  0.119313 10 Financial Services             1010 Banks                                            1010400 Banks: Diversified                               
20120629 174740100 US1747401008 CIA      NYSE         CITIZENS INC                  38922     379489.50  0.066022 10 Financial Services             1030 Insurance                                        1030528 Insurance: Life                                  
20120629 177835105 US1778351056 CHCO     NASDAQ       CITY HOLDING CO               14696     495108.24  0.086137 10 Financial Services             1010 Banks                                            1010400 Banks: Diversified                               
20120629 18538R103 US18538R1032 CLW      NYSE         CLEARWATER PAPER CORP          4746     161945.22  0.028175 07 Materials & Processing         0730 Industrial Materials & Processes                 0730720 Paper                                            
20120629 18712Q103 US18712Q1031 CSBK     NASDAQ       CLIFTON SVGS BANCORP INC       7590      79009.15  0.013746 10 Financial Services             1010 Banks                                            1010820 Banks: Savings/Thrifts & Mortgage Lend           
20120629 18911Q102 US18911Q1022 CLD      NYSE         CLOUD PEAK ENERGY INC         61038    1032152.58  0.179571 06 Energy                         0620 Non-Renewable Energy                             0620435 Coal                                             
20120629 190897108 US1908971088 COBZ     NASDAQ       COBIZ FINANCIAL INC           34893     218430.18  0.038002 10 Financial Services             1010 Banks                                            1010400 Banks: Diversified                               
20120629 192005106 US1920051067 CDXS     NASDAQ       CODEXIS INC                   26183      97924.42  0.017037 02 Health Care                    0230 Pharmaceuticals & Biotech                        0230412 Biotechnology                                    
20120629 192108504 US1921085049 CDE      NYSE         COEUR D ALENE MINES CORP      52943     929676.52  0.161742 07 Materials & Processing         0740 Metals & Minerals                                0740498 Gold                                             
20120629 192479103 US1924791031 COHR     NASDAQ       COHERENT INC                  16783     726692.60  0.126428 01 Technology                     0120 Electronics                                      0120475 Electronics                                      
20120629 192576106 US1925761066 COHU     NASDAQ       COHU INC                      24363     247528.08  0.043064 01 Technology                     0120 Electronics                                      0120738 Production Technology Equipment                  
20120629 193294105 US1932941057 KCP      NYSE         COLE KENNETH PRODTNS           4824      72597.59  0.012630 03 Consumer Discretionary         0320 Consumer Products                                0320850 Textiles Apparel & Shoes                         
20120629 195872106 US1958721060 CLP      NYSE         COLONIAL PROPERTIES TR        87923    1946615.22  0.338666 10 Financial Services             1050 Real Estate                                      1050806 Real Estate Investment Trusts (REITs)            
20120629 19624R106 US19624R1068 CLNY     NYSE         COLONY FINANCIAL INC          33108     572768.40  0.099648 10 Financial Services             1050 Real Estate                                      1050806 Real Estate Investment Trusts (REITs)            
20120629 197236102 US1972361026 COLB     NASDAQ       COLUMBIA BKG SYSTEM INC       39675     746683.50  0.129906 10 Financial Services             1010 Banks                                            1010400 Banks: Diversified                               
20120629 198516106 US1985161066 COLM     NASDAQ       COLUMBIA SPORTSWEAR CO        12258     657273.96  0.114350 03 Consumer Discretionary         0320 Consumer Products                                0320850 Textiles Apparel & Shoes                         
20120629 199333105 US1993331057 CMCO     NASDAQ       COLUMBUS MCKINNON CORP        19401     292761.09  0.050934 08 Producer Durables              0810 Machinery                                        0810584 Machinery: Industrial                            
20120629 199908104 US1999081045 FIX      NYSE         COMFORT SYSTEMS USA INC       26393     264451.83  0.046008 07 Materials & Processing         0710 Building Materials & Services                    0710415 Building: Climate Control                        
20120629 203607106 US2036071064 CBU      NYSE         COMMUNITY BANK SYSTEMS        39446    1069775.52  0.186116 10 Financial Services             1010 Banks                                            1010400 Banks: Diversified                               
20120629 204149108 US2041491083 CTBI     NASDAQ       COMMUNITY TRUST BANCORP       13968     467788.32  0.081384 10 Financial Services             1010 Banks                                            1010400 Banks: Diversified                               
20120629 205477102 US2054771025 CTGX     NASDAQ       COMPUTER TASK GROUP INC        3574      53586.52  0.009323 01 Technology                     0130 Information Technology                           0130439 Computer Services Software & Systems             
20120629 20563P101 US20563P1012 CIX      NYSE MKT     COMPX INTERNATIONAL            1020      12844.50  0.002235 07 Materials & Processing         0740 Metals & Minerals                                0740630 Metal Fabricating                                
20120629 205768203 US2057682039 CRK      NYSE         COMSTOCK RESOURCES INC        48115     790048.30  0.137450 06 Energy                         0620 Non-Renewable Energy                             0620670 Oil: Crude Producers                             
20120629 205826209 US2058262096 CMTL     NASDAQ       COMTECH TELECOMM              19015     543448.70  0.094547 01 Technology                     0140 Telecommunication                                0140448 Communications Technology                        
20120629 207410101 US2074101013 CNMD     NASDAQ       CONMED CORP                   28290     782784.30  0.136186 02 Health Care                    0220 Medical Equipment & Services                     0220507 Medical & Dental Instruments & Supplies          
20120629 207797101 US2077971016 CTWS     NASDAQ       CONNECTICUT WATER SVC          3066      88873.02  0.015462 11 Utilities                      1110 Utilities                                        1110882 Utilities: Water                                 
20120629 208242107 US2082421072 CONN     NASDAQ       CONNS INC                     14126     209056.60  0.036371 03 Consumer Discretionary         0360 Retail                                           0360834 Specialty Retail                                 
20120629 209034107 US2090341072 CNSL     NASDAQ       CONSOLIDATED COMM              4672      69150.87  0.012031 11 Utilities                      1110 Utilities                                        1110880 Utilities: Telecommunications                    
20120629 209341106 US2093411062 CGX      NYSE         CONSOLIDATED GRAPHIC           7956     231121.80  0.040210 08 Producer Durables              0850 Commercial Services                              0850486 Forms and Bulk Printing Services                 
20120629 210226106 US2102261060 CTO      NYSE MKT     CONSOLIDATED TOMOKA LAND       4296     123638.88  0.021510 10 Financial Services             1050 Real Estate                                      1050805 Real Estate                                      
20120629 21075N204 US21075N2045 MCF      NYSE MKT     CONTANGO OIL & GAS CO          1059      62702.45  0.010909 06 Energy                         0620 Non-Renewable Energy                             0620670 Oil: Crude Producers                             
20120629 212485106 US2124851062 CVG      NYSE         CONVERGYS CORP               116674    1723274.98  0.299810 08 Producer Durables              0850 Commercial Services                              0850365 Back Office Support HR & Consutling              
20120629 216831107 US2168311072 CTB      NYSE         COOPER TIRE & RUBBER CO        8350     146460.33  0.025481 03 Consumer Discretionary         0310 Auto & Auto Parts                                0310854 Auto Services                                    
20120629 218681104 US2186811046 CORE     NASDAQ       CORE MARK HOLDING CO INC       9565     460430.17  0.080104 04 Consumer Staples               0410 Food/Beverage & Tobacco                          0410856 Tobacco                                          
20120629 21870Q105 US21870Q1058 COR      NYSE         CORESITE REALTY CORP          10333     266788.40  0.046415 10 Financial Services             1050 Real Estate                                      1050806 Real Estate Investment Trusts (REITs)            
20120629 218868107 US2188681074 COCO     NASDAQ       CORINTHIAN COLLEGES INC       78277     226220.53  0.039357 03 Consumer Discretionary         0330 Consumer Services                                0330461 Education Services                               
20120629 21924P103 US21924P1030 CRTX     NASDAQ       CORNERSTONE THERAPEUTICS       8586      54349.38  0.009456 02 Health Care                    0230 Pharmaceuticals & Biotech                        0230412 Biotechnology                                    
20120629 222660102 US2226601027 CRRC     NASDAQ       COURIER CORP                  10392     137694.00  0.023956 03 Consumer Discretionary         0350 Media                                            0350740 Publishing                                       
20120629 222795106 US2227951066 CUZ      NYSE         COUSINS PROPERTIES INC        91743     711008.25  0.123699 10 Financial Services             1050 Real Estate                                      1050806 Real Estate Investment Trusts (REITs)            
20120629 223622101 US2236221014 COWN     NASDAQ       COWEN GROUP INC               87483     232704.78  0.040485 10 Financial Services             1040 Investment Banking & Brokerage Services          1040544 Asset Management & Custodian                     
20120629 224122101 US2241221017 BREW     NASDAQ       CRAFT BREW ALLIANCE            6107      49952.86  0.008691 04 Consumer Staples               0410 Food/Beverage & Tobacco                          0410405 Beverage: Brewers & Distillers                   
20120629 224633107 US2246331076 CRD.B    NYSE         CRAWFORD & CO                 26206     107182.54  0.018647 10 Financial Services             1030 Insurance                                        1030535 Insurance: Multi-Line                            
20120629 225439207 US2254392077 CRED     NASDAQ       CREDO PETROLEUM CORP           2489      36027.93  0.006268 06 Energy                         0620 Non-Renewable Energy                             0620670 Oil: Crude Producers                             
20120629 225743103 US2257431039 CRFN     NASDAQ       CRESCENT FINL BANCSHARES       2724      12312.48  0.002142 10 Financial Services             1010 Banks                                            1010400 Banks: Diversified                               
20120629 226553105 US2265531051 CXS      NYSE         CREXUS INVESTMENT CORP        66965     681034.05  0.118484 10 Financial Services             1050 Real Estate                                      1050806 Real Estate Investment Trusts (REITs)            
20120629 22662K207 US22662K2078 CXPO     NASDAQ       CRIMSON EXPLORATION INC       21255      97560.45  0.016973 06 Energy                         0620 Non-Renewable Energy                             0620670 Oil: Crude Producers                             
20120629 227478104 US2274781044 ATX      NASDAQ       CROSS A T CO                    644       6359.63  0.001106 08 Producer Durables              0820 Manufacturing & Production                       0820650 Office Supplies Equipment                        
20120629 227483104 US2274831047 CCRN     NASDAQ       CROSS COUNTRY HEALTHCARE      27174     118750.38  0.020660 02 Health Care                    0210 Health Care Services                             0210499 Health Care Services                             
20120629 22765Y104 US22765Y1047 XTXI     NASDAQ       CROSSTEX ENERGY INC            3424      47945.52  0.008341 06 Energy                         0620 Non-Renewable Energy                             0620877 Gas Pipeline                                     
20120629 228411104 US2284111042 CRWN     NASDAQ       CROWN MEDIA HOLDINGS INC      26104      45680.54  0.007947 03 Consumer Discretionary         0350 Media                                            0350760 Radio & TV Broadcasters                          
20120629 228903100 US2289031005 CRY      NYSE         CRYOLIFE INC                  27555     144112.65  0.025072 02 Health Care                    0220 Medical Equipment & Services                     0220507 Medical & Dental Instruments & Supplies          
20120629 229663109 US2296631094 CUBE     NYSE         CUBESMART                    123177    1437475.59  0.250087 10 Financial Services             1050 Real Estate                                      1050806 Real Estate Investment Trusts (REITs)            
20120629 229669106 US2296691064 CUB      NYSE         CUBIC CORP                     7380     354871.17  0.061739 08 Producer Durables              0840 Transportation & Freight                         0840300 Aerospace                                        
20120629 230215105 US2302151053 CFI      NYSE         CULP INC                       8720      89380.00  0.015550 07 Materials & Processing         0730 Industrial Materials & Processes                 0730852 Textile Products                                 
20120629 230770109 US2307701092 CPIX     NASDAQ       CUMBERLAND PHARM               5309      34302.04  0.005968 02 Health Care                    0230 Pharmaceuticals & Biotech                        0230460 Pharmaceuticals                                  
20120629 231082108 US2310821085 CMLS     NASDAQ       CUMULUS MEDIA INC             56124     168933.24  0.029390 03 Consumer Discretionary         0350 Media                                            0350760 Radio & TV Broadcasters                          
20120629 231269101 US2312691015 CRIS     NASDAQ       CURIS INC                     18014      97280.81  0.016925 02 Health Care                    0230 Pharmaceuticals & Biotech                        0230412 Biotechnology                                    
20120629 231561101 US2315611010 CW       NYSE         CURTISS WRIGHT CORP           46916    1456741.80  0.253439 08 Producer Durables              0840 Transportation & Freight                         0840300 Aerospace                                        
20120629 232572107 US2325721072 CYMI     NASDAQ       CYMER INC                     21409    1262025.42  0.219563 01 Technology                     0120 Electronics                                      0120738 Production Technology Equipment                  
20120629 232577205 US2325772059 CYNO     NASDAQ       CYNOSURE INC                   4792     101366.70  0.017635 02 Health Care                    0220 Medical Equipment & Services                     0220471 Medical Equipment                                
20120629 23283K105 US23283K1051 CYTX     NASDAQ       CYTORI THERAPEUTICS INC       11473      30978.61  0.005390 02 Health Care                    0230 Pharmaceuticals & Biotech                        0230412 Biotechnology                                    
20120629 233153105 US2331531051 DCT      NYSE         DCT INDUSTRIAL TRUST INC     246995    1556068.50  0.270720 10 Financial Services             1050 Real Estate                                      1050806 Real Estate Investment Trusts (REITs)            
20120629 23324T107 US23324T1079 DLLR     NASDAQ       DFC GLOBAL CORP                9496     175027.35  0.030451 10 Financial Services             1020 Consumer Finance & Credit Services               1020492 Consumer Lending                                 
20120629 23332B106 US23332B1061 DSPG     NASDAQ       DSP GROUP INC                 21865     138624.10  0.024117 01 Technology                     0120 Electronics                                      0120476 Semiconductors & Components                      
20120629 233912104 US2339121046 DJCO     NASDAQ       DAILY JOURNAL CORP              974      83549.72  0.014536 03 Consumer Discretionary         0350 Media                                            0350740 Publishing                                       
20120629 234264109 US2342641097 DAKT     NASDAQ       DAKTRONICS INC                27337     188891.95  0.032863 01 Technology                     0120 Electronics                                      0120475 Electronics                                      
20120629 235825205 US2358252052 DAN      NYSE         DANA HOLDING CORP            132470    1696938.87  0.295228 03 Consumer Discretionary         0310 Auto & Auto Parts                                0310340 Auto Parts                                       
20120629 237266101 US2372661015 DAR      NYSE         DARLING INTERNATIONAL         81857    1349814.67  0.234836 08 Producer Durables              0830 Scientific Instruments & Services                0830735 Scientific Instruments: Pollution Control        
20120629 239359102 US2393591027 DWSN     NASDAQ       DAWSON GEOPHYSICAL CO          7928     188844.96  0.032855 06 Energy                         0610 Energy Equipment & Services                      0610600 Oil Well Equipment & Services                    
20120629 242309102 US2423091022 TRAK     NASDAQ       DEALERTRACK HOLDINGS INC       4541     136731.92  0.023788 01 Technology                     0130 Information Technology                           0130439 Computer Services Software & Systems             
20120629 246647101 US2466471016 DK       NYSE         DELEK US HLDGS INC            16995     298942.05  0.052009 06 Energy                         0620 Non-Renewable Energy                             0620605 Oil: Refining & Marketing                        
20120629 247368103 US2473681037 DLA      NYSE MKT     DELTA APPAREL INC              7055      96371.30  0.016766 03 Consumer Discretionary         0320 Consumer Products                                0320850 Textiles Apparel & Shoes                         
20120629 247748106 US2477481061 DGAS     NASDAQ       DELTA NATURAL GAS INC          6794     147633.62  0.025685 11 Utilities                      1110 Utilities                                        1110875 Utilities: Gas Distributors                      
20120629 248019101 US2480191012 DLX      NYSE         DELUXE CORP                   16776     418394.41  0.072791 08 Producer Durables              0850 Commercial Services                              0850486 Forms and Bulk Printing Services                 
20120629 24802N109 US24802N1090 DMD      NYSE         DEMAND MEDIA INC               7639      85557.19  0.014885 01 Technology                     0130 Information Technology                           0130439 Computer Services Software & Systems             
20120629 24802Y105 US24802Y1055 DWRE     NYSE         DEMANDWARE INC                  353       8363.80  0.001455 01 Technology                     0130 Information Technology                           0130439 Computer Services Software & Systems             
20120629 24869P104 US24869P1049 DENN     NASDAQ       DENNYS CORP                   20672      91787.65  0.015969 03 Consumer Discretionary         0340 Leisure                                          0340810 Restaurants                                      
20120629 249827502 US2498275021 DSCI     NASDAQ       DERMA SCIENCES INC             8765      83439.85  0.014517 02 Health Care                    0220 Medical Equipment & Services                     0220507 Medical & Dental Instruments & Supplies          
20120629 25065D100 US25065D1000 DEST     NASDAQ       DESTINATION MATERNITY          7486     161687.23  0.028130 03 Consumer Discretionary         0360 Retail                                           0360834 Specialty Retail                                 
20120629 25247X107 US25247X1072 DIAL     NASDAQ       DIAL GLOBAL INC                2387       7924.61  0.001379 03 Consumer Discretionary         0350 Media                                            0350760 Radio & TV Broadcasters                          
20120629 252603105 US2526031057 DMND     NASDAQ       DIAMOND FOODS INC             22115     394531.60  0.068639 04 Consumer Staples               0410 Food/Beverage & Tobacco                          0410494 Foods                                            
20120629 252784301 US2527843013 DRH      NYSE         DIAMONDROCK HOSPITALITY      167918    1712763.60  0.297981 10 Financial Services             1050 Real Estate                                      1050806 Real Estate Investment Trusts (REITs)            
20120629 253798102 US2537981027 DGII     NASDAQ       DIGI INTL INC                 25756     263741.44  0.045885 01 Technology                     0140 Telecommunication                                0140448 Communications Technology                        
20120629 25388B104 US25388B1044 DRIV     NASDAQ       DIGITAL RIVER INC             36909     613427.58  0.106722 01 Technology                     0130 Information Technology                           0130439 Computer Services Software & Systems             
20120629 25389M877 US25389M8771 DGI      NYSE         DIGITALGLOBE INC              11103     168325.56  0.029285 01 Technology                     0140 Telecommunication                                0140448 Communications Technology                        
20120629 253922108 US2539221083 DCOM     NASDAQ       DIME CMNTY BANCSHARES         31436     417784.44  0.072685 10 Financial Services             1010 Banks                                            1010820 Banks: Savings/Thrifts & Mortgage Lend           
20120629 25400B108 US25400B1089 DGIT     NASDAQ       DIGITAL GENERATION INC        27573     341078.01  0.059340 03 Consumer Discretionary         0350 Media                                            0350301 Advertising Agencies                             
20120629 254543101 US2545431015 DIOD     NASDAQ       DIODES INC                    35498     666297.46  0.115920 01 Technology                     0120 Electronics                                      0120476 Semiconductors & Components                      
20120629 25659P402 US25659P4028 DM       NYSE         DOLAN COMPANY                 30575     205769.75  0.035799 03 Consumer Discretionary         0350 Media                                            0350740 Publishing                                       
20120629 256603101 US2566031017 DOLE     NYSE         DOLE FOOD CO INC              35845     314719.10  0.054754 04 Consumer Staples               0410 Food/Beverage & Tobacco                          0410494 Foods                                            
20120629 256743105 US2567431059 DTG      NYSE         DOLLAR THRIFTY AUTO           13290    1076036.12  0.187205 03 Consumer Discretionary         0330 Consumer Services                                0330809 Rental & Leasing Services: Consumer              
20120629 257701201 US2577012014 DGICA    NASDAQ       DONEGAL GROUP INC              7375      97933.73  0.017038 10 Financial Services             1030 Insurance                                        1030542 Insurance: Property-Casualty                     
20120629 25811P886 PR25811P8869 DRL      NYSE         DORAL FINANCIAL CORP         128462     192693.00  0.033524 10 Financial Services             1010 Banks                                            1010820 Banks: Savings/Thrifts & Mortgage Lend           
20120629 25960R105 US25960R1059 PLOW     NYSE         DOUGLAS DYNAMICS INC          22131     315366.75  0.054867 08 Producer Durables              0810 Machinery                                        0810577 Machinery: Construction & Handling               
20120629 26168L205 US26168L2051 DW       NYSE         DREW INDUSTRIES INC           10161     282979.17  0.049232 03 Consumer Discretionary         0340 Leisure                                          0340804 Recreational Vehicles & Boats                    
20120629 26433B107 US26433B1070 DUF      NYSE         DUFF & PHELPS CORP            22636     328210.81  0.057101 10 Financial Services             1040 Investment Banking & Brokerage Services          1040457 Diversified Financial Services                   
20120629 26613Q106 US26613Q1067 DFT      NYSE         DUPONT FABROS TECHNOLOGY      32439     926452.39  0.161181 10 Financial Services             1050 Real Estate                                      1050806 Real Estate Investment Trusts (REITs)            
20120629 267475101 US2674751019 DY       NYSE         DYCOM INDUSTRIES INC           4269      79452.77  0.013823 08 Producer Durables              0850 Commercial Services                              0850479 Engineering & Contracting Services               
20120629 267888105 US2678881051 BOOM     NASDAQ       DYNAMIC MATERIALS CORP         8562     148374.35  0.025814 07 Materials & Processing         0740 Metals & Minerals                                0740630 Metal Fabricating                                
20120629 268158102 US2681581029 DVAX     NASDAQ       DYNAVAX TECHNOLOGIES          20373      88012.77  0.015312 02 Health Care                    0230 Pharmaceuticals & Biotech                        0230412 Biotechnology                                    
20120629 26817Q506 US26817Q5062 DX       NYSE         DYNEX CAPITAL INC             54344     564090.72  0.098139 10 Financial Services             1050 Real Estate                                      1050806 Real Estate Investment Trusts (REITs)            
20120629 268664109 US2686641091 EMCI     NASDAQ       EMC INS GROUP INC              4482      90536.40  0.015751 10 Financial Services             1030 Insurance                                        1030542 Insurance: Property-Casualty                     
20120629 26882D109 US26882D1090 EPIQ     NASDAQ       EPIQ SYSTEMS INC              29038     355706.78  0.061885 01 Technology                     0130 Information Technology                           0130439 Computer Services Software & Systems             
20120629 26884F102 US26884F1021 ESBF     NASDAQ       ESB FINANCIAL CORP            10395     137214.00  0.023872 10 Financial Services             1010 Banks                                            1010820 Banks: Savings/Thrifts & Mortgage Lend           
20120629 268948106 US2689481065 EGBN     NASDAQ       EAGLE BANCORP INC             15860     249793.98  0.043458 10 Financial Services             1010 Banks                                            1010400 Banks: Diversified                               
20120629 270321102 US2703211027 ELNK     NASDAQ       EARTHLINK INC                106205     790165.20  0.137470 01 Technology                     0130 Information Technology                           0130439 Computer Services Software & Systems             
20120629 276317104 US2763171046 EML      NASDAQ       EASTERN CO                     6214     100356.10  0.017460 07 Materials & Processing         0740 Metals & Minerals                                0740630 Metal Fabricating                                
20120629 276534104 US2765341043 EIHI     NASDAQ       EASTERN INSURANCE HLDGS        6636     112812.00  0.019627 10 Financial Services             1030 Insurance                                        1030535 Insurance: Multi-Line                            
20120629 277276101 US2772761019 EGP      NYSE         EASTGROUP PROPERTIES INC       1793      95612.84  0.016634 10 Financial Services             1050 Real Estate                                      1050806 Real Estate Investment Trusts (REITs)            
20120629 278715206 US2787152063 EBIX     NASDAQ       EBIX INC                       7066     140971.69  0.024526 01 Technology                     0130 Information Technology                           0130439 Computer Services Software & Systems             
20120629 27874N105 US27874N1054 ELON     NASDAQ       ECHELON CORP                  17695      61581.68  0.010714 01 Technology                     0140 Telecommunication                                0140448 Communications Technology                        
20120629 27943Q105 US27943Q1058 EF       NASDAQ       EDELMAN FINANCIAL GROUP       20629     179472.30  0.031224 10 Financial Services             1040 Investment Banking & Brokerage Services          1040457 Diversified Financial Services                   
20120629 28014Q107 US28014Q1076 EDG      NYSE         EDGEN GROUP INC               11253      84622.44  0.014722 06 Energy                         0610 Energy Equipment & Services                      0610600 Oil Well Equipment & Services                    
20120629 28140H104 US28140H1041 EDR      NYSE         EDUCATION REALTY TRUST        94761    1049951.88  0.182667 10 Financial Services             1050 Real Estate                                      1050806 Real Estate Investment Trusts (REITs)            
20120629 28140M103 US28140M1036 EDMC     NASDAQ       EDUCATION MGMT CORP           26652     185231.40  0.032226 03 Consumer Discretionary         0330 Consumer Services                                0330461 Education Services                               
20120629 28257U104 US28257U1043 BAGL     NASDAQ       EINSTEIN NOAH REST GROUP        645      11339.37  0.001973 03 Consumer Discretionary         0340 Leisure                                          0340810 Restaurants                                      
20120629 283677854 US2836778546 EE       NYSE         EL PASO ELECTRIC CO           40037    1327626.92  0.230976 11 Utilities                      1110 Utilities                                        1110870 Utilities: Electrical                            
20120629 285218103 US2852181039 ELRC     NASDAQ       ELECTRO RENT CORP             16920     274606.99  0.047775 08 Producer Durables              0840 Transportation & Freight                         0840808 Commercial Services: Rental & Leasing            
20120629 285229100 US2852291002 ESIO     NASDAQ       ELECTRO SCIENTIFIC INDS       22915     270855.30  0.047123 01 Technology                     0120 Electronics                                      0120738 Production Technology Equipment                  
20120629 286082102 US2860821022 EFII     NASDAQ       ELECTRONICS FOR IMAGING       42748     694643.53  0.120852 08 Producer Durables              0820 Manufacturing & Production                       0820650 Office Supplies Equipment                        
20120629 28660G106 US28660G1067 RDEN     NASDAQ       ELIZABETH ARDEN INC            3679     142789.75  0.024842 03 Consumer Discretionary         0320 Consumer Products                                0320450 Cosmetics                                        
20120629 288853104 US2888531041 PERY     NASDAQ       ELLIS PERRY INTL INC          11857     246032.75  0.042804 03 Consumer Discretionary         0320 Consumer Products                                0320850 Textiles Apparel & Shoes                         
20120629 29084Q100 US29084Q1004 EME      NYSE         EMCOR GROUP INC               66740    1856706.80  0.323024 08 Producer Durables              0820 Manufacturing & Production                       0820443 Construction                                     
20120629 29089Q105 US29089Q1058 EBS      NYSE         EMERGENT BIOSOLUTIONS         20610     312229.93  0.054321 02 Health Care                    0230 Pharmaceuticals & Biotech                        0230412 Biotechnology                                    
20120629 291641108 US2916411083 EDE      NYSE         EMPIRE DISTRICT ELECTRIC      42158     889533.80  0.154758 11 Utilities                      1110 Utilities                                        1110870 Utilities: Electrical                            
20120629 292218104 US2922181043 EIG      NYSE         EMPLOYERS HOLDINGS INC        25323     456823.56  0.079477 10 Financial Services             1030 Insurance                                        1030542 Insurance: Property-Casualty                     
20120629 292475209 US2924752098 ELX      NYSE         EMULEX CORP                   86793     624909.60  0.108720 01 Technology                     0140 Telecommunication                                0140448 Communications Technology                        
20120629 292554102 US2925541029 ECPG     NASDAQ       ENCORE CAPITAL GROUP INC       4534     134307.00  0.023366 10 Financial Services             1020 Consumer Finance & Credit Services               1020492 Consumer Lending                                 
20120629 29255V201 US29255V2016 EBTX     NASDAQ       ENCORE BANCSHARES INC          8342     172085.41  0.029939 10 Financial Services             1010 Banks                                            1010400 Banks: Diversified                               
20120629 292562105 US2925621052 WIRE     NASDAQ       ENCORE WIRE CORP              18766     502553.48  0.087433 07 Materials & Processing         0730 Industrial Materials & Processes                 0730452 Diversified Materials & Processing               
20120629 29259G200 US29259G2003 END      NYSE         ENDEAVOUR INTERNATIONAL        2576      21642.77  0.003765 06 Energy                         0620 Non-Renewable Energy                             0620670 Oil: Crude Producers                             
20120629 29270J100 US29270J1007 ERII     NASDAQ       ENERGY RECOVERY INC           43938     105451.20  0.018346 08 Producer Durables              0830 Scientific Instruments & Services                0830524 Scientific Instruments: Control & Filter         
20120629 29270U303 US29270U3032 EPL      NYSE         ENERGY PARTNERS LTD           27737     468755.30  0.081553 06 Energy                         0620 Non-Renewable Energy                             0620670 Oil: Crude Producers                             
20120629 292756202 US2927562023 ES       NYSE         ENERGYSOLUTIONS INC           57876      97810.20  0.017017 08 Producer Durables              0830 Scientific Instruments & Services                0830735 Scientific Instruments: Pollution Control        
20120629 29275Y102 US29275Y1029 ENS      NYSE         ENERSYS INC                   30494    1069412.52  0.186053 08 Producer Durables              0830 Scientific Instruments & Services                0830465 Scientific Instruments: Electrical               
20120629 292764107 US2927641074 ENOC     NASDAQ       ENERNOC INC                   15208     110104.59  0.019156 06 Energy                         0630 Alternative Energy                               0630478 Alternative Energy                               
20120629 293389102 US2933891028 EBF      NYSE         ENNIS INC                     26153     402233.14  0.069979 08 Producer Durables              0850 Commercial Services                              0850486 Forms and Bulk Printing Services                 
20120629 29355A107 US29355A1079 ENPH     NASDAQ       ENPHASE ENERGY INC             1692      10526.01  0.001831 06 Energy                         0610 Energy Equipment & Services                      0610477 Energy Equipment                                 
20120629 29355X107 US29355X1072 NPO      NYSE         ENPRO INDUSTRIES INC           9777     365381.44  0.063568 08 Producer Durables              0810 Machinery                                        0810584 Machinery: Industrial                            
20120629 29358P101 US29358P1012 ENSG     NASDAQ       ENSIGN GROUP INC               6574     185862.64  0.032336 02 Health Care                    0210 Health Care Services                             0210504 Health Care Facilities                           
20120629 29362U104 US29362U1043 ENTG     NASDAQ       ENTEGRIS INC                 137260    1172200.40  0.203936 01 Technology                     0120 Electronics                                      0120738 Production Technology Equipment                  
20120629 293639100 US2936391000 ETM      NYSE         ENTERCOM COMMUNICATIONS       24426     147044.52  0.025582 03 Consumer Discretionary         0350 Media                                            0350760 Radio & TV Broadcasters                          
20120629 293668109 US2936681095 EBTC     NASDAQ       ENTERPRISE BANCORP INC         5930      97192.70  0.016909 10 Financial Services             1010 Banks                                            1010400 Banks: Diversified                               
20120629 293712105 US2937121059 EFSC     NASDAQ       ENTERPRISE FINL SERVICES      17833     195449.68  0.034004 10 Financial Services             1010 Banks                                            1010400 Banks: Diversified                               
20120629 29380T105 US29380T1051 EPR      NYSE         ENTERTAINMENT PPTYS TR        46823    1924893.53  0.334887 10 Financial Services             1050 Real Estate                                      1050806 Real Estate Investment Trusts (REITs)            
20120629 29382R107 US29382R1077 EVC      NYSE         ENTRAVISION COMM              50712      61361.52  0.010675 03 Consumer Discretionary         0350 Media                                            0350760 Radio & TV Broadcasters                          
20120629 29384R105 US29384R1059 ENTR     NASDAQ       ENTROPIC COMMUNICATIONS       87989     496257.96  0.086337 01 Technology                     0120 Electronics                                      0120476 Semiconductors & Components                      
20120629 293904108 US2939041081 ENZN     NASDAQ       ENZON PHARMACEUTICALS         42219     290044.53  0.050461 02 Health Care                    0230 Pharmaceuticals & Biotech                        0230412 Biotechnology                                    
20120629 29413T106 US29413T1060 ENVI     NASDAQ       ENVIVIO INC                    5617      35999.00  0.006263 01 Technology                     0140 Telecommunication                                0140448 Communications Technology                        
20120629 294268107 US2942681071 PLUS     NASDAQ       EPLUS INC                      3966     128300.10  0.022321 01 Technology                     0130 Information Technology                           0130439 Computer Services Software & Systems             
20120629 29429D103 US29429D1037 EPOC     NASDAQ       EPOCRATES INC                  1154       9260.60  0.001611 02 Health Care                    0210 Health Care Services                             0210499 Health Care Services                             
20120629 294752100 US2947521009 EQY      NYSE         EQUITY ONE INC                54857    1162968.40  0.202330 10 Financial Services             1050 Real Estate                                      1050806 Real Estate Investment Trusts (REITs)            
20120629 296315104 US2963151046 ESE      NYSE         ESCO TECHNOLOGIES INC         18177     662348.02  0.115233 08 Producer Durables              0830 Scientific Instruments & Services                0830524 Scientific Instruments: Control & Filter         
20120629 29667D104 US29667D1046 ESSA     NASDAQ       ESSA BANCORP INC               9009      97297.20  0.016927 10 Financial Services             1010 Banks                                            1010820 Banks: Savings/Thrifts & Mortgage Lend           
20120629 297425100 US2974251009 ESL      NYSE         ESTERLINE TECHNOLOGIES        30652    1911152.20  0.332496 08 Producer Durables              0840 Transportation & Freight                         0840300 Aerospace                                        
20120629 297602104 US2976021046 ETH      NYSE         ETHAN ALLEN INTERIORS          3269      65154.36  0.011335 03 Consumer Discretionary         0320 Consumer Products                                0320523 Household Furnishings                            
20120629 298736109 US2987361092 EEFT     NASDAQ       EURONET WORLDWIDE INC         50747     868788.64  0.151149 10 Financial Services             1020 Consumer Finance & Credit Services               1020489 Financial Data & Systems                         
20120629 29977A105 US29977A1051 EVR      NYSE         EVERCORE PARTNERS             25998     608079.19  0.105792 10 Financial Services             1040 Investment Banking & Brokerage Services          1040457 Diversified Financial Services                   
20120629 29977G102 US29977G1022 EVER     NYSE         EVERBANK FINL CORP            22332     242748.84  0.042233 10 Financial Services             1010 Banks                                            1010400 Banks: Diversified                               
20120629 300645108 US3006451088 EXAR     NASDAQ       EXAR CORP                     32319     263722.87  0.045882 01 Technology                     0120 Electronics                                      0120476 Semiconductors & Components                      
20120629 30064E109 US30064E1091 EXAC     NASDAQ       EXACTECH INC                   6614     110908.90  0.019296 02 Health Care                    0220 Medical Equipment & Services                     0220507 Medical & Dental Instruments & Supplies          
20120629 30066A105 US30066A1051 EXAM     NYSE         EXAMWORKS GROUP INC           23655     312947.06  0.054446 02 Health Care                    0210 Health Care Services                             0210499 Health Care Services                             
20120629 30068C109 US30068C1099 EXL      NYSE         EXCEL TR INC                  33642     402358.32  0.070001 10 Financial Services             1050 Real Estate                                      1050806 Real Estate Investment Trusts (REITs)            
20120629 302051206 US3020512063 XIDE     NASDAQ       EXIDE TECHNOLOGIES            78284     263034.24  0.045762 03 Consumer Discretionary         0310 Auto & Auto Parts                                0310340 Auto Parts                                       
20120629 30225X103 US30225X1037 EXH      NYSE         EXTERRAN HOLDINGS INC         64829     826569.75  0.143804 06 Energy                         0610 Energy Equipment & Services                      0610600 Oil Well Equipment & Services                    
20120629 302301106 US3023011063 EZPW     NASDAQ       EZCORP INC                    14964     351073.46  0.061079 10 Financial Services             1020 Consumer Finance & Credit Services               1020492 Consumer Lending                                 
20120629 30239F106 US30239F1066 FFG      NYSE         FBL FINANCIAL GROUP INC       10136     283909.36  0.049394 10 Financial Services             1030 Insurance                                        1030528 Insurance: Life                                  
20120629 30241L109 US30241L1098 FEIC     NASDAQ       FEI CO                         2314     110712.19  0.019261 01 Technology                     0120 Electronics                                      0120738 Production Technology Equipment                  
20120629 30247C301 US30247C3016 FBRC     NASDAQ       FBR & CO                      41008     113592.16  0.019762 10 Financial Services             1040 Investment Banking & Brokerage Services          1040457 Diversified Financial Services                   
20120629 302519202 US3025192028 FNBN     NASDAQ       F N B UNITED CORP              2580      33520.90  0.005832 10 Financial Services             1010 Banks                                            1010400 Banks: Diversified                               
20120629 302520101 US3025201019 FNB      NYSE         FNB CORP                     139554    1516951.98  0.263914 10 Financial Services             1010 Banks                                            1010400 Banks: Diversified                               
20120629 302633102 US3026331021 FSII     NASDAQ       FSI INTL INC                  39187     140681.33  0.024475 01 Technology                     0120 Electronics                                      0120738 Production Technology Equipment                  
20120629 302693106 US3026931069 FXCM     NYSE         FXCM INC                      20639     242714.64  0.042227 10 Financial Services             1040 Investment Banking & Brokerage Services          1040823 Securities Brokerage & Services                  
20120629 302941109 US3029411093 FCN      NYSE         FTI CONSULTING INC            41978    1206867.50  0.209967 08 Producer Durables              0850 Commercial Services                              0850365 Back Office Support HR & Consutling              
20120629 305560302 US3055603027 FRP      NASDAQ       FAIRPOINT COMMUNICATIONS       2894      17798.59  0.003097 11 Utilities                      1110 Utilities                                        1110880 Utilities: Telecommunications                    
20120629 307675108 US3076751086 FARM     NASDAQ       FARMER BROS CO                 6355      50581.85  0.008800 04 Consumer Staples               0410 Food/Beverage & Tobacco                          0410410 Beverage: Soft Drinks                            
20120629 309627107 US3096271073 FMNB     NASDAQ       FARMERS NATL BANC CORP        18802     117136.46  0.020379 10 Financial Services             1010 Banks                                            1010400 Banks: Diversified                               
20120629 313148306 US3131483063 AGM      NYSE         FEDERAL AGRIC MTG CO           9943     260804.89  0.045374 10 Financial Services             1020 Consumer Finance & Credit Services               1020487 Commercial Finance & Mortgage Co                 
20120629 313549404 US3135494041 FDML     NASDAQ       FEDERAL MOGUL CORP            18495     203445.00  0.035395 03 Consumer Discretionary         0310 Auto & Auto Parts                                0310340 Auto Parts                                       
20120629 313855108 US3138551086 FSS      NYSE         FEDERAL SIGNAL CORP           56094     327586.48  0.056992 08 Producer Durables              0820 Manufacturing & Production                       0820453 Diversified Manufacturing Operations             
20120629 31430F101 US31430F1012 FCH      NYSE         FELCOR LODGING TRUST INC      50187     235882.23  0.041038 10 Financial Services             1050 Real Estate                                      1050806 Real Estate Investment Trusts (REITs)            
20120629 315405100 US3154051003 FOE      NYSE         FERRO CORP                    86568     415526.40  0.072292 07 Materials & Processing         0730 Industrial Materials & Processes                 0730714 Paints & Coatings                                
20120629 316394105 US3163941053 LION     NASDAQ       FIDELITY SOUTHERN CORP         9398      81198.72  0.014127 10 Financial Services             1010 Banks                                            1010400 Banks: Diversified                               
20120629 316500107 US3165001070 FDUS     NASDAQ       FIDUS INVESTMENT CORP          9427     143007.59  0.024880 10 Financial Services             1040 Investment Banking & Brokerage Services          1040544 Asset Management & Custodian                     
20120629 31660B101 US31660B1017 FRGI     NASDAQ       FIESTA RESTAURANT GROUP        1584      20961.16  0.003647 03 Consumer Discretionary         0340 Leisure                                          0340810 Restaurants                                      
20120629 316645100 US3166451001 FNP      NYSE         FIFTH & PACIFIC CO INC       102635    1101268.31  0.191595 03 Consumer Discretionary         0320 Consumer Products                                0320850 Textiles Apparel & Shoes                         
20120629 31678A103 US31678A1034 FSC      NASDAQ       FIFTH STREET FINANCE          82421     822561.58  0.143107 10 Financial Services             1040 Investment Banking & Brokerage Services          1040544 Asset Management & Custodian                     
20120629 317585404 US3175854047 FISI     NASDAQ       FINANCIAL INSTNS INC          13812     233146.56  0.040562 10 Financial Services             1010 Banks                                            1010400 Banks: Diversified                               
20120629 31787A507 US31787A5074 FNSR     NASDAQ       FINISAR CORP                  91279    1365533.84  0.237571 01 Technology                     0140 Telecommunication                                0140448 Communications Technology                        
20120629 317923100 US3179231002 FINL     NASDAQ       FINISH LINE INC               31560     659903.29  0.114808 03 Consumer Discretionary         0360 Retail                                           0360834 Specialty Retail                                 
20120629 31847R102 US31847R1023 FAF      NYSE         FIRST AMERICAN FINL CORP      96500    1636630.50  0.284736 10 Financial Services             1030 Insurance                                        1030542 Insurance: Property-Casualty                     
20120629 31866P102 US31866P1021 FNLC     NASDAQ       FIRST BANCORP INC              8817     149889.00  0.026077 10 Financial Services             1010 Banks                                            1010400 Banks: Diversified                               
20120629 318672706 PR3186727065 FBP      NYSE         FIRST BANCORP PR              70291     278352.36  0.048427 10 Financial Services             1010 Banks                                            1010400 Banks: Diversified                               
20120629 318910106 US3189101062 FBNC     NASDAQ       FIRST BANCORP NC              15153     134710.17  0.023436 10 Financial Services             1010 Banks                                            1010400 Banks: Diversified                               
20120629 319383105 US3193831050 BUSE     NASDAQ       FIRST BUSEY CORP              74411     359405.13  0.062528 10 Financial Services             1010 Banks                                            1010400 Banks: Diversified                               
20120629 319395109 US3193951098 FCAL     NASDAQ       FIRST CALIFORNIA FINL GR      22447     154435.36  0.026868 10 Financial Services             1040 Investment Banking & Brokerage Services          1040457 Diversified Financial Services                   
20120629 319829107 US3198291078 FCF      NYSE         FIRST COMMONWLTH FINL        105199     707989.27  0.123174 10 Financial Services             1010 Banks                                            1010400 Banks: Diversified                               
20120629 31983A103 US31983A1034 FCBC     NASDAQ       FIRST CMNTY BANCSHAR          15797     227950.71  0.039658 10 Financial Services             1010 Banks                                            1010400 Banks: Diversified                               
20120629 319850103 US3198501039 FBNK     NASDAQ       FIRST CONN BANCORP INC        17880     241380.00  0.041995 10 Financial Services             1010 Banks                                            1010400 Banks: Diversified                               
20120629 32006W106 US32006W1062 FDEF     NASDAQ       FIRST DEFIANCE FINANCIAL       9728     166543.36  0.028975 10 Financial Services             1010 Banks                                            1010820 Banks: Savings/Thrifts & Mortgage Lend           
20120629 320209109 US3202091092 FFBC     NASDAQ       FIRST FINANCIAL BANCORP       58510     934989.80  0.162667 10 Financial Services             1010 Banks                                            1010400 Banks: Diversified                               
20120629 32020F303 US32020F3038 FFBH     NASDAQ       FIRST FED BANCSHARES ARK       2321      18797.12  0.003270 10 Financial Services             1010 Banks                                            1010820 Banks: Savings/Thrifts & Mortgage Lend           
20120629 32020R109 US32020R1095 FFIN     NASDAQ       FIRST FINL BANKSHARES         31478    1087879.68  0.189266 10 Financial Services             1010 Banks                                            1010400 Banks: Diversified                               
20120629 320218100 US3202181000 THFF     NASDAQ       FIRST FINANCIAL CORP          11172     323988.00  0.056366 10 Financial Services             1010 Banks                                            1010400 Banks: Diversified                               
20120629 32022K102 US32022K1025 FFNW     NASDAQ       FIRST FINL NORTHWEST          16003     129944.36  0.022607 10 Financial Services             1010 Banks                                            1010820 Banks: Savings/Thrifts & Mortgage Lend           
20120629 320239106 US3202391062 FFCH     NASDAQ       FIRST FINANCIAL HOLDINGS      16527     177169.44  0.030823 10 Financial Services             1010 Banks                                            1010820 Banks: Savings/Thrifts & Mortgage Lend           
20120629 32054K103 US32054K1034 FR       NYSE         FIRST INDUSTRIAL RLTY TR      88636    1118586.32  0.194608 10 Financial Services             1050 Real Estate                                      1050806 Real Estate Investment Trusts (REITs)            
20120629 32055Y201 US32055Y2019 FIBK     NASDAQ       FIRST INTST BANCSYSTEM        16239     231243.36  0.040231 10 Financial Services             1010 Banks                                            1010400 Banks: Diversified                               
20120629 320734106 US3207341062 FLIC     NASDAQ       FIRST LONG ISLAND CORP         7723     223735.31  0.038925 10 Financial Services             1010 Banks                                            1010400 Banks: Diversified                               
20120629 320771108 US3207711082 FMD      NYSE         FIRST MARBLEHEAD CORP         58196      68089.32  0.011846 10 Financial Services             1020 Consumer Finance & Credit Services               1020492 Consumer Lending                                 
20120629 320817109 US3208171096 FRME     NASDAQ       FIRST MERCHANTS CORP          28624     356655.04  0.062050 10 Financial Services             1010 Banks                                            1010400 Banks: Diversified                               
20120629 320867104 US3208671046 FMBI     NASDAQ       FIRST MIDWEST BANCORP         74901     822412.98  0.143081 10 Financial Services             1010 Banks                                            1010400 Banks: Diversified                               
20120629 33589V101 US33589V1017 BANC     NASDAQ       FIRST PACTRUST BANCORP        10604     125763.44  0.021880 10 Financial Services             1010 Banks                                            1010820 Banks: Savings/Thrifts & Mortgage Lend           
20120629 33610F109 US33610F1093 FPO      NYSE         FIRST POTOMAC REALTY TR       50968     599893.36  0.104368 10 Financial Services             1050 Real Estate                                      1050806 Real Estate Investment Trusts (REITs)            
20120629 336433107 US3364331070 FSLR     NASDAQ       FIRST SOLAR INC               60218     906883.08  0.157777 06 Energy                         0610 Energy Equipment & Services                      0610477 Energy Equipment                                 
20120629 336901103 US3369011032 SRCE     NASDAQ       1ST SOURCE CORP               14798     334434.80  0.058184 10 Financial Services             1010 Banks                                            1010400 Banks: Diversified                               
20120629 33740N105 US33740N1054 FUBC     NASDAQ       1ST UNITED BANCORP INC        29866     185467.86  0.032267 10 Financial Services             1010 Banks                                            1010400 Banks: Diversified                               
20120629 33766Y100 US33766Y1001 SVVC     NASDAQ       FIRSTHAND TECH VALUE           8556     151098.96  0.026288 10 Financial Services             1040 Investment Banking & Brokerage Services          1040544 Asset Management & Custodian                     
20120629 337756209 US3377562091 FSCI     NASDAQ       FISHER COMMUNICATIONS          8868     265241.88  0.046146 03 Consumer Discretionary         0350 Media                                            0350760 Radio & TV Broadcasters                          
20120629 337915102 US3379151026 FMER     NASDAQ       FIRSTMERIT CORP              109653    1811467.56  0.315153 10 Financial Services             1010 Banks                                            1010400 Banks: Diversified                               
20120629 33832D106 US33832D1063 FVE      NYSE         FIVE STAR QUALITY CARE        42534     130579.38  0.022718 02 Health Care                    0210 Health Care Services                             0210504 Health Care Facilities                           
20120629 339382103 US3393821034 FLXS     NASDAQ       FLEXSTEEL INDUSTRIES INC       4498      88970.44  0.015479 03 Consumer Discretionary         0320 Consumer Products                                0320523 Household Furnishings                            
20120629 343468104 US3434681041 FLOW     NASDAQ       FLOW INTL CORP                37713     118795.61  0.020668 08 Producer Durables              0810 Machinery                                        0810584 Machinery: Industrial                            
20120629 343873105 US3438731057 FFIC     NASDAQ       FLUSHING FINANCIAL CORP       30921     421453.23  0.073323 10 Financial Services             1010 Banks                                            1010820 Banks: Savings/Thrifts & Mortgage Lend           
20120629 345143101 US3451431015 FES      NASDAQ       FORBES ENERGY SVCS LTD        14750      69325.00  0.012061 06 Energy                         0610 Energy Equipment & Services                      0610600 Oil Well Equipment & Services                    
20120629 346091705 US3460917053 FST      NYSE         FOREST OIL CORP              117769     863246.77  0.150185 06 Energy                         0620 Non-Renewable Energy                             0620670 Oil: Crude Producers                             
20120629 346233109 US3462331097 FOR      NYSE         FORESTAR GROUP INC            34661     444007.41  0.077247 10 Financial Services             1050 Real Estate                                      1050805 Real Estate                                      
20120629 346375108 US3463751087 FORM     NASDAQ       FORMFACTOR INC                49611     320983.17  0.055844 01 Technology                     0120 Electronics                                      0120476 Semiconductors & Components                      
20120629 34954W104 US34954W1045 FRF      NYSE         FORTEGRA FINANCIAL CORP        6690      53520.00  0.009311 10 Financial Services             1030 Insurance                                        1030535 Insurance: Multi-Line                            
20120629 350060109 US3500601097 FSTR     NASDAQ       FOSTER L B CO                  9112     260694.32  0.045355 07 Materials & Processing         0740 Metals & Minerals                                0740630 Metal Fabricating                                
20120629 35137T108 US35137T1088 FXCB     NASDAQ       FOX CHASE BANCORP             12699     183373.56  0.031903 10 Financial Services             1010 Banks                                            1010820 Banks: Savings/Thrifts & Mortgage Lend           
20120629 353469109 US3534691098 FC       NYSE         FRANKLIN COVEY CO              4126      42257.45  0.007352 03 Consumer Discretionary         0330 Consumer Services                                0330461 Education Services                               
20120629 353514102 US3535141028 FELE     NASDAQ       FRANKLIN ELECTRIC CO           1218      62313.36  0.010841 08 Producer Durables              0830 Scientific Instruments & Services                0830465 Scientific Instruments: Electrical               
20120629 35353C102 US35353C1027 FRNK     NASDAQ       FRANKLIN FINL CORP VA         14303     235284.35  0.040934 10 Financial Services             1010 Banks                                            1010820 Banks: Savings/Thrifts & Mortgage Lend           
20120629 35471R106 US35471R1068 FSP      NYSE MKT     FRANKLIN STREET PPTYS CO      72486     766901.88  0.133423 10 Financial Services             1050 Real Estate                                      1050806 Real Estate Investment Trusts (REITs)            
20120629 356108100 US3561081007 FRED     NASDAQ       FREDS INC                     36828     563100.12  0.097966 03 Consumer Discretionary         0360 Retail                                           0360815 Diversified Retail                               
20120629 357023100 US3570231007 RAIL     NASDAQ       FREIGHTCAR AMERICA INC        11965     274836.05  0.047815 08 Producer Durables              0840 Transportation & Freight                         0840770 Railroad Equipment                               
20120629 358748101 US3587481017 FRS      NYSE MKT     FRISCHS RESTAURANTS INC        3135      88845.90  0.015457 03 Consumer Discretionary         0340 Leisure                                          0340810 Restaurants                                      
20120629 35952H106 US35952H1068 FCEL     NASDAQ       FUELCELL ENERGY INC          112282     113404.48  0.019730 06 Energy                         0610 Energy Equipment & Services                      0610477 Energy Equipment                                 
20120629 35952W103 US35952W1036 FSYS     NASDAQ       FUEL SYSTEMS SOLUTIONS        11592     193457.11  0.033657 03 Consumer Discretionary         0310 Auto & Auto Parts                                0310340 Auto Parts                                       
20120629 361086101 US3610861011 FRM      NYSE         FURMANITE  CORP               37251     181039.86  0.031497 08 Producer Durables              0850 Commercial Services                              0850479 Engineering & Contracting Services               
20120629 36116M106 US36116M1062 FF       NYSE         FUTUREFUEL CORPORATION        19295     202790.45  0.035281 07 Materials & Processing         0720 Chemicals and Synthetics                         0720833 Chemicals: Specialty                             
20120629 361268105 US3612681052 GKSR     NASDAQ       G&K SERVICES INC              18837     587526.03  0.102216 08 Producer Durables              0850 Commercial Services                              0850484 Environmental Maint & Security Service           
20120629 36159R103 US36159R1032 GEO      NYSE         GEO GROUP INC                 61435    1395803.20  0.242837 08 Producer Durables              0850 Commercial Services                              0850484 Environmental Maint & Security Service           
20120629 361652209 US3616522096 GFIG     NYSE         GFI GROUP INC                 68985     245586.60  0.042726 10 Financial Services             1040 Investment Banking & Brokerage Services          1040823 Securities Brokerage & Services                  
20120629 36191C205 CA36191C2058 GSIG     NASDAQ       GSI GROUP INC CDA NEW         27586     316128.23  0.054999 01 Technology                     0120 Electronics                                      0120738 Production Technology Equipment                  
20120629 36191J101 US36191J1016 GSVC     NASDAQ       GSV CAPITAL CORP              19320     179676.00  0.031259 10 Financial Services             1040 Investment Banking & Brokerage Services          1040544 Asset Management & Custodian                     
20120629 36191U106 US36191U1060 GTAT     NASDAQ       GT ADVANCED TECHNOLOGIES      17987      94976.56  0.016524 06 Energy                         0610 Energy Equipment & Services                      0610477 Energy Equipment                                 
20120629 36225V104 US36225V1044 GPX      NYSE         GP STRATEGIES CORP             1345      24848.50  0.004323 08 Producer Durables              0850 Commercial Services                              0850365 Back Office Support HR & Consutling              
20120629 36237H101 US36237H1014 GIII     NASDAQ       G-III APPAREL GROUP LTD       14521     343993.61  0.059847 03 Consumer Discretionary         0320 Consumer Products                                0320850 Textiles Apparel & Shoes                         
20120629 36241U106 US36241U1060 GSIT     NASDAQ       GSI TECHNOLOGY                20606      97672.44  0.016993 01 Technology                     0140 Telecommunication                                0140448 Communications Technology                        
20120629 36268W100 US36268W1009 GCAP     NYSE         GAIN CAPITAL HLDNGS INC       14850      74101.50  0.012892 10 Financial Services             1040 Investment Banking & Brokerage Services          1040823 Securities Brokerage & Services                  
20120629 367299203 CA3672992037 GST      NYSE MKT     GASTAR EXPL LTD               58972     113815.96  0.019801 06 Energy                         0620 Non-Renewable Energy                             0620670 Oil: Crude Producers                             
20120629 367905106 US3679051066 GET      NYSE         GAYLORD ENTMT CO              10249     395232.29  0.068761 03 Consumer Discretionary         0340 Leisure                                          0340514 Hotel/Motel                                      
20120629 368682100 US3686821006 GY       NYSE         GENCORP INC                   12298      80061.28  0.013929 08 Producer Durables              0840 Transportation & Freight                         0840300 Aerospace                                        
20120629 368736104 US3687361044 GNRC     NYSE         GENERAC HOLDINGS INC          13430     323113.19  0.056214 08 Producer Durables              0820 Manufacturing & Production                       0820734 Power Transmission Equip                         
20120629 370373102 US3703731022 GMO      NYSE MKT     GENERAL MOLY INC              56789     178316.86  0.031023 07 Materials & Processing         0740 Metals & Minerals                                0740635 Metals & Minerals: Diversified                   
20120629 372284208 US3722842081 GNE      NYSE         GENIE ENERGY LTD              15137     117614.49  0.020462 11 Utilities                      1110 Utilities                                        1110870 Utilities: Electrical                            
20120629 37244E107 US37244E1073 GEN      NYSE         GENON ENERGY INC             772866    1321600.86  0.229928 11 Utilities                      1110 Utilities                                        1110870 Utilities: Electrical                            
20120629 37247A102 US37247A1025 GTIV     NASDAQ       GENTIVA HEALTH SERVICES       30433     210900.69  0.036692 02 Health Care                    0210 Health Care Services                             0210499 Health Care Services                             
20120629 37250W108 US37250W1080 GEOY     NASDAQ       GEOEYE INC                    15107     233856.36  0.040686 01 Technology                     0140 Telecommunication                                0140448 Communications Technology                        
20120629 373200302 US3732003021 GGC      NYSE         GEORGIA GULF CORP             12600     323450.21  0.056273 07 Materials & Processing         0720 Chemicals and Synthetics                         0720433 Chemicals: Diversified                           
20120629 373865104 US3738651047 GABC     NASDAQ       GERMAN AMERICAN BANCORP       12627     258853.50  0.045035 10 Financial Services             1010 Banks                                            1010400 Banks: Diversified                               
20120629 374163103 US3741631036 GERN     NASDAQ       GERON CORP                   132086     227187.92  0.039525 02 Health Care                    0230 Pharmaceuticals & Biotech                        0230412 Biotechnology                                    
20120629 374297109 US3742971092 GTY      NYSE         GETTY REALTY CORP             25647     491140.05  0.085447 10 Financial Services             1050 Real Estate                                      1050806 Real Estate Investment Trusts (REITs)            
20120629 374396109 US3743961092 GEVO     NASDAQ       GEVO INC                       1808       8989.82  0.001564 06 Energy                         0630 Alternative Energy                               0630478 Alternative Energy                               
20120629 374689107 US3746891072 ROCK     NASDAQ       GIBRALTAR INDUSTRIES INC      30537     316974.06  0.055146 07 Materials & Processing         0710 Building Materials & Services                    0710430 Building Materials                               
20120629 37637Q105 US37637Q1058 GBCI     NASDAQ       GLACIER BANCORP INC           71931    1114211.19  0.193847 10 Financial Services             1010 Banks                                            1010400 Banks: Diversified                               
20120629 376535100 US3765351008 GLAD     NASDAQ       GLADSTONE CAPITAL CORP        21000     165690.00  0.028826 10 Financial Services             1040 Investment Banking & Brokerage Services          1040544 Asset Management & Custodian                     
20120629 376536108 US3765361080 GOOD     NASDAQ       GLADSTONE COMMERCIAL          10945     182343.70  0.031724 10 Financial Services             1050 Real Estate                                      1050806 Real Estate Investment Trusts (REITs)            
20120629 376546107 US3765461070 GAIN     NASDAQ       GLADSTONE INVESTMENT          22080     163171.20  0.028388 10 Financial Services             1040 Investment Banking & Brokerage Services          1040544 Asset Management & Custodian                     
20120629 377316104 US3773161043 GLT      NYSE         GLATFELTER                    35578     582397.98  0.101324 07 Materials & Processing         0730 Industrial Materials & Processes                 0730720 Paper                                            
20120629 379302102 US3793021029 GRT      NYSE         GLIMCHER REALTY TRUST         13945     142523.01  0.024796 10 Financial Services             1050 Real Estate                                      1050806 Real Estate Investment Trusts (REITs)            
20120629 37941P306 US37941P3064 GLPW     NASDAQ       GLOBAL POWER EQUIPMENT        17187     375364.08  0.065305 08 Producer Durables              0820 Manufacturing & Production                       0820734 Power Transmission Equip                         
20120629 37954N206 US37954N2062 GSM      NASDAQ       GLOBE SPECIALTY METALS        57163     767691.70  0.133561 07 Materials & Processing         0740 Metals & Minerals                                0740635 Metals & Minerals: Diversified                   
20120629 37956X103 US37956X1037 GCOM     NASDAQ       GLOBECOMM SYSTEMS INC          5231      53044.52  0.009229 01 Technology                     0140 Telecommunication                                0140448 Communications Technology                        
20120629 379890106 US3798901068 GLUU     NASDAQ       GLU MOBILE INC                 3405      18899.63  0.003288 01 Technology                     0130 Information Technology                           0130469 Electronic Entertainment                         
20120629 38068N108 CA38068N1087 GRZ      NYSE MKT     GOLD RESV INC                 45789     159802.74  0.027802 07 Materials & Processing         0740 Metals & Minerals                                0740498 Gold                                             
20120629 381119106 US3811191069 AUMN     NYSE MKT     GOLDEN MINERALS CO            28642     129175.42  0.022474 07 Materials & Processing         0740 Metals & Minerals                                0740549 Precious Metals & Minerals                       
20120629 38119T104 CA38119T1049 GSS      NYSE MKT     GOLDEN STAR RES LTD CDA      258862     300279.92  0.052242 07 Materials & Processing         0740 Metals & Minerals                                0740498 Gold                                             
20120629 38173M102 US38173M1027 GBDC     NASDAQ       GOLUB CAP BDC INC             14306     215877.54  0.037558 10 Financial Services             1040 Investment Banking & Brokerage Services          1040544 Asset Management & Custodian                     
20120629 38376A103 US38376A1034 GOV      NYSE         GOVERNMENT PPTY INCOME        37060     838297.20  0.145844 10 Financial Services             1050 Real Estate                                      1050806 Real Estate Investment Trusts (REITs)            
20120629 384871109 US3848711095 GKK      NYSE         GRAMERCY CAPITAL CORP         45900     114750.00  0.019964 10 Financial Services             1050 Real Estate                                      1050806 Real Estate Investment Trusts (REITs)            
20120629 387328107 US3873281071 GVA      NYSE         GRANITE CONSTR INC            38647    1009073.17  0.175555 08 Producer Durables              0820 Manufacturing & Production                       0820443 Construction                                     
20120629 388689101 US3886891015 GPK      NYSE         GRAPHIC PACKAGING HLDG       167473     921101.50  0.160250 07 Materials & Processing         0730 Industrial Materials & Processes                 0730442 Containers & Packaging                           
20120629 390607109 US3906071093 GLDD     NASDAQ       GREAT LAKES DREDGE & DOC      52550     374153.71  0.065094 08 Producer Durables              0820 Manufacturing & Production                       0820443 Construction                                     
20120629 390905107 US3909051076 GSBC     NASDAQ       GREAT SOUTHERN BANCORP        10178     280709.24  0.048837 10 Financial Services             1010 Banks                                            1010820 Banks: Savings/Thrifts & Mortgage Lend           
20120629 39153L106 US39153L1061 GB       NYSE         GREATBATCH INC                23647     537023.37  0.093430 02 Health Care                    0220 Medical Equipment & Services                     0220471 Medical Equipment                                
20120629 393222104 US3932221043 GPRE     NASDAQ       GREEN PLAINS RENEWABLE        24939     155619.36  0.027074 06 Energy                         0630 Alternative Energy                               0630478 Alternative Energy                               
20120629 393657101 US3936571013 GBX      NYSE         GREENBRIER COMPANIES INC      22848     401667.84  0.069881 08 Producer Durables              0840 Transportation & Freight                         0840770 Railroad Equipment                               
20120629 394361208 US3943612081 GRNB     NASDAQ       GREEN BANKSHARES INC          12250      20335.00  0.003538 10 Financial Services             1010 Banks                                            1010400 Banks: Diversified                               
20120629 39679B103 US39679B1035 GWAY     NYSE         GREENWAY MED TECH INC          1692      27605.10  0.004803 02 Health Care                    0210 Health Care Services                             0210499 Health Care Services                             
20120629 398231100 US3982311009 GRIF     NASDAQ       GRIFFIN LAND & NURSERIES       2803      78455.97  0.013650 10 Financial Services             1050 Real Estate                                      1050805 Real Estate                                      
20120629 398433102 US3984331021 GFF      NYSE         GRIFFON CORP                  45499     390381.42  0.067917 07 Materials & Processing         0710 Building Materials & Services                    0710430 Building Materials                               
20120629 398905109 US3989051095 GPI      NYSE         GROUP 1 AUTOMOTIVE INC        22924    1045563.64  0.181904 03 Consumer Discretionary         0360 Retail                                           0360834 Specialty Retail                                 
20120629 40052B108 US40052B1089 GTXI     NASDAQ       GTX INC                        4151      14653.31  0.002549 02 Health Care                    0230 Pharmaceuticals & Biotech                        0230412 Biotechnology                                    
20120629 40075T102 US40075T1025 GBNK     NASDAQ       GUARANTY BANCORP              76157     160691.27  0.027957 10 Financial Services             1010 Banks                                            1010400 Banks: Diversified                               
20120629 402307102 US4023071024 GIFI     NASDAQ       GULF ISLAND FABRICATION       14385     405800.85  0.070600 06 Energy                         0610 Energy Equipment & Services                      0610600 Oil Well Equipment & Services                    
20120629 402629208 US4026292080 GLF      NYSE         GULFMARK OFFSHORE INC         21008     715108.58  0.124412 08 Producer Durables              0840 Transportation & Freight                         0840830 Shipping                                         
20120629 402635304 US4026353049 GPOR     NASDAQ       GULFPORT ENERGY CORP          36952     762311.51  0.132625 06 Energy                         0620 Non-Renewable Energy                             0620670 Oil: Crude Producers                             
20120629 403820103 US4038201038 GYRO     NASDAQ       GYRODYNE CO AMER INC             70       8025.71  0.001396 10 Financial Services             1050 Real Estate                                      1050806 Real Estate Investment Trusts (REITs)            
20120629 404030108 US4040301081 HEES     NASDAQ       H&E EQUIPMENT SERVICES        12712     191072.95  0.033242 08 Producer Durables              0840 Transportation & Freight                         0840808 Commercial Services: Rental & Leasing            
20120629 40418F108 US40418F1084 HF       NYSE         HFF INC                        4795      66846.30  0.011630 10 Financial Services             1050 Real Estate                                      1050805 Real Estate                                      
20120629 404251100 US4042511000 HNI      NYSE         HNI CORPORATION                2458      63313.64  0.011015 08 Producer Durables              0820 Manufacturing & Production                       0820650 Office Supplies Equipment                        
20120629 40537Q209 US40537Q2093 HK       NYSE         HALCON RESOURCES CORP         13883     131059.09  0.022801 06 Energy                         0620 Non-Renewable Energy                             0620670 Oil: Crude Producers                             
20120629 40609P105 US40609P1057 HNRG     NASDAQ       HALLADOR ENERGY CO             6540      55459.20  0.009649 06 Energy                         0620 Non-Renewable Energy                             0620435 Coal                                             
20120629 40624Q203 US40624Q2030 HALL     NASDAQ       HALLMARK FINL SVCS INC        13328     103954.42  0.018086 10 Financial Services             1030 Insurance                                        1030542 Insurance: Property-Casualty                     
20120629 410120109 US4101201097 HBHC     NASDAQ       HANCOCK HOLDING CO            76293    2322358.92  0.404037 10 Financial Services             1010 Banks                                            1010400 Banks: Diversified                               
20120629 410315105 US4103151050 HNH      NASDAQ       HANDY & HARMAN HLDGS LTD        624       8417.29  0.001464 07 Materials & Processing         0740 Metals & Minerals                                0740835 Steel                                            
20120629 41043F208 US41043F2083 HGR      NYSE         HANGER INC                    34117     874759.88  0.152188 02 Health Care                    0210 Health Care Services                             0210504 Health Care Facilities                           
20120629 410495204 US4104952043 HAFC     NASDAQ       HANMI FINANCIAL CORP          31489     330004.72  0.057413 10 Financial Services             1010 Banks                                            1010400 Banks: Diversified                               
20120629 41146A106 US41146A1060 HRG      NYSE         HARBINGER GROUP INC           41194     320901.26  0.055829 07 Materials & Processing         0730 Industrial Materials & Processes                 0730452 Diversified Materials & Processing               
20120629 412324303 US4123243036 HDNG     NASDAQ       HARDINGE INC                  11674     106233.40  0.018482 08 Producer Durables              0810 Machinery                                        0810584 Machinery: Industrial                            
20120629 413160102 US4131601027 HLIT     NASDAQ       HARMONIC INC                 117573     500860.98  0.087138 01 Technology                     0140 Telecommunication                                0140448 Communications Technology                        
20120629 413833104 US4138331040 TINY     NASDAQ       HARRIS & HARRIS GROUP         31001     117803.80  0.020495 10 Financial Services             1040 Investment Banking & Brokerage Services          1040544 Asset Management & Custodian                     
20120629 414585109 US4145851097 HTSI     NYSE         HARRIS TEETER SUPERMKTS       37819    1550181.38  0.269696 04 Consumer Staples               0420 Personal Care/Drug & Grocery Stores              0420459 Drug & Grocery Store Chains                      
20120629 416196103 US4161961036 HHS      NYSE         HARTE HANKS INC               44539     407086.46  0.070824 03 Consumer Discretionary         0350 Media                                            0350301 Advertising Agencies                             
20120629 416906105 US4169061052 HBIO     NASDAQ       HARVARD BIOSCIENCE INC        23085      87029.35  0.015141 02 Health Care                    0230 Pharmaceuticals & Biotech                        0230412 Biotechnology                                    
20120629 41754V103 US41754V1035 HNR      NYSE         HARVEST NATURAL RES           35348     302219.33  0.052579 06 Energy                         0620 Non-Renewable Energy                             0620670 Oil: Crude Producers                             
20120629 419596101 US4195961010 HVT      NYSE         HAVERTY FURNITURE INC         19183     214274.11  0.037279 03 Consumer Discretionary         0360 Retail                                           0360834 Specialty Retail                                 
20120629 419879101 US4198791018 HA       NASDAQ       HAWAIIAN HOLDINGS INC         23235     151260.05  0.026316 08 Producer Durables              0840 Transportation & Freight                         0840310 Air Transport                                    
20120629 420031106 US4200311060 HCOM     NASDAQ       HAWAIIAN TELCOM HOLDCO        10245     199879.95  0.034774 11 Utilities                      1110 Utilities                                        1110880 Utilities: Telecommunications                    
20120629 420877201 US4208772016 HAYN     NASDAQ       HAYNES INTERNATIONAL INC       2137     108888.83  0.018944 07 Materials & Processing         0740 Metals & Minerals                                0740630 Metal Fabricating                                
20120629 421924309 US4219243098 HLS      NYSE         HEALTHSOUTH CORP              14910     346828.65  0.060340 02 Health Care                    0210 Health Care Services                             0210504 Health Care Facilities                           
20120629 421946104 US4219461047 HR       NYSE         HEALTHCARE REALTY TRUST       77962    1858614.08  0.323356 10 Financial Services             1050 Real Estate                                      1050806 Real Estate Investment Trusts (REITs)            
20120629 422245100 US4222451001 HWAY     NASDAQ       HEALTHWAYS INC                33405     266571.90  0.046377 02 Health Care                    0210 Health Care Services                             0210499 Health Care Services                             
20120629 422347104 US4223471040 HTLD     NASDAQ       HEARTLAND EXPRESS INC         10893     155882.78  0.027120 08 Producer Durables              0840 Transportation & Freight                         0840865 Truckers                                         
20120629 42234Q102 US42234Q1022 HTLF     NASDAQ       HEARTLAND FINANCIAL USA       14525     348600.00  0.060648 10 Financial Services             1010 Banks                                            1010400 Banks: Diversified                               
20120629 422680108 US4226801086 HEK      NYSE         HECKMANN CORP                124684     421431.55  0.073319 06 Energy                         0610 Energy Equipment & Services                      0610600 Oil Well Equipment & Services                    
20120629 422704106 US4227041062 HL       NYSE         HECLA MINING CO              285298    1355165.50  0.235767 07 Materials & Processing         0740 Metals & Minerals                                0740635 Metals & Minerals: Diversified                   
20120629 422819102 US4228191023 HSII     NASDAQ       HEIDRICK & STRUGGLES          17986     314755.00  0.054760 08 Producer Durables              0850 Commercial Services                              0850365 Back Office Support HR & Consutling              
20120629 42330P107 US42330P1075 HLX      NYSE         HELIX ENERGY SOLUTIONS       105641    1733568.81  0.301601 06 Energy                         0610 Energy Equipment & Services                      0610600 Oil Well Equipment & Services                    
20120629 426927109 US4269271098 HTBK     NASDAQ       HERITAGE COMMERCE CORP        20740     134810.00  0.023454 10 Financial Services             1010 Banks                                            1010400 Banks: Diversified                               
20120629 427093109 US4270931094 HERO     NASDAQ       HERCULES OFFSHORE INC        158451     560916.54  0.097586 06 Energy                         0620 Non-Renewable Energy                             0620660 Offshore Drilling & Other Services               
20120629 427096508 US4270965084 HTGC     NYSE         HERCULES TECHNOLOGY GR        49715     563768.10  0.098083 10 Financial Services             1040 Investment Banking & Brokerage Services          1040544 Asset Management & Custodian                     
20120629 42722X106 US42722X1063 HFWA     NASDAQ       HERITAGE FINANCIAL CORP       15476     226723.40  0.039445 10 Financial Services             1010 Banks                                            1010820 Banks: Savings/Thrifts & Mortgage Lend           
20120629 42724R107 US42724R1077 HEOP     NASDAQ       HERITAGE OAKS BANCORP         20092     111912.44  0.019470 10 Financial Services             1010 Banks                                            1010400 Banks: Diversified                               
20120629 42726X102 US42726X1028 HBOS     NASDAQ       HERITAGE FINANCIAL GROUP       7759      99855.18  0.017372 10 Financial Services             1010 Banks                                            1010820 Banks: Savings/Thrifts & Mortgage Lend           
20120629 427825104 US4278251040 HT       NYSE         HERSHA HOSPITALITY TRUST     171961     907954.08  0.157963 10 Financial Services             1050 Real Estate                                      1050806 Real Estate Investment Trusts (REITs)            
20120629 42833L108 US42833L1089 HGG      NYSE         HHGREGG INC                   14667     165874.54  0.028858 03 Consumer Discretionary         0360 Retail                                           0360834 Specialty Retail                                 
20120629 42840B101 US42840B1017 HITK     NASDAQ       HI-TECH PHARMACAL CO INC       6585     213327.76  0.037114 02 Health Care                    0230 Pharmaceuticals & Biotech                        0230460 Pharmaceuticals                                  
20120629 431284108 US4312841087 HIW      NYSE         HIGHWOODS PROPERTIES INC      13897     467664.34  0.081363 10 Financial Services             1050 Real Estate                                      1050806 Real Estate Investment Trusts (REITs)            
20120629 431466101 US4314661012 HIL      NYSE         HILL INTERNATIONAL INC        21373      68392.25  0.011899 08 Producer Durables              0850 Commercial Services                              0850479 Engineering & Contracting Services               
20120629 432748101 US4327481010 HTH      NYSE         HILLTOP HOLDINGS INC          39678     409080.18  0.071170 10 Financial Services             1030 Insurance                                        1030542 Insurance: Property-Casualty                     
20120629 433323102 US4333231029 HIFS     NASDAQ       HINGHAM INSTN SVGS MASS        1171      70800.33  0.012318 10 Financial Services             1010 Banks                                            1010820 Banks: Savings/Thrifts & Mortgage Lend           
20120629 436893200 US4368932004 HOMB     NASDAQ       HOME BANCSHARES INC           22034     673799.72  0.117226 10 Financial Services             1010 Banks                                            1010400 Banks: Diversified                               
20120629 43689E107 US43689E1073 HBCP     NASDAQ       HOME BANCORP INC               6833     117049.29  0.020364 10 Financial Services             1010 Banks                                            1010820 Banks: Savings/Thrifts & Mortgage Lend           
20120629 43710G105 US43710G1058 HOME     NASDAQ       HOME FEDERAL BANCORP          15703     164881.50  0.028686 10 Financial Services             1010 Banks                                            1010820 Banks: Savings/Thrifts & Mortgage Lend           
20120629 43741E103 US43741E1038 HCII     NASDAQ       HOMEOWNERS CHOICE INC          5729     100813.57  0.017539 10 Financial Services             1030 Insurance                                        1030542 Insurance: Property-Casualty                     
20120629 43785V102 US43785V1026 HMST     NASDAQ       HOMESTREET INC                 4355     139316.45  0.024238 10 Financial Services             1010 Banks                                            1010400 Banks: Diversified                               
20120629 439038100 US4390381006 HOFT     NASDAQ       HOOKER FURNITURE CORP         10793     127249.47  0.022138 03 Consumer Discretionary         0320 Consumer Products                                0320523 Household Furnishings                            
20120629 440327104 US4403271046 HMN      NYSE         HORACE MANN EDUCATORS         39663     693309.24  0.120620 10 Financial Services             1030 Insurance                                        1030535 Insurance: Multi-Line                            
20120629 440407104 US4404071049 HBNC     NASDAQ       HORIZON BANCORP IND            3747      98546.10  0.017145 10 Financial Services             1010 Banks                                            1010400 Banks: Diversified                               
20120629 44045A102 US44045A1025 HRZN     NASDAQ       HORIZON TECH FIN CORP          6257     103177.93  0.017951 10 Financial Services             1040 Investment Banking & Brokerage Services          1040544 Asset Management & Custodian                     
20120629 44047T109 US44047T1097 HZNP     NASDAQ       HORIZON PHARMA INC             9578      68294.65  0.011882 02 Health Care                    0230 Pharmaceuticals & Biotech                        0230460 Pharmaceuticals                                  
20120629 440543106 US4405431069 HOS      NYSE         HORNBECK OFFSHORE SVCS        35308    1369244.24  0.238217 06 Energy                         0610 Energy Equipment & Services                      0610600 Oil Well Equipment & Services                    
20120629 440694305 US4406943054 ZINC     NASDAQ       HORSEHEAD HOLDING CORP        43807     436317.72  0.075909 07 Materials & Processing         0740 Metals & Minerals                                0740549 Precious Metals & Minerals                       
20120629 44244K109 US44244K1097 HWCC     NASDAQ       HOUSTON WIRE & CABLE          11448     125121.20  0.021768 08 Producer Durables              0830 Scientific Instruments & Services                0830465 Scientific Instruments: Electrical               
20120629 442487203 US4424872038 HOV      NYSE         HOVNANIAN ENTERPRISES         99785     289376.50  0.050345 03 Consumer Discretionary         0320 Consumer Products                                0320501 Homebuilding                                     
20120629 443787106 US4437871068 HSON     NASDAQ       HUDSON GLOBAL INC             33249     138648.33  0.024122 08 Producer Durables              0850 Commercial Services                              0850365 Back Office Support HR & Consutling              
20120629 444097109 US4440971095 HPP      NYSE         HUDSON PAC PPTYS INC          35843     624026.63  0.108566 10 Financial Services             1050 Real Estate                                      1050806 Real Estate Investment Trusts (REITs)            
20120629 444172100 US4441721002 HVB      NYSE         HUDSON VALLEY HOLDING         15527     281038.70  0.048894 10 Financial Services             1010 Banks                                            1010400 Banks: Diversified                               
20120629 447324104 US4473241044 HURC     NASDAQ       HURCO COMPANIES INC            6441     131976.09  0.022961 08 Producer Durables              0810 Machinery                                        0810610 Machinery: Specialty                             
20120629 448947507 US4489475073 IDT      NYSE         IDT CORP                        968       9503.61  0.001653 11 Utilities                      1110 Utilities                                        1110880 Utilities: Telecommunications                    
20120629 44925C103 US44925C1036 ICFI     NASDAQ       ICF INTERNATIONAL INC         19912     474702.08  0.082587 08 Producer Durables              0850 Commercial Services                              0850365 Back Office Support HR & Consutling              
20120629 44928D108 US44928D1081 ICGE     NASDAQ       ICG GROUP INC                 34225     316576.43  0.055077 01 Technology                     0130 Information Technology                           0130439 Computer Services Software & Systems             
20120629 44930G107 US44930G1076 ICUI     NASDAQ       ICU MEDICAL INC                1138      60792.61  0.010577 02 Health Care                    0220 Medical Equipment & Services                     0220507 Medical & Dental Instruments & Supplies          
20120629 45031U101 US45031U1016 SFI      NYSE         ISTAR FINANCIAL INC           84358     544109.10  0.094662 10 Financial Services             1050 Real Estate                                      1050806 Real Estate Investment Trusts (REITs)            
20120629 450828108 US4508281080 IBKC     NASDAQ       IBERIABANK CORP               29525    1489536.25  0.259145 10 Financial Services             1010 Banks                                            1010400 Banks: Diversified                               
20120629 451055107 US4510551074 ICON     NASDAQ       ICONIX BRAND GROUP INC        70879    1238256.13  0.215428 03 Consumer Discretionary         0320 Consumer Products                                0320850 Textiles Apparel & Shoes                         
20120629 451107106 US4511071064 IDA      NYSE         IDACORP INC                   50096    2108039.68  0.366750 11 Utilities                      1110 Utilities                                        1110870 Utilities: Electrical                            
20120629 45166R204 US45166R2040 IDIX     NASDAQ       IDENIX PHARMACEUTICALS         8670      89307.72  0.015537 02 Health Care                    0230 Pharmaceuticals & Biotech                        0230412 Biotechnology                                    
20120629 45245A107 US45245A1079 IMN      NYSE         IMATION CORP                  30903     182636.73  0.031775 01 Technology                     0130 Information Technology                           0130449 Computer Technology                              
20120629 452521107 US4525211078 IMMR     NASDAQ       IMMERSION CORP                 1883      10604.88  0.001845 01 Technology                     0130 Information Technology                           0130449 Computer Technology                              
20120629 45253H101 US45253H1014 IMGN     NASDAQ       IMMUNOGEN INC                 17082     286639.23  0.049869 02 Health Care                    0230 Pharmaceuticals & Biotech                        0230412 Biotechnology                                    
20120629 45336E109 US45336E1091 SAAS     NASDAQ       INCONTACT INC                  2055      10300.39  0.001792 11 Utilities                      1110 Utilities                                        1110880 Utilities: Telecommunications                    
20120629 453440307 US4534403070 IHC      NYSE         INDEPENDENCE HOLDING CO        8168      80454.80  0.013997 10 Financial Services             1030 Insurance                                        1030528 Insurance: Life                                  
20120629 453836108 US4538361084 INDB     NASDAQ       INDEPENDENT BANK MA           21621     631549.41  0.109875 10 Financial Services             1010 Banks                                            1010400 Banks: Diversified                               
20120629 45665Q103 US45665Q1031 IPCC     NASDAQ       INFINITY PPTY & CAS CORP      11811     681140.37  0.118503 10 Financial Services             1030 Insurance                                        1030542 Insurance: Property-Casualty                     
20120629 45667G103 US45667G1031 INFN     NASDAQ       INFINERA CORP                 11081      75798.27  0.013187 01 Technology                     0140 Telecommunication                                0140448 Communications Technology                        
20120629 45672H104 US45672H1041 BLOX     NYSE         INFOBLOX INC                    419       9613.54  0.001673 01 Technology                     0130 Information Technology                           0130439 Computer Services Software & Systems             
20120629 457030104 US4570301048 IMKTA    NASDAQ       INGLES MARKETS INC            12615     202218.45  0.035181 04 Consumer Staples               0420 Personal Care/Drug & Grocery Stores              0420459 Drug & Grocery Store Chains                      
20120629 457461200 US4574612002 IRC      NYSE         INLAND REAL ESTATE CORP       41928     351352.28  0.061127 10 Financial Services             1050 Real Estate                                      1050806 Real Estate Investment Trusts (REITs)            
20120629 45765U103 US45765U1034 NSIT     NASDAQ       INSIGHT ENTERPRISES INC       44408     747386.64  0.130028 01 Technology                     0130 Information Technology                           0130449 Computer Technology                              
20120629 45768S105 US45768S1050 IOSP     NASDAQ       INNOSPEC INC                  20210     598397.97  0.104107 07 Materials & Processing         0720 Chemicals and Synthetics                         0720833 Chemicals: Specialty                             
20120629 45772F107 US45772F1075 IPHI     NYSE         INPHI CORP                    13936     132104.52  0.022983 01 Technology                     0120 Electronics                                      0120476 Semiconductors & Components                      
20120629 45774W108 US45774W1080 IIIN     NASDAQ       INSTEEL INDUSTRIES INC        16665     185813.88  0.032327 07 Materials & Processing         0730 Industrial Materials & Processes                 0730452 Diversified Materials & Processing               
20120629 457985208 US4579852082 IART     NASDAQ       INTEGRA LIFESCIENCES           8348     310383.85  0.054000 02 Health Care                    0220 Medical Equipment & Services                     0220507 Medical & Dental Instruments & Supplies          
20120629 45810N302 US45810N3026 INMD     NASDAQ       INTEGRAMED AMER INC            3609      49997.72  0.008698 02 Health Care                    0210 Health Care Services                             0210504 Health Care Facilities                           
20120629 458118106 US4581181066 IDTI     NASDAQ       INTEGRATED DEVICE TECH       142272     799568.64  0.139106 01 Technology                     0120 Electronics                                      0120476 Semiconductors & Components                      
20120629 45812P107 US45812P1075 ISSI     NASDAQ       INTEGRATED SILICON S          27314     275598.26  0.047948 01 Technology                     0120 Electronics                                      0120476 Semiconductors & Components                      
20120629 458334109 US4583341098 IPAR     NASDAQ       INTER PARFUMS INC              4627      79909.15  0.013902 03 Consumer Discretionary         0320 Consumer Products                                0320450 Cosmetics                                        
20120629 458743101 US4587431010 IBI      NYSE         INTERLINE BRANDS INC          28574     716348.55  0.124628 07 Materials & Processing         0710 Building Materials & Services                    0710415 Building: Climate Control                        
20120629 458786100 US4587861000 IN       NYSE         INTERMEC INC                  52369     324685.64  0.056488 01 Technology                     0130 Information Technology                           0130449 Computer Technology                              
20120629 45884X103 US45884X1037 ITMN     NASDAQ       INTERMUNE INC                 28839     344633.65  0.059958 02 Health Care                    0230 Pharmaceuticals & Biotech                        0230412 Biotechnology                                    
20120629 45885A300 US45885A3005 INAP     NASDAQ       INTERNAP NETWORK SVCS CO      26206     170605.62  0.029681 01 Technology                     0130 Information Technology                           0130439 Computer Services Software & Systems             
20120629 459044103 US4590441030 IBOC     NASDAQ       INTERNATIONAL BANCSHARES      53262    1039674.24  0.180879 10 Financial Services             1010 Banks                                            1010400 Banks: Diversified                               
20120629 460254105 US4602541058 IRF      NYSE         INTERNATIONAL RECTIFIER       69188    1383068.12  0.240622 01 Technology                     0120 Electronics                                      0120476 Semiconductors & Components                      
20120629 460321201 US4603212014 ISH      NYSE         INTL SHIPHOLDING CORP          5482     103390.52  0.017988 08 Producer Durables              0840 Transportation & Freight                         0840830 Shipping                                         
20120629 460335201 US4603352018 ISCA     NASDAQ       INTERNATIONAL SPEEDWAY        27706     725343.08  0.126193 03 Consumer Discretionary         0340 Leisure                                          0340556 Leisure Time                                     
20120629 46069S109 US46069S1096 ISIL     NASDAQ       INTERSIL CORP                127443    1357267.95  0.236133 01 Technology                     0120 Electronics                                      0120476 Semiconductors & Components                      
20120629 460981301 US4609813013 INTX     NASDAQ       INTERSECTIONS INC              3021      47893.03  0.008332 10 Financial Services             1040 Investment Banking & Brokerage Services          1040457 Diversified Financial Services                   
20120629 461148108 US4611481080 IVAC     NASDAQ       INTEVAC INC                   23263     174937.76  0.030435 01 Technology                     0120 Electronics                                      0120738 Production Technology Equipment                  
20120629 46116V105 US46116V1052 INTL     NASDAQ       INTL FCSTONE INC              13772     266488.20  0.046363 10 Financial Services             1040 Investment Banking & Brokerage Services          1040823 Securities Brokerage & Services                  
20120629 46118H104 US46118H1041 IL       NYSE         INTRALINKS HLDGS INC          36458     159686.04  0.027782 01 Technology                     0130 Information Technology                           0130439 Computer Services Software & Systems             
20120629 461203101 US4612031017 IVC      NYSE         INVACARE CORP                 31820     490982.60  0.085420 02 Health Care                    0220 Medical Equipment & Services                     0220507 Medical & Dental Instruments & Supplies          
20120629 46131B100 US46131B1008 IVR      NYSE         INVESCO MORTGAGE CAP         115405    2116527.70  0.368227 10 Financial Services             1050 Real Estate                                      1050806 Real Estate Investment Trusts (REITs)            
20120629 46145F105 US46145F1057 ITG      NYSE         INVESTMENT TECHNOLOGY         38809     357042.80  0.062117 10 Financial Services             1040 Investment Banking & Brokerage Services          1040823 Securities Brokerage & Services                  
20120629 46146P102 US46146P1021 ISBC     NASDAQ       INVESTORS BANCORP INC         36822     555630.38  0.096667 10 Financial Services             1010 Banks                                            1010400 Banks: Diversified                               
20120629 461730103 US4617301035 IRET     NASDAQ       INVESTORS REAL ESTATE TR      85670     676793.00  0.117746 10 Financial Services             1050 Real Estate                                      1050806 Real Estate Investment Trusts (REITs)            
20120629 461804106 US4618041069 ITIC     NASDAQ       INVESTORS TITLE CO             1237      70422.41  0.012252 10 Financial Services             1030 Insurance                                        1030542 Insurance: Property-Casualty                     
20120629 46261V108 US46261V1089 IPAS     NASDAQ       IPASS INC                      3790       9020.93  0.001569 11 Utilities                      1110 Utilities                                        1110880 Utilities: Telecommunications                    
20120629 46269C102 US46269C1027 IRDM     NASDAQ       IRIDIUM COMMUNICATIONS        42748     383014.55  0.066636 11 Utilities                      1110 Utilities                                        1110880 Utilities: Telecommunications                    
20120629 464592104 US4645921044 ISLE     NASDAQ       ISLE OF CAPRI CASINOS         20933     129156.61  0.022470 03 Consumer Discretionary         0340 Leisure                                          0340434 Casinos & Gambling                               
20120629 46600W106 US46600W1062 IXYS     NASDAQ       IXYS CORP                     24534     274044.78  0.047677 01 Technology                     0120 Electronics                                      0120476 Semiconductors & Components                      
20120629 46612K108 US46612K1088 JDAS     NASDAQ       JDA SOFTWARE GROUP INC        32850     975297.85  0.169679 01 Technology                     0130 Information Technology                           0130439 Computer Services Software & Systems             
20120629 46629U107 US46629U1079 JMP      NYSE         JMP GROUP INC                 15997      98861.46  0.017200 10 Financial Services             1040 Investment Banking & Brokerage Services          1040544 Asset Management & Custodian                     
20120629 466367109 US4663671091 JACK     NASDAQ       JACK IN THE BOX INC            8490     236702.54  0.041181 03 Consumer Discretionary         0340 Leisure                                          0340810 Restaurants                                      
20120629 47012E106 US47012E1064 JAKK     NASDAQ       JAKKS PACIFIC INC             26019     416564.19  0.072473 03 Consumer Discretionary         0320 Consumer Products                                0320858 Toys                                             
20120629 477143101 US4771431016 JBLU     NASDAQ       JETBLUE AIRWAYS CORP         233684    1238525.20  0.215475 08 Producer Durables              0840 Transportation & Freight                         0840310 Air Transport                                    
20120629 479167108 US4791671088 JOUT     NASDAQ       JOHNSON OUTDOORS INC           5665     116699.00  0.020303 03 Consumer Discretionary         0340 Leisure                                          0340556 Leisure Time                                     
20120629 48020T101 US48020T1016 JNY      NYSE         THE JONES GROUP INC           82110     784971.60  0.136567 03 Consumer Discretionary         0320 Consumer Products                                0320850 Textiles Apparel & Shoes                         
20120629 480838101 US4808381010 JOSB     NASDAQ       JOS A BANK CLOTHIERS INC       1976      83919.09  0.014600 03 Consumer Discretionary         0360 Retail                                           0360834 Specialty Retail                                 
20120629 481130102 US4811301021 JRN      NYSE         JOURNAL COMMUNICATIONS        42958     221663.28  0.038564 03 Consumer Discretionary         0350 Media                                            0350740 Publishing                                       
20120629 48123V102 US48123V1026 JCOM     NASDAQ       J2 GLOBAL INC                  7956     210216.54  0.036573 11 Utilities                      1110 Utilities                                        1110880 Utilities: Telecommunications                    
20120629 482423100 US4824231009 KBW      NYSE         KBW INC                       34729     571292.05  0.099392 10 Financial Services             1040 Investment Banking & Brokerage Services          1040823 Securities Brokerage & Services                  
20120629 482470200 US4824702009 KITD     NASDAQ       KIT DIGITAL INC               47941     205666.89  0.035781 01 Technology                     0130 Information Technology                           0130439 Computer Services Software & Systems             
20120629 482686102 US4826861027 KSWS     NASDAQ       K-SWISS INC                   26415      81358.20  0.014154 03 Consumer Discretionary         0320 Consumer Products                                0320850 Textiles Apparel & Shoes                         
20120629 482738101 US4827381017 KVHI     NASDAQ       KVH INDUSTRIES INC             2170      27127.01  0.004719 01 Technology                     0140 Telecommunication                                0140448 Communications Technology                        
20120629 48282T104 US48282T1043 KAI      NYSE         KADANT INC                    11678     273849.10  0.047643 08 Producer Durables              0810 Machinery                                        0810584 Machinery: Industrial                            
20120629 483007704 US4830077040 KALU     NASDAQ       KAISER ALUMINUM CORP          19294    1000200.96  0.174012 07 Materials & Processing         0740 Metals & Minerals                                0740320 Aluminum                                         
20120629 483056107 US4830561076 KFFG     NASDAQ       KAISER FEDERAL FIN GRP         9050     133759.00  0.023271 10 Financial Services             1010 Banks                                            1010820 Banks: Savings/Thrifts & Mortgage Lend           
20120629 484836101 US4848361014 KCLI     NASDAQ       KANSAS CITY LIFE INS CO        4127     145229.13  0.025267 10 Financial Services             1030 Insurance                                        1030528 Insurance: Life                                  
20120629 48562P103 US48562P1030 KS       NYSE         KAPSTONE PAPER & PACKAGI      40402     640371.70  0.111410 07 Materials & Processing         0730 Industrial Materials & Processes                 0730720 Paper                                            
20120629 486587108 US4865871085 KDN      NYSE         KAYDON CORP                   32041     685356.99  0.119236 07 Materials & Processing         0740 Metals & Minerals                                0740630 Metal Fabricating                                
20120629 48666K109 US48666K1097 KBH      NYSE         KB HOME                       77138     755952.40  0.131518 03 Consumer Discretionary         0320 Consumer Products                                0320501 Homebuilding                                     
20120629 487169104 US4871691048 KRNY     NASDAQ       KEARNY FINANCIAL CORP         15135     146658.15  0.025515 10 Financial Services             1010 Banks                                            1010820 Banks: Savings/Thrifts & Mortgage Lend           
20120629 488152208 US4881522084 KELYA    NASDAQ       KELLY SERVICES INC            26801     346000.91  0.060196 08 Producer Durables              0850 Commercial Services                              0850365 Back Office Support HR & Consutling              
20120629 488360207 US4883602074 KEM      NYSE         KEMET CORP                    44887     269770.87  0.046934 01 Technology                     0120 Electronics                                      0120463 Electronic Components                            
20120629 489398107 US4893981070 KW       NYSE         KENNEDY-WILSON HLDGS INC      35084     491526.84  0.085514 10 Financial Services             1050 Real Estate                                      1050805 Real Estate                                      
20120629 492914106 US4929141061 KEG      NYSE         KEY ENERGY SERVICES INC      151012    1147691.20  0.199672 06 Energy                         0610 Energy Equipment & Services                      0610600 Oil Well Equipment & Services                    
20120629 493144109 US4931441095 KTCC     NASDAQ       KEY TRONICS CORP               8615      70982.17  0.012349 01 Technology                     0120 Electronics                                      0120643 Technology: Misc                                 
20120629 493308100 US4933081006 KEYN     NASDAQ       KEYNOTE SYSTEMS INC           15696     233085.60  0.040551 01 Technology                     0130 Information Technology                           0130439 Computer Services Software & Systems             
20120629 493723100 US4937231003 KEYW     NASDAQ       KEYW HOLDING CORP             10727     107697.55  0.018737 01 Technology                     0130 Information Technology                           0130439 Computer Services Software & Systems             
20120629 493732101 US4937321010 KFRC     NASDAQ       KFORCE INC                     2535      34127.24  0.005937 08 Producer Durables              0850 Commercial Services                              0850365 Back Office Support HR & Consutling              
20120629 494274103 US4942741038 KBALB    NASDAQ       KIMBALL INTERNATIONAL         32594     250973.80  0.043664 08 Producer Durables              0820 Manufacturing & Production                       0820650 Office Supplies Equipment                        
20120629 494580103 US4945801037 KND      NYSE         KINDRED HEALTHCARE INC        52898     519987.34  0.090466 02 Health Care                    0210 Health Care Services                             0210504 Health Care Facilities                           
20120629 497498105 US4974981056 KIRK     NASDAQ       KIRKLANDS INC                 14463     162708.75  0.028308 03 Consumer Discretionary         0320 Consumer Products                                0320523 Household Furnishings                            
20120629 49803T102 US49803T1025 KRG      NYSE         KITE REALTY GROUP TRUST       55095     274924.05  0.047830 10 Financial Services             1050 Real Estate                                      1050806 Real Estate Investment Trusts (REITs)            
20120629 498904200 US4989042001 KNL      NYSE         KNOLL INC                     14572     195559.46  0.034023 08 Producer Durables              0820 Manufacturing & Production                       0820650 Office Supplies Equipment                        
20120629 499005106 US4990051066 KCG      NYSE         KNIGHT CAPITAL GROUP INC      98211    1172639.34  0.204012 10 Financial Services             1040 Investment Banking & Brokerage Services          1040823 Securities Brokerage & Services                  
20120629 500233101 US5002331016 KCAP     NASDAQ       KOHLBERG CAPITAL CORP         21760     157977.60  0.027484 10 Financial Services             1040 Investment Banking & Brokerage Services          1040544 Asset Management & Custodian                     
20120629 500600101 US5006001011 KOPN     NASDAQ       KOPIN CORP                    66825     229878.00  0.039993 01 Technology                     0120 Electronics                                      0120476 Semiconductors & Components                      
20120629 500643200 US5006432000 KFY      NYSE         KORN FERRY INTERNATIONAL      47816     686159.60  0.119376 08 Producer Durables              0850 Commercial Services                              0850365 Back Office Support HR & Consutling              
20120629 50077B207 US50077B2079 KTOS     NASDAQ       KRATOS DEFENSE & SEC SOL      40118     234289.12  0.040761 08 Producer Durables              0840 Transportation & Freight                         0840300 Aerospace                                        
20120629 50077C106 US50077C1062 KRA      NYSE         KRATON PERF POLYMERS          32241     706400.31  0.122897 07 Materials & Processing         0720 Chemicals and Synthetics                         0720833 Chemicals: Specialty                             
20120629 501014104 US5010141043 KKD      NYSE         KRISPY KREME DOUGHNUTS        59451     379891.89  0.066092 03 Consumer Discretionary         0340 Leisure                                          0340810 Restaurants                                      
20120629 50187A107 US50187A1079 LHCG     NASDAQ       LHC GROUP INC                 15066     255507.42  0.044452 02 Health Care                    0210 Health Care Services                             0210499 Health Care Services                             
20120629 502079106 US5020791068 LMIA     NASDAQ       LMI AEROSPACE INC              7933     137867.27  0.023986 08 Producer Durables              0840 Transportation & Freight                         0840300 Aerospace                                        
20120629 502160104 US5021601043 LXU      NYSE         LSB INDUSTRIES INC             7955     245917.98  0.042784 07 Materials & Processing         0720 Chemicals and Synthetics                         0720433 Chemicals: Diversified                           
20120629 50216C108 US50216C1080 LYTS     NASDAQ       LSI INDUSTRIES INC            19516     138953.92  0.024175 07 Materials & Processing         0710 Building Materials & Services                    0710430 Building Materials                               
20120629 502175102 US5021751020 LTC      NYSE         LTC PROPERTIES INC            23722     860610.94  0.149726 10 Financial Services             1050 Real Estate                                      1050806 Real Estate Investment Trusts (REITs)            
20120629 502403207 US5024032071 LTXC     NASDAQ       LTX-CREDENCE CORP             49009     328360.30  0.057127 01 Technology                     0120 Electronics                                      0120738 Production Technology Equipment                  
20120629 505336107 US5053361078 LZB      NYSE         LA Z BOY INC                  36467     448177.34  0.077972 03 Consumer Discretionary         0320 Consumer Products                                0320523 Household Furnishings                            
20120629 505597104 US5055971049 LG       NYSE         LACLEDE GROUP INC             22487     895207.47  0.155745 11 Utilities                      1110 Utilities                                        1110875 Utilities: Gas Distributors                      
20120629 511637100 US5116371007 LBAI     NASDAQ       LAKELAND BANCORP INC          26965     283671.80  0.049352 10 Financial Services             1010 Banks                                            1010400 Banks: Diversified                               
20120629 511656100 US5116561003 LKFN     NASDAQ       LAKELAND FINANCIAL CORP       16325     437999.75  0.076202 10 Financial Services             1010 Banks                                            1010400 Banks: Diversified                               
20120629 514766104 US5147661046 LNDC     NASDAQ       LANDEC CORP                   19213     164455.54  0.028611 07 Materials & Processing         0720 Chemicals and Synthetics                         0720433 Chemicals: Diversified                           
20120629 516012101 US5160121019 LCI      NYSE MKT     LANNETT CO INC                15969      67708.56  0.011780 02 Health Care                    0230 Pharmaceuticals & Biotech                        0230460 Pharmaceuticals                                  
20120629 517942108 US5179421087 LHO      NYSE         LASALLE HOTEL PROPERTIES      85636    2495433.04  0.434148 10 Financial Services             1050 Real Estate                                      1050806 Real Estate Investment Trusts (REITs)            
20120629 518415104 US5184151042 LSCC     NASDAQ       LATTICE SEMICONDUCTOR        117969     444743.13  0.077375 01 Technology                     0120 Electronics                                      0120476 Semiconductors & Components                      
20120629 521050104 US5210501046 LAYN     NASDAQ       LAYNE CHRISTENSEN CO          19846     410613.74  0.071437 08 Producer Durables              0850 Commercial Services                              0850479 Engineering & Contracting Services               
20120629 521863308 US5218633080 LEAP     NASDAQ       LEAP WIRELESS INTL INC        40070     257647.58  0.044825 11 Utilities                      1110 Utilities                                        1110880 Utilities: Telecommunications                    
20120629 52324W109 US52324W1099 LCRY     NASDAQ       LECROY CORP                    4426      63118.90  0.010981 01 Technology                     0120 Electronics                                      0120463 Electronic Components                            
20120629 528872104 US5288721047 LXRX     NASDAQ       LEXICON PHARMACEUTICALS      113152     254590.36  0.044293 02 Health Care                    0230 Pharmaceuticals & Biotech                        0230412 Biotechnology                                    
20120629 529043101 US5290431015 LXP      NYSE         LEXINGTON REALTY TRUST       118638    1004863.86  0.174823 10 Financial Services             1050 Real Estate                                      1050806 Real Estate Investment Trusts (REITs)            
20120629 53217R207 US53217R2076 LTM      NYSE         LIFE TIME FITNESS INC          3172     147533.63  0.025667 03 Consumer Discretionary         0340 Leisure                                          0340556 Leisure Time                                     
20120629 53222Q103 US53222Q1031 LCUT     NASDAQ       LIFETIME BRANDS INC            9676     120659.72  0.020992 03 Consumer Discretionary         0320 Consumer Products                                0320523 Household Furnishings                            
20120629 53261M104 US53261M1045 LLNW     NASDAQ       LIMELIGHT NETWORKS INC        60147     176230.71  0.030660 01 Technology                     0130 Information Technology                           0130439 Computer Services Software & Systems             
20120629 532774106 US5327741063 TVL      NYSE         LIN TV CORP                   30470      92019.40  0.016009 03 Consumer Discretionary         0350 Media                                            0350760 Radio & TV Broadcasters                          
20120629 533535100 US5335351004 LINC     NASDAQ       LINCOLN EDUCATIONAL SVS       22804     148226.00  0.025788 03 Consumer Discretionary         0330 Consumer Services                                0330461 Education Services                               
20120629 536797103 US5367971034 LAD      NYSE         LITHIA MOTORS INC             21672     499539.60  0.086908 03 Consumer Discretionary         0360 Retail                                           0360834 Specialty Retail                                 
20120629 537008104 US5370081045 LFUS     NASDAQ       LITTELFUSE INC                 2058     117111.19  0.020375 08 Producer Durables              0830 Scientific Instruments & Services                0830465 Scientific Instruments: Electrical               
20120629 538034109 US5380341090 LYV      NYSE         LIVE NATION ENT INC          140017    1285356.06  0.223622 03 Consumer Discretionary         0350 Media                                            0350480 Entertainment                                    
20120629 543881106 US5438811060 LORL     NASDAQ       LORAL SPACE & COMM              626      42201.58  0.007342 01 Technology                     0140 Telecommunication                                0140448 Communications Technology                        
20120629 546347105 US5463471053 LPX      NYSE         LOUISIANA PACIFIC CORP       137519    1496206.72  0.260305 07 Materials & Processing         0710 Building Materials & Services                    0710430 Building Materials                               
20120629 549282101 US5492821013 LUB      NYSE         LUBYS INC                     20005     134033.50  0.023319 03 Consumer Discretionary         0340 Leisure                                          0340810 Restaurants                                      
20120629 550819106 US5508191062 LDL      NYSE         LYDALL INC                    17084     230975.68  0.040184 08 Producer Durables              0820 Manufacturing & Production                       0820453 Diversified Manufacturing Operations             
20120629 55264U108 US55264U1088 MBFI     NASDAQ       MB FINANCIAL INC              54676    1177721.04  0.204896 10 Financial Services             1010 Banks                                            1010400 Banks: Diversified                               
20120629 552676108 US5526761086 MDC      NYSE         MDC HOLDINGS INC              38240    1249300.80  0.217349 03 Consumer Discretionary         0320 Consumer Products                                0320501 Homebuilding                                     
20120629 552697104 CA5526971042 MDCA     NASDAQ       MDC CORP                      15996     181390.39  0.031558 03 Consumer Discretionary         0350 Media                                            0350301 Advertising Agencies                             
20120629 552715104 US5527151048 WFR      NYSE         MEMC ELECTRIC MATERIALS      179806     390178.29  0.067882 01 Technology                     0120 Electronics                                      0120476 Semiconductors & Components                      
20120629 55277P104 US55277P1049 MGEE     NASDAQ       MGE ENERGY INC                23114    1093292.20  0.190208 11 Utilities                      1110 Utilities                                        1110870 Utilities: Electrical                            
20120629 552848103 US5528481030 MTG      NYSE         MGIC INVESTMENT CORP         188493     542859.84  0.094445 10 Financial Services             1020 Consumer Finance & Credit Services               1020492 Consumer Lending                                 
20120629 55305B101 US55305B1017 MHO      NYSE         M/I HOMES INC                 18816     325893.12  0.056698 03 Consumer Discretionary         0320 Consumer Products                                0320501 Homebuilding                                     
20120629 55306N104 US55306N1046 MKSI     NASDAQ       MKS INSTRUMENTS INC           52537    1519895.41  0.264427 01 Technology                     0120 Electronics                                      0120738 Production Technology Equipment                  
20120629 553829102 US5538291023 MVC      NYSE         MVC CAPITAL INC               23917     309725.15  0.053885 10 Financial Services             1040 Investment Banking & Brokerage Services          1040544 Asset Management & Custodian                     
20120629 55405W104 US55405W1045 MYRG     NASDAQ       MYR GROUP INC DEL              9184     156694.33  0.027261 08 Producer Durables              0850 Commercial Services                              0850479 Engineering & Contracting Services               
20120629 55405Y100 US55405Y1001 MTSI     NASDAQ       MA COM TECHNOLOGY SOL          5041      93250.92  0.016223 01 Technology                     0120 Electronics                                      0120476 Semiconductors & Components                      
20120629 554153106 US5541531068 TUC      NYSE         MAC-GRAY CORP                 10212     143885.90  0.025033 08 Producer Durables              0850 Commercial Services                              0850484 Environmental Maint & Security Service           
20120629 559079207 US5590792074 MGLN     NASDAQ       MAGELLAN HEALTH SVCS INC      25893    1173717.18  0.204200 02 Health Care                    0210 Health Care Services                             0210503 Health Care Management Services                  
20120629 55973B102 US55973B1026 MHR      NYSE         MAGNUM HUNTER RES CORP        95623     399701.47  0.069539 06 Energy                         0620 Non-Renewable Energy                             0620670 Oil: Crude Producers                             
20120629 560305104 US5603051047 MFB      NYSE         MAIDENFORM BRANDS INC          6754     134556.25  0.023410 03 Consumer Discretionary         0320 Consumer Products                                0320850 Textiles Apparel & Shoes                         
20120629 56035L104 US56035L1044 MAIN     NYSE         MAIN STREET CAPITAL CORP      22039     533332.64  0.092788 10 Financial Services             1040 Investment Banking & Brokerage Services          1040457 Diversified Financial Services                   
20120629 56062Y102 US56062Y1029 MSFG     NASDAQ       MAINSOURCE FINANCIAL GRP      20222     239226.26  0.041620 10 Financial Services             1010 Banks                                            1010400 Banks: Diversified                               
20120629 56382Q102 US56382Q1022 MN       NYSE         MANNING & NAPIER INC          13585     193314.55  0.033632 10 Financial Services             1040 Investment Banking & Brokerage Services          1040544 Asset Management & Custodian                     
20120629 564563104 US5645631046 MANT     NASDAQ       MANTECH INTERNATIONAL         23106     542297.82  0.094347 01 Technology                     0130 Information Technology                           0130439 Computer Services Software & Systems             
20120629 56624R108 US56624R1086 MCHX     NASDAQ       MARCHEX INC                   22658      81795.38  0.014231 03 Consumer Discretionary         0350 Media                                            0350301 Advertising Agencies                             
20120629 566330106 US5663301068 MCS      NYSE         MARCUS CORP                   19616     269916.16  0.046959 03 Consumer Discretionary         0340 Leisure                                          0340514 Hotel/Motel                                      
20120629 567908108 US5679081084 HZO      NYSE         MARINEMAX INC                 20391     193918.41  0.033737 03 Consumer Discretionary         0360 Retail                                           0360834 Specialty Retail                                 
20120629 568427108 US5684271084 MPX      NYSE         MARINE PRODUCTS CORP           4415      26848.77  0.004671 03 Consumer Discretionary         0340 Leisure                                          0340804 Recreational Vehicles & Boats                    
20120629 57056R103 US57056R1032 LEDR     NASDAQ       MARKET LEADER INC              3394      17243.90  0.003000 10 Financial Services             1050 Real Estate                                      1050805 Real Estate                                      
20120629 571157106 US5711571068 MRLN     NASDAQ       MARLIN BUSINESS SVCS           8216     134660.24  0.023428 08 Producer Durables              0840 Transportation & Freight                         0840808 Commercial Services: Rental & Leasing            
20120629 57164Y107 US57164Y1073 VAC      NYSE         MARRIOTT VAC WORLD CORP       26594     823882.12  0.143336 03 Consumer Discretionary         0340 Leisure                                          0340556 Leisure Time                                     
20120629 573075108 US5730751089 MRTN     NASDAQ       MARTEN TRANS LTD              15572     331060.72  0.057597 08 Producer Durables              0840 Transportation & Freight                         0840865 Truckers                                         
20120629 573083102 US5730831022 MSO      NYSE         MARTHA STEWART LIVING         27771      94421.40  0.016427 03 Consumer Discretionary         0350 Media                                            0350740 Publishing                                       
20120629 576485205 US5764852050 MTDR     NYSE         MATADOR RES CO                 2396      25741.95  0.004479 06 Energy                         0620 Non-Renewable Energy                             0620670 Oil: Crude Producers                             
20120629 576690101 US5766901012 MTRN     NYSE         MATERION CORPORATION          18604     428439.32  0.074539 07 Materials & Processing         0740 Metals & Minerals                                0740635 Metals & Minerals: Diversified                   
20120629 576853105 US5768531056 MTRX     NASDAQ       MATRIX SERVICE CO             20791     235973.85  0.041054 06 Energy                         0610 Energy Equipment & Services                      0610600 Oil Well Equipment & Services                    
20120629 577097108 US5770971084 MATR     NASDAQ       MATTERSIGHT CORP                609       4863.65  0.000846 01 Technology                     0130 Information Technology                           0130439 Computer Services Software & Systems             
20120629 577128101 US5771281012 MATW     NASDAQ       MATTHEWS INTERNATIONAL        14804     480980.34  0.083679 03 Consumer Discretionary         0330 Consumer Services                                0330495 Funeral Parlors & Cemetery                       
20120629 577223100 US5772231008 MTSN     NASDAQ       MATTSON TECHNOLOGY INC        58475     102331.25  0.017803 01 Technology                     0120 Electronics                                      0120738 Production Technology Equipment                  
20120629 57776J100 US57776J1007 MXL      NYSE         MAXLINEAR INC                 18246      90499.33  0.015745 01 Technology                     0120 Electronics                                      0120476 Semiconductors & Components                      
20120629 577776107 US5777761074 MAXY     NASDAQ       MAXYGEN INC                   27757     165431.72  0.028781 02 Health Care                    0230 Pharmaceuticals & Biotech                        0230412 Biotechnology                                    
20120629 579489105 US5794891052 MNI      NYSE         MCCLATCHY CO                  57959     127509.80  0.022184 03 Consumer Discretionary         0350 Media                                            0350740 Publishing                                       
20120629 58039P107 US58039P1075 MUX      NYSE         MCEWEN MINING INC            197188     593535.88  0.103261 07 Materials & Processing         0740 Metals & Minerals                                0740498 Gold                                             
20120629 58047P107 US58047P1075 MCGC     NASDAQ       MCG CAPITAL CORP              76762     353105.20  0.061432 10 Financial Services             1040 Investment Banking & Brokerage Services          1040544 Asset Management & Custodian                     
20120629 580589109 US5805891091 MGRC     NASDAQ       MCGRATH RENTCORP              12009     318240.75  0.055367 08 Producer Durables              0840 Transportation & Freight                         0840808 Commercial Services: Rental & Leasing            
20120629 582411104 US5824111042 MMR      NYSE         MCMORAN EXPLORATION CO       101462    1285523.54  0.223651 06 Energy                         0620 Non-Renewable Energy                             0620670 Oil: Crude Producers                             
20120629 58319P108 US58319P1084 MIG      NYSE         MEADOWBROOK INS GROUP         46877     412040.60  0.071686 10 Financial Services             1030 Insurance                                        1030542 Insurance: Property-Casualty                     
20120629 583421102 US5834211022 MEAS     NASDAQ       MEASUREMENT SPECIALTIES        1768      57484.86  0.010001 08 Producer Durables              0830 Scientific Instruments & Services                0830474 Scientific Instruments: Gauges & Meters          
20120629 583928106 US5839281061 TAXI     NASDAQ       MEDALLION FINANCIAL CORP      17890     189991.80  0.033054 10 Financial Services             1020 Consumer Finance & Credit Services               1020487 Commercial Finance & Mortgage Co                 
20120629 584045108 US5840451083 MDAS     NASDAQ       MEDASSETS INC                 38842     522422.02  0.090889 02 Health Care                    0210 Health Care Services                             0210639 Health Care: Misc                                
20120629 58463J304 US58463J3041 MPW      NYSE         MEDICAL PROPERTIES TRUST     135573    1304212.26  0.226903 10 Financial Services             1050 Real Estate                                      1050806 Real Estate Investment Trusts (REITs)            
20120629 584946107 US5849461075 MEDW     NASDAQ       MEDIWARE INFORMATION SYS       1009      14735.46  0.002564 02 Health Care                    0210 Health Care Services                             0210499 Health Care Services                             
20120629 58503F106 US58503F1066 MCC      NYSE         MEDLEY CAPITAL CORP           17320     208532.80  0.036280 10 Financial Services             1040 Investment Banking & Brokerage Services          1040544 Asset Management & Custodian                     
20120629 585141104 US5851411042 MEET     NYSE MKT     MEETME INC                    15741      36989.23  0.006435 01 Technology                     0130 Information Technology                           0130439 Computer Services Software & Systems             
20120629 587118100 US5871181005 MW       NYSE         MENS WEARHOUSE INC            40273    1133259.23  0.197161 03 Consumer Discretionary         0360 Retail                                           0360834 Specialty Retail                                 
20120629 587200106 US5872001061 MENT     NASDAQ       MENTOR GRAPHICS CORP          42843     642652.20  0.111807 01 Technology                     0130 Information Technology                           0130439 Computer Services Software & Systems             
20120629 587376104 US5873761044 MBWM     NASDAQ       MERCANTILE BANK CORP           8610     158854.50  0.027637 10 Financial Services             1010 Banks                                            1010400 Banks: Diversified                               
20120629 588448100 US5884481004 MBVT     NASDAQ       MERCHANTS BANCSHARES           5105     140642.75  0.024469 10 Financial Services             1010 Banks                                            1010400 Banks: Diversified                               
20120629 589378108 US5893781089 MRCY     NASDAQ       MERCURY COMPUTER SYSTEMS      30959     400299.87  0.069643 01 Technology                     0130 Information Technology                           0130439 Computer Services Software & Systems             
20120629 589433101 US5894331017 MDP      NYSE         MEREDITH CORP                 36223    1156962.62  0.201285 03 Consumer Discretionary         0350 Media                                            0350740 Publishing                                       
20120629 589499102 US5894991026 MRGE     NASDAQ       MERGE HEALTHCARE INC          13575      38825.33  0.006755 02 Health Care                    0220 Medical Equipment & Services                     0220471 Medical Equipment                                
20120629 58964Q104 US58964Q1040 EBSB     NASDAQ       MERIDIAN INTERSTATE            7801     108585.47  0.018891 10 Financial Services             1010 Banks                                            1010400 Banks: Diversified                               
20120629 589889104 US5898891040 MMSI     NASDAQ       MERIT MED SYSTEMS INC         39613     547042.30  0.095173 02 Health Care                    0220 Medical Equipment & Services                     0220507 Medical & Dental Instruments & Supplies          
20120629 59001A102 US59001A1025 MTH      NYSE         MERITAGE HOMES CORP           21448     727931.88  0.126643 03 Consumer Discretionary         0320 Consumer Products                                0320501 Homebuilding                                     
20120629 59001K100 US59001K1007 MTOR     NYSE         MERITOR INC                   73717     384797.87  0.066946 03 Consumer Discretionary         0310 Auto & Auto Parts                                0310340 Auto Parts                                       
20120629 590876306 US5908763064 MPR      NYSE         MET-PRO CORP                  13579     125054.07  0.021757 08 Producer Durables              0830 Scientific Instruments & Services                0830735 Scientific Instruments: Pollution Control        
20120629 591176102 US5911761022 MEA      NYSE MKT     METALICO INC                  40089      88195.80  0.015344 08 Producer Durables              0830 Scientific Instruments & Services                0830735 Scientific Instruments: Pollution Control        
20120629 59132A104 US59132A1043 MUSA     NYSE         METALS USA HLDGS CORP          8774     139587.09  0.024285 07 Materials & Processing         0740 Metals & Minerals                                0740630 Metal Fabricating                                
20120629 591520200 US5915202007 MEI      NYSE         METHODE ELECTRS INC           37021     315048.71  0.054811 01 Technology                     0120 Electronics                                      0120463 Electronic Components                            
20120629 59161R101 US59161R1014 METR     NASDAQ       METRO BANCORP INC             14128     169959.84  0.029569 10 Financial Services             1010 Banks                                            1010400 Banks: Diversified                               
20120629 591650106 US5916501068 MCBI     NASDAQ       METROCORP BANCSHARES INC      15806     168650.02  0.029341 10 Financial Services             1010 Banks                                            1010400 Banks: Diversified                               
20120629 595072109 US5950721093 MFI      NASDAQ       MICROFINANCIAL INC             5333      43194.56  0.007515 08 Producer Durables              0840 Transportation & Freight                         0840808 Commercial Services: Rental & Leasing            
20120629 596094102 US5960941020 MBRG     NASDAQ       MIDDLEBURG FINANCIAL           5365      91205.00  0.015868 10 Financial Services             1010 Banks                                            1010400 Banks: Diversified                               
20120629 596680108 US5966801087 MSEX     NASDAQ       MIDDLESEX WATER CO            15710     298490.00  0.051930 11 Utilities                      1110 Utilities                                        1110882 Utilities: Water                                 
20120629 598039105 US5980391057 MSL      NYSE MKT     MIDSOUTH BANCORP INC           8351     117582.08  0.020457 10 Financial Services             1010 Banks                                            1010400 Banks: Diversified                               
20120629 59804T100 US59804T1007 MPO      NYSE         MIDSTATES PETE CO INC         13020     126423.46  0.021995 06 Energy                         0620 Non-Renewable Energy                             0620670 Oil: Crude Producers                             
20120629 598511103 US5985111039 MOFG     NASDAQ       MIDWESTONE FINL GROUP          6791     146006.50  0.025402 10 Financial Services             1040 Investment Banking & Brokerage Services          1040457 Diversified Financial Services                   
20120629 60040N105 US60040N1054 MM       NYSE         MILLENNIAL MEDIA INC            616       8128.31  0.001414 01 Technology                     0130 Information Technology                           0130439 Computer Services Software & Systems             
20120629 600527105 US6005271050 MILL     NYSE         MILLER ENERGY RES INC         29336     146680.00  0.025519 06 Energy                         0620 Non-Renewable Energy                             0620670 Oil: Crude Producers                             
20120629 600551204 US6005512040 MLR      NYSE         MILLER INDUSTRIES INC         11066     176281.38  0.030669 08 Producer Durables              0840 Transportation & Freight                         0840350 Commercial Vehicles & Parts                      
20120629 602682205 US6026822055 MSPD     NASDAQ       MINDSPEED TECHNOLOGIES        36123      88862.58  0.015460 01 Technology                     0120 Electronics                                      0120476 Semiconductors & Components                      
20120629 603158106 US6031581068 MTX      NYSE         MINERALS TECHNOLOGIES         17749    1132031.22  0.196947 07 Materials & Processing         0740 Metals & Minerals                                0740635 Metals & Minerals: Diversified                   
20120629 604567107 US6045671079 MIPS     NASDAQ       MIPS TECHNOLOGIES INC         10949      73035.59  0.012706 01 Technology                     0120 Electronics                                      0120476 Semiconductors & Components                      
20120629 605203108 US6052031084 MSW      NASDAQ       MISSION WEST PROPERTIES       18214     157004.68  0.027315 10 Financial Services             1050 Real Estate                                      1050806 Real Estate Investment Trusts (REITs)            
20120629 606501104 US6065011040 MIND     NASDAQ       MITCHAM INDUSTRIES INC         4655      79004.17  0.013745 06 Energy                         0610 Energy Equipment & Services                      0610600 Oil Well Equipment & Services                    
20120629 60740F105 US60740F1057 MINI     NASDAQ       MOBILE MINI INC               38224     550425.60  0.095761 08 Producer Durables              0840 Transportation & Freight                         0840808 Commercial Services: Rental & Leasing            
20120629 607828100 US6078281002 MOD      NYSE         MODINE MANUFACTURING CO       46727     323818.11  0.056337 08 Producer Durables              0840 Transportation & Freight                         0840350 Commercial Vehicles & Parts                      
20120629 60786L107 US60786L1070 MLNK     NASDAQ       MODUSLINK GLB SOLUTIONS       39451     117958.49  0.020522 01 Technology                     0130 Information Technology                           0130439 Computer Services Software & Systems             
20120629 60855R100 US60855R1005 MOH      NYSE         MOLINA HEALTHCARE INC         27487     644839.30  0.112187 02 Health Care                    0210 Health Care Services                             0210503 Health Care Management Services                  
20120629 60877T100 US60877T1007 MNTA     NASDAQ       MOMENTA PHARMACEUTICALS       28755     388757.24  0.067635 02 Health Care                    0230 Pharmaceuticals & Biotech                        0230412 Biotechnology                                    
20120629 609027107 US6090271072 MCRI     NASDAQ       MONARCH CASINO & RESORT        8779      80240.06  0.013960 03 Consumer Discretionary         0340 Leisure                                          0340434 Casinos & Gambling                               
20120629 60935Y208 US60935Y2081 MGI      NYSE         MONEYGRAM INTERNATIONAL       15364     224302.90  0.039024 10 Financial Services             1020 Consumer Finance & Credit Services               1020492 Consumer Lending                                 
20120629 609720107 US6097201072 MNR      NYSE         MONMOUTH REAL ESTATE          22252     260782.43  0.045370 10 Financial Services             1050 Real Estate                                      1050806 Real Estate Investment Trusts (REITs)            
20120629 611742107 US6117421072 MWW      NYSE         MONSTER WORLDWIDE INC        121251    1030633.50  0.179306 08 Producer Durables              0850 Commercial Services                              0850365 Back Office Support HR & Consutling              
20120629 615394202 US6153942023 MOG.A    NYSE         MOOG INC                      40141    1659801.32  0.288767 08 Producer Durables              0840 Transportation & Freight                         0840300 Aerospace                                        
20120629 61748W108 US61748W1080 MHGC     NASDAQ       MORGANS HOTEL GROUP CO        12180      57245.44  0.009959 03 Consumer Discretionary         0340 Leisure                                          0340514 Hotel/Motel                                      
20120629 619718109 US6197181091 MOSY     NASDAQ       MOSYS INC                     33630     108961.20  0.018957 01 Technology                     0120 Electronics                                      0120476 Semiconductors & Components                      
20120629 624580106 US6245801062 MOV      NYSE         MOVADO GROUP INC              16331     408600.22  0.071087 03 Consumer Discretionary         0320 Consumer Products                                0320547 Luxury Items                                     
20120629 624756102 US6247561029 MLI      NYSE         MUELLER INDUSTRIES INC        22697     966662.21  0.168177 07 Materials & Processing         0740 Metals & Minerals                                0740630 Metal Fabricating                                
20120629 624758108 US6247581084 MWA      NYSE         MUELLER WTR PRODS INC         54365     188103.54  0.032726 07 Materials & Processing         0740 Metals & Minerals                                0740630 Metal Fabricating                                
20120629 625383104 US6253831043 LABL     NASDAQ       MULTI COLOR CORP              12679     281967.13  0.049056 08 Producer Durables              0850 Commercial Services                              0850486 Forms and Bulk Printing Services                 
20120629 62541B101 US62541B1017 MFLX     NASDAQ       MULTI-FINELINE ELECTRON        6950     171224.81  0.029789 01 Technology                     0120 Electronics                                      0120463 Electronic Components                            
20120629 628778102 US6287781024 NBTB     NASDAQ       NBT BANCORP INC               33234     717522.06  0.124832 10 Financial Services             1010 Banks                                            1010400 Banks: Diversified                               
20120629 628852204 US6288522047 NCS      NYSE         NCI BUILDING SYSTEMS INC      18109     196120.47  0.034120 07 Materials & Processing         0710 Building Materials & Services                    0710430 Building Materials                               
20120629 628968109 US6289681099 NASB     NASDAQ       NASB FINANCIAL INC             4193      83231.05  0.014480 10 Financial Services             1010 Banks                                            1010400 Banks: Diversified                               
20120629 62912R107 US62912R1077 NGPC     NASDAQ       NGP CAPITAL RESOURCES         21628     153126.24  0.026640 10 Financial Services             1040 Investment Banking & Brokerage Services          1040544 Asset Management & Custodian                     
20120629 629156407 US6291564077 NL       NYSE         NL INDUSTRIES INC              6569      81915.43  0.014251 07 Materials & Processing         0730 Industrial Materials & Processes                 0730452 Diversified Materials & Processing               
20120629 629337106 US6293371067 NNBR     NASDAQ       NN INC                        17024     173815.04  0.030240 07 Materials & Processing         0740 Metals & Minerals                                0740630 Metal Fabricating                                
20120629 62936P103 US62936P1030 NPSP     NASDAQ       NPS PHARMACEUTICALS INC       28861     248498.29  0.043233 02 Health Care                    0230 Pharmaceuticals & Biotech                        0230412 Biotechnology                                    
20120629 629579103 US6295791031 NC       NYSE         NACCO INDUSTRIES INC           5510     640537.50  0.111439 08 Producer Durables              0810 Machinery                                        0810577 Machinery: Construction & Handling               
20120629 630077105 US6300771051 NANO     NASDAQ       NANOMETRICS INC               23487     360760.32  0.062764 01 Technology                     0120 Electronics                                      0120738 Production Technology Equipment                  
20120629 631158102 US6311581028 NAFC     NASDAQ       NASH FINCH CO                 12221     262507.08  0.045670 04 Consumer Staples               0420 Personal Care/Drug & Grocery Stores              0420459 Drug & Grocery Store Chains                      
20120629 63245Q105 US63245Q1058 NAUH     NASDAQ       NATIONAL AMERN UNIV            5501      23652.95  0.004115 03 Consumer Discretionary         0330 Consumer Services                                0330461 Education Services                               
20120629 634865109 US6348651091 NKSH     NASDAQ       NATIONAL BANKSHARES INC        6940     209032.80  0.036367 10 Financial Services             1010 Banks                                            1010400 Banks: Diversified                               
20120629 635309107 US6353091076 NCMI     NASDAQ       NATIONAL CINEMEDIA INC        37286     565626.88  0.098406 03 Consumer Discretionary         0350 Media                                            0350301 Advertising Agencies                             
20120629 635906100 US6359061008 NHC      NYSE MKT     NATIONAL HEALTHCARE CORP      10543     476859.89  0.082963 02 Health Care                    0210 Health Care Services                             0210504 Health Care Facilities                           
20120629 63607P208 US63607P2083 NFP      NYSE         NATIONAL FINL PARTNERS        40604     544093.60  0.094660 10 Financial Services             1040 Investment Banking & Brokerage Services          1040544 Asset Management & Custodian                     
20120629 63654U100 US63654U1007 NATL     NASDAQ       NATIONAL INTERSTATE CORP       6232     165708.88  0.028830 10 Financial Services             1030 Insurance                                        1030542 Insurance: Property-Casualty                     
20120629 637138108 US6371381087 NPBC     NASDAQ       NATIONAL PENN BANCSHARES     123414    1181071.98  0.205479 10 Financial Services             1010 Banks                                            1010400 Banks: Diversified                               
20120629 637215104 US6372151042 NPK      NYSE         NATIONAL PRESTO INDS INC       4310     300691.96  0.052313 03 Consumer Discretionary         0320 Consumer Products                                0320470 Household Appliance                              
20120629 638522102 US6385221022 NWLI     NASDAQ       NATIONAL WESTRN LIFE INS       2191     310946.72  0.054098 10 Financial Services             1030 Insurance                                        1030528 Insurance: Life                                  
20120629 63886Q109 US63886Q1094 NGS      NYSE         NATURAL GAS SERVICES GRP      12309     182419.38  0.031737 06 Energy                         0610 Energy Equipment & Services                      0610600 Oil Well Equipment & Services                    
20120629 638904102 US6389041020 NAVG     NASDAQ       NAVIGATORS GROUP INC           5771     288826.14  0.050249 10 Financial Services             1030 Insurance                                        1030542 Insurance: Property-Casualty                     
20120629 639027101 US6390271012 NATR     NASDAQ       NATURES SUNSHINE PRODS         4433      66952.07  0.011648 04 Consumer Staples               0410 Food/Beverage & Tobacco                          0410494 Foods                                            
20120629 639050103 US6390501038 BABY     NASDAQ       NATUS MEDICAL INC             11395     132416.90  0.023037 02 Health Care                    0220 Medical Equipment & Services                     0220471 Medical Equipment                                
20120629 63935N107 US63935N1072 NCI      NYSE         NAVIGANT CONSULTING INC       51845     655320.80  0.114011 08 Producer Durables              0850 Commercial Services                              0850365 Back Office Support HR & Consutling              
20120629 640079109 US6400791090 NP       NYSE         NEENAH PAPER INC               6282     167680.59  0.029173 07 Materials & Processing         0730 Industrial Materials & Processes                 0730720 Paper                                            
20120629 640268108 US6402681083 NKTR     NASDAQ       NEKTAR THERAPEUTICS           33237     268224.12  0.046665 02 Health Care                    0230 Pharmaceuticals & Biotech                        0230412 Biotechnology                                    
20120629 64031N108 US64031N1081 NNI      NYSE         NELNET INC                    23893     549539.00  0.095607 10 Financial Services             1020 Consumer Finance & Credit Services               1020492 Consumer Lending                                 
20120629 64051T100 US64051T1007 NPTN     NYSE         NEOPHOTONICS CORP             19551      96581.94  0.016803 01 Technology                     0140 Telecommunication                                0140448 Communications Technology                        
20120629 64111Q104 US64111Q1040 NTGR     NASDAQ       NETGEAR INC                   20965     723481.72  0.125869 01 Technology                     0140 Telecommunication                                0140448 Communications Technology                        
20120629 64128B108 US64128B1089 IQNT     NASDAQ       NEUTRAL TANDEM INC            28091     370239.38  0.064413 11 Utilities                      1110 Utilities                                        1110880 Utilities: Telecommunications                    
20120629 646025106 US6460251068 NJR      NYSE         NEW JERSEY RESOURCES          41552    1812082.72  0.315260 11 Utilities                      1110 Utilities                                        1110875 Utilities: Gas Distributors                      
20120629 647551100 US6475511001 NMFC     NYSE         NEW MTN FIN CORP               8515     120827.85  0.021021 10 Financial Services             1040 Investment Banking & Brokerage Services          1040544 Asset Management & Custodian                     
20120629 649295102 US6492951024 NWY      NYSE         NEW YORK & CO INC             10490      36506.49  0.006351 03 Consumer Discretionary         0360 Retail                                           0360834 Specialty Retail                                 
20120629 649604501 US6496045013 NYMT     NASDAQ       NEW YORK MTG TR INC           17338     122406.28  0.021296 10 Financial Services             1050 Real Estate                                      1050806 Real Estate Investment Trusts (REITs)            
20120629 650111107 US6501111073 NYT      NYSE         NEW YORK TIMES CO            136199    1062352.20  0.184825 03 Consumer Discretionary         0350 Media                                            0350740 Publishing                                       
20120629 651718504 US6517185046 NR       NYSE         NEWPARK RESOURCES INC         89897     530392.30  0.092276 06 Energy                         0610 Energy Equipment & Services                      0610600 Oil Well Equipment & Services                    
20120629 651824104 US6518241046 NEWP     NASDAQ       NEWPORT CORP                  38210     459284.20  0.079905 01 Technology                     0120 Electronics                                      0120475 Electronics                                      
20120629 65251F105 US65251F1057 NEWS     NASDAQ       NEWSTAR FINANCIAL INC         26105     338320.80  0.058860 10 Financial Services             1020 Consumer Finance & Credit Services               1020487 Commercial Finance & Mortgage Co                 
20120629 65336K103 US65336K1034 NXST     NASDAQ       NEXSTAR BROADCASTING GRP       8553      57644.71  0.010029 03 Consumer Discretionary         0350 Media                                            0350760 Radio & TV Broadcasters                          
20120629 65373J209 CA65373J2092 NICK     NASDAQ       NICHOLAS FINANCIAL INC         9955     127623.10  0.022203 10 Financial Services             1020 Consumer Finance & Credit Services               1020492 Consumer Lending                                 
20120629 66611L105 US66611L1052 NFBK     NASDAQ       NORTHFIELD BANCORP INC        14698     208858.58  0.036337 10 Financial Services             1010 Banks                                            1010820 Banks: Savings/Thrifts & Mortgage Lend           
20120629 666762109 US6667621097 NRIM     NASDAQ       NORTHRIM BANCORP INC           6469     139018.81  0.024186 10 Financial Services             1010 Banks                                            1010400 Banks: Diversified                               
20120629 66704R100 US66704R1005 NRF      NYSE         NORTHSTAR REALTY FINANCE     133357     696123.54  0.121109 10 Financial Services             1050 Real Estate                                      1050806 Real Estate Investment Trusts (REITs)            
20120629 667340103 US6673401039 NWBI     NASDAQ       NORTHWEST BANCSHARES INC      97602    1142919.42  0.198841 10 Financial Services             1010 Banks                                            1010820 Banks: Savings/Thrifts & Mortgage Lend           
20120629 667655104 US6676551046 NWN      NYSE         NORTHWEST NATURAL GAS CO      26800    1275680.00  0.221939 11 Utilities                      1110 Utilities                                        1110875 Utilities: Gas Distributors                      
20120629 667746101 US6677461013 NWPX     NASDAQ       NORTHWEST PIPE CO              9373     227388.98  0.039560 07 Materials & Processing         0740 Metals & Minerals                                0740630 Metal Fabricating                                
20120629 668074305 US6680743050 NWE      NYSE         NORTHWESTERN CORP             36390    1335513.00  0.232348 11 Utilities                      1110 Utilities                                        1110870 Utilities: Electrical                            
20120629 67060Y101 US67060Y1010 NUTR     NASDAQ       NUTRACEUTICAL INTL CORP        8710     132827.50  0.023109 04 Consumer Staples               0410 Food/Beverage & Tobacco                          0410494 Foods                                            
20120629 670704105 US6707041058 NUVA     NASDAQ       NUVASIVE INC                  32513     824511.45  0.143446 02 Health Care                    0220 Medical Equipment & Services                     0220507 Medical & Dental Instruments & Supplies          
20120629 67086E303 US67086E3036 OCZ      NASDAQ       OCZ TECHNOLOGY GROUP INC      67327     356833.10  0.062081 01 Technology                     0130 Information Technology                           0130449 Computer Technology                              
20120629 670872100 US6708721005 OMG      NYSE         OM GROUP INC                  32393     615467.00  0.107077 07 Materials & Processing         0720 Chemicals and Synthetics                         0720433 Chemicals: Diversified                           
20120629 675234108 US6752341080 OCFC     NASDAQ       OCEANFIRST FINANCIAL          14393     206683.48  0.035958 10 Financial Services             1010 Banks                                            1010820 Banks: Savings/Thrifts & Mortgage Lend           
20120629 67555N206 US67555N2062 OCLR     NASDAQ       OCLARO INC                    51481     156502.24  0.027228 01 Technology                     0140 Telecommunication                                0140448 Communications Technology                        
20120629 675746309 US6757463095 OCN      NYSE         OCWEN FINANCIAL CORP         101025    1897242.36  0.330076 10 Financial Services             1010 Banks                                            1010820 Banks: Savings/Thrifts & Mortgage Lend           
20120629 676220106 US6762201068 ODP      NYSE         OFFICE DEPOT INC             283824     613059.84  0.106658 03 Consumer Discretionary         0360 Retail                                           0360834 Specialty Retail                                 
20120629 67622P101 US67622P1012 OMX      NYSE         OFFICEMAX INC                 86574     438064.44  0.076213 03 Consumer Discretionary         0360 Retail                                           0360834 Specialty Retail                                 
20120629 677864100 US6778641000 ODC      NYSE         OIL DRI CORP OF AMERICA        5038     110332.20  0.019195 07 Materials & Processing         0740 Metals & Minerals                                0740635 Metals & Minerals: Diversified                   
20120629 680033107 US6800331075 ONB      NYSE         OLD NATIONAL BANCORP          94674    1137034.74  0.197818 10 Financial Services             1010 Banks                                            1010400 Banks: Diversified                               
20120629 680665205 US6806652052 OLN      NYSE         OLIN CORP                     25149     525366.83  0.091402 07 Materials & Processing         0720 Chemicals and Synthetics                         0720433 Chemicals: Diversified                           
20120629 68162K106 US68162K1060 ZEUS     NASDAQ       OLYMPIC STEEL INC              9120     149750.40  0.026053 07 Materials & Processing         0740 Metals & Minerals                                0740835 Steel                                            
20120629 68210P107 US68210P1075 OME      NYSE         OMEGA PROTEIN CORP            19597     144233.92  0.025093 04 Consumer Staples               0410 Food/Beverage & Tobacco                          0410494 Foods                                            
20120629 682128103 US6821281036 OVTI     NASDAQ       OMNIVISION TECHNOLOGIES       52365     699596.40  0.121714 01 Technology                     0120 Electronics                                      0120476 Semiconductors & Components                      
20120629 68213N109 US68213N1090 OMCL     NASDAQ       OMNICELL INC                  29621     433639.82  0.075443 02 Health Care                    0210 Health Care Services                             0210499 Health Care Services                             
20120629 68216R107 US68216R1077 OABC     NASDAQ       OMNIAMERICAN BANCORP INC      11194     239887.42  0.041735 10 Financial Services             1010 Banks                                            1010820 Banks: Savings/Thrifts & Mortgage Lend           
20120629 682406103 US6824061039 OLP      NYSE         ONE LIBERTY PROPERTIES        11474     216055.42  0.037589 10 Financial Services             1050 Real Estate                                      1050806 Real Estate Investment Trusts (REITs)            
20120629 68243Q106 US68243Q1067 FLWS     NASDAQ       1-800 FLOWERS COM             24517      85562.06  0.014886 03 Consumer Discretionary         0360 Retail                                           0360834 Specialty Retail                                 
20120629 68375Q403 US68375Q4038 OPLK     NASDAQ       OPLINK COMMUNICATIONS         19064     257935.92  0.044875 01 Technology                     0140 Telecommunication                                0140448 Communications Technology                        
20120629 683797104 US6837971042 OPY      NYSE         OPPENHEIMER HOLDINGS INC      10286     161695.92  0.028131 10 Financial Services             1040 Investment Banking & Brokerage Services          1040544 Asset Management & Custodian                     
20120629 68555P100 US68555P1003 ORBC     NASDAQ       ORBCOMM INC                   18015      58728.82  0.010217 11 Utilities                      1110 Utilities                                        1110880 Utilities: Telecommunications                    
20120629 685564106 US6855641063 ORB      NYSE         ORBITAL SCIENCES CORP         58986     762099.12  0.132588 08 Producer Durables              0840 Transportation & Freight                         0840300 Aerospace                                        
20120629 685691404 US6856914048 OSH      NASDAQ       ORCHARD SUPPLY HARDWARE        1900      31597.00  0.005497 03 Consumer Discretionary         0360 Retail                                           0360834 Specialty Retail                                 
20120629 68572N104 US68572N1046 TIS      NYSE MKT     ORCHIDS PAPER PRODS COMP       3005      53112.66  0.009240 04 Consumer Staples               0420 Personal Care/Drug & Grocery Stores              0420832 Personal Care                                    
20120629 68618W100 PR68618W1001 OFG      NYSE         ORIENTAL FINANCIAL GROUP      40692     450867.36  0.078440 10 Financial Services             1010 Banks                                            1010400 Banks: Diversified                               
20120629 68628V308 US68628V3087 ORN      NYSE         ORION MARINE GROUP INC        27121     188762.16  0.032840 08 Producer Durables              0820 Manufacturing & Production                       0820443 Construction                                     
20120629 68633D103 US68633D1037 ORIT     NASDAQ       ORITANI FINANCIAL CORP        29635     426443.39  0.074191 10 Financial Services             1010 Banks                                            1010820 Banks: Savings/Thrifts & Mortgage Lend           
20120629 686688102 US6866881021 ORA      NYSE         ORMAT TECHNOLOGIES INC        12772     273184.46  0.047528 11 Utilities                      1110 Utilities                                        1110868 Utilities: Miscellaneous                         
20120629 689648103 US6896481032 OTTR     NASDAQ       OTTER TAIL CORP               33958     776619.37  0.135114 11 Utilities                      1110 Utilities                                        1110870 Utilities: Electrical                            
20120629 690027206 US6900272062 OUTD     NASDAQ       OUTDOOR CHANNEL HLDGS         10427      76220.74  0.013261 03 Consumer Discretionary         0350 Media                                            0350760 Radio & TV Broadcasters                          
20120629 690368105 US6903681053 OSG      NYSE         OVERSEAS SHIPHOLDNG GRP       24679     274183.69  0.047702 08 Producer Durables              0840 Transportation & Freight                         0840830 Shipping                                         
20120629 690732102 US6907321029 OMI      NYSE         OWENS & MINOR INC              9211     282154.52  0.049088 02 Health Care                    0220 Medical Equipment & Services                     0220507 Medical & Dental Instruments & Supplies          
20120629 69318J100 US69318J1007 PCCC     NASDAQ       P C CONNECTION                 8923      94762.26  0.016486 01 Technology                     0130 Information Technology                           0130449 Computer Technology                              
20120629 69325Q105 US69325Q1058 PCTI     NASDAQ       PC-TEL INC                    18466     119475.02  0.020786 01 Technology                     0140 Telecommunication                                0140448 Communications Technology                        
20120629 69327R101 US69327R1014 PETD     NASDAQ       PDC ENERGY INC                29925     733761.00  0.127657 06 Energy                         0620 Non-Renewable Energy                             0620670 Oil: Crude Producers                             
20120629 69329V100 US69329V1008 PDII     NASDAQ       PDI INC                        9149      75381.66  0.013115 08 Producer Durables              0850 Commercial Services                              0850365 Back Office Support HR & Consutling              
20120629 69329Y104 US69329Y1047 PDLI     NASDAQ       PDL BIOPHARMA INC             19024     126131.51  0.021944 02 Health Care                    0230 Pharmaceuticals & Biotech                        0230412 Biotechnology                                    
20120629 693320202 US6933202029 PHH      NYSE         PHH CORPORATION               56646     990172.08  0.172267 08 Producer Durables              0840 Transportation & Freight                         0840808 Commercial Services: Rental & Leasing            
20120629 693366205 US6933662057 PICO     NASDAQ       PICO HOLDINGS INC             22769     510253.29  0.088772 10 Financial Services             1050 Real Estate                                      1050805 Real Estate                                      
20120629 69336T205 US69336T2050 PHIIK    NASDAQ       PHI INC                       12001     333737.52  0.058063 08 Producer Durables              0840 Transportation & Freight                         0840310 Air Transport                                    
20120629 69336V101 US69336V1017 PGTI     NASDAQ       PGT INC                        9866      29891.48  0.005200 07 Materials & Processing         0710 Building Materials & Services                    0710430 Building Materials                               
20120629 693417107 US6934171074 PLXT     NASDAQ       PLX TECHNOLOGY INC             3176      20172.38  0.003510 01 Technology                     0120 Electronics                                      0120476 Semiconductors & Components                      
20120629 69345P103 US69345P1030 PMFG     NASDAQ       PMFG INC                      20774     162244.94  0.028227 08 Producer Durables              0830 Scientific Instruments & Services                0830524 Scientific Instruments: Control & Filter         
20120629 69349H107 US69349H1077 PNM      NYSE         PNM RESOURCES INC             79654    1556439.16  0.270784 11 Utilities                      1110 Utilities                                        1110870 Utilities: Electrical                            
20120629 69360J107 US69360J1079 PSB      NYSE         PS BUSINESS PARKS INC          3149     213271.07  0.037104 10 Financial Services             1050 Real Estate                                      1050806 Real Estate Investment Trusts (REITs)            
20120629 69373H106 US69373H1068 PACR     NASDAQ       PACER INTERNATIONAL INC       31023     168140.39  0.029253 08 Producer Durables              0840 Transportation & Freight                         0840860 Transportation Miscellaneous                     
20120629 69404D108 US69404D1081 PACB     NASDAQ       PACIFIC BIOSCIENCES CA        37073      80448.41  0.013996 02 Health Care                    0230 Pharmaceuticals & Biotech                        0230412 Biotechnology                                    
20120629 69404P200 US69404P2002 PCBC     NASDAQ       PACIFIC CAPITAL BANCORP        3954     180810.93  0.031457 10 Financial Services             1010 Banks                                            1010400 Banks: Diversified                               
20120629 69412V108 US69412V1089 PCBK     NASDAQ       PACIFIC CONTINENTAL CORP      18204     161469.48  0.028092 10 Financial Services             1010 Banks                                            1010400 Banks: Diversified                               
20120629 694552100 US6945521002 PMBC     NASDAQ       PACIFIC MERCANTILE BANCO      10659      73653.69  0.012814 10 Financial Services             1010 Banks                                            1010400 Banks: Diversified                               
20120629 695263103 US6952631033 PACW     NASDAQ       PACWEST BANCORP               30323     717745.41  0.124871 10 Financial Services             1010 Banks                                            1010400 Banks: Diversified                               
20120629 697529303 US6975293035 PMTI     NASDAQ       PALOMAR MEDICAL TECH          19530     166005.00  0.028881 02 Health Care                    0220 Medical Equipment & Services                     0220471 Medical Equipment                                
20120629 698657103 US6986571031 PTRY     NASDAQ       PANTRY INC                    21403     314614.40  0.054736 04 Consumer Staples               0420 Personal Care/Drug & Grocery Stores              0420459 Drug & Grocery Store Chains                      
20120629 69888P106 US69888P1066 PRX      NYSE         PAR PHARMACEUTICAL COS         8819     318746.13  0.055454 02 Health Care                    0230 Pharmaceuticals & Biotech                        0230460 Pharmaceuticals                                  
20120629 700416209 US7004162092 PKE      NYSE         PARK ELECTROCHEMICAL          20797     538226.36  0.093639 01 Technology                     0120 Electronics                                      0120463 Electronic Components                            
20120629 700658107 US7006581075 PRK      NYSE MKT     PARK NATIONAL CORP            11338     790825.50  0.137585 10 Financial Services             1010 Banks                                            1010400 Banks: Diversified                               
20120629 700666100 US7006661000 PKOH     NASDAQ       PARK OHIO HOLDINGS CORP         503       9574.94  0.001666 08 Producer Durables              0820 Manufacturing & Production                       0820644 Producer Durables: Misc                          
20120629 70086Y105 US70086Y1055 PSTB     NASDAQ       PARK STERLING CORP            32644     153753.24  0.026750 10 Financial Services             1010 Banks                                            1010400 Banks: Diversified                               
20120629 701081101 US7010811013 PKD      NYSE         PARKER DRILLING CO           117610     530421.10  0.092281 06 Energy                         0610 Energy Equipment & Services                      0610600 Oil Well Equipment & Services                    
20120629 70159Q104 US70159Q1040 PKY      NYSE         PARKWAY PROPERTIES INC        15850     181324.00  0.031546 10 Financial Services             1050 Real Estate                                      1050806 Real Estate Investment Trusts (REITs)            
20120629 70336T104 US70336T1043 PCX      NYSE         PATRIOT COAL CORP             92869     113300.18  0.019712 06 Energy                         0620 Non-Renewable Energy                             0620435 Coal                                             
20120629 70337B102 US70337B1026 PATR     NASDAQ       PATRIOT TRANSPORTATION         6364     149744.92  0.026052 08 Producer Durables              0840 Transportation & Freight                         0840865 Truckers                                         
20120629 704699107 US7046991078 PGC      NASDAQ       PEAPACK-GLADSTONE FINL         8872     137604.72  0.023940 10 Financial Services             1010 Banks                                            1010400 Banks: Diversified                               
20120629 70509V100 US70509V1008 PEB      NYSE         PEBBLEBROOK HOTEL TRUST       52484    1223402.04  0.212844 10 Financial Services             1050 Real Estate                                      1050806 Real Estate Investment Trusts (REITs)            
20120629 70686R104 US70686R1041 PCO      NASDAQ       PENDRELL CORPORATION         154846     173427.52  0.030172 11 Utilities                      1110 Utilities                                        1110880 Utilities: Telecommunications                    
20120629 707882106 US7078821060 PVA      NYSE         PENN VIRGINIA CORP            45827     336370.18  0.058521 06 Energy                         0620 Non-Renewable Energy                             0620670 Oil: Crude Producers                             
20120629 708062104 US7080621045 PNNT     NASDAQ       PENNANTPARK INVT CORP         56367     583398.45  0.101498 10 Financial Services             1040 Investment Banking & Brokerage Services          1040544 Asset Management & Custodian                     
20120629 708430103 US7084301032 PWOD     NASDAQ       PENNS WOODS BANCORP INC        3535     140720.31  0.024482 10 Financial Services             1010 Banks                                            1010400 Banks: Diversified                               
20120629 709102107 US7091021078 PEI      NYSE         PENNSYLVANIA REAL ESTATE      55953     838175.94  0.145823 10 Financial Services             1050 Real Estate                                      1050806 Real Estate Investment Trusts (REITs)            
20120629 70931T103 US70931T1034 PMT      NYSE         PENNYMAC MORTGAGE INV         41172     812323.56  0.141325 10 Financial Services             1050 Real Estate                                      1050806 Real Estate Investment Trusts (REITs)            
20120629 70959W103 US70959W1036 PAG      NYSE         PENSKE AUTOMOTIVE GROUP       31499     669031.16  0.116396 03 Consumer Discretionary         0360 Retail                                           0360834 Specialty Retail                                 
20120629 709789101 US7097891011 PEBO     NASDAQ       PEOPLES BANCORP INC           10678     234702.44  0.040833 10 Financial Services             1010 Banks                                            1010400 Banks: Diversified                               
20120629 711037101 US7110371017 PEOP     NASDAQ       PEOPLES FED BANCSHARES         6094     101769.80  0.017706 10 Financial Services             1010 Banks                                            1010820 Banks: Savings/Thrifts & Mortgage Lend           
20120629 713278109 US7132781094 PBY      NYSE         PEP BOYS MANNY MOE&J          52851     523224.90  0.091029 03 Consumer Discretionary         0360 Retail                                           0360834 Specialty Retail                                 
20120629 71375U101 US71375U1016 PRFT     NASDAQ       PERFICIENT INC                 7314      82139.14  0.014290 01 Technology                     0130 Information Technology                           0130439 Computer Services Software & Systems             
20120629 71376C100 US71376C1009 PERF     NASDAQ       PERFUMANIA HOLDINGS INC        5074      42063.46  0.007318 03 Consumer Discretionary         0360 Retail                                           0360834 Specialty Retail                                 
20120629 713831105 US7138311052 PSEM     NASDAQ       PERICOM SEMICONDUCTOR         23619     212571.00  0.036982 01 Technology                     0120 Electronics                                      0120476 Semiconductors & Components                      
20120629 715710109 US7157101095 PVSW     NASDAQ       PERVASIVE SOFTWARE INC        12275      91935.31  0.015995 01 Technology                     0130 Information Technology                           0130439 Computer Services Software & Systems             
20120629 716748108 US7167481081 PQ       NYSE         PETROQUEST ENERGY INC         56579     282895.00  0.049217 06 Energy                         0620 Non-Renewable Energy                             0620670 Oil: Crude Producers                             
20120629 71714F104 US71714F1049 PMC      NYSE         PHARMERICA CORP               29498     322118.16  0.056041 02 Health Care                    0210 Health Care Services                             0210499 Health Care Services                             
20120629 71902E109 US71902E1091 PNX      NYSE         PHOENIX COMPANIES INC        116300     215155.00  0.037432 10 Financial Services             1030 Insurance                                        1030528 Insurance: Life                                  
20120629 719358301 US7193583017 PHMD     NASDAQ       PHOTOMEDEX INC                 2031      24681.87  0.004294 04 Consumer Staples               0420 Personal Care/Drug & Grocery Stores              0420832 Personal Care                                    
20120629 719405102 US7194051022 PLAB     NASDAQ       PHOTRONICS INC                60384     368342.40  0.064083 01 Technology                     0120 Electronics                                      0120738 Production Technology Equipment                  
20120629 720186105 US7201861058 PNY      NYSE         PIEDMONT NAT GAS INC          65665    2113736.26  0.367741 11 Utilities                      1110 Utilities                                        1110875 Utilities: Gas Distributors                      
20120629 721283109 US7212831090 PIKE     NYSE         PIKE ELECTRIC CORP            17203     132807.16  0.023105 11 Utilities                      1110 Utilities                                        1110870 Utilities: Electrical                            
20120629 72147K108 US72147K1088 PPC      NYSE         PILGRIMS PRIDE CORP NEW       11703      83682.36  0.014559 04 Consumer Staples               0410 Food/Beverage & Tobacco                          0410305 Agriculture Fishing & Ranching                   
20120629 723456109 US7234561097 PNK      NYSE         PINNACLE ENTMT INC            58344     561262.44  0.097647 03 Consumer Discretionary         0340 Leisure                                          0340434 Casinos & Gambling                               
20120629 72346Q104 US72346Q1040 PNFP     NASDAQ       PINNACLE FINANCIAL            34589     674831.39  0.117405 10 Financial Services             1010 Banks                                            1010400 Banks: Diversified                               
20120629 723655106 US7236551062 PDC      NYSE         PIONEER DRILLING CO           49071     391094.59  0.068041 06 Energy                         0610 Energy Equipment & Services                      0610600 Oil Well Equipment & Services                    
20120629 724078100 US7240781002 PJC      NYSE         PIPER JAFFRAY COMPANIES       16348     383033.64  0.066639 10 Financial Services             1040 Investment Banking & Brokerage Services          1040457 Diversified Financial Services                   
20120629 727493108 US7274931085 PLT      NYSE         PLANTRONICS INC               28270     944189.61  0.164267 01 Technology                     0140 Telecommunication                                0140448 Communications Technology                        
20120629 729132100 US7291321005 PLXS     NASDAQ       PLEXUS CORP                   19694     555363.47  0.096620 01 Technology                     0120 Electronics                                      0120643 Technology: Misc                                 
20120629 73179P106 US73179P1066 POL      NYSE         POLYONE CORP                  19173     262291.15  0.045633 07 Materials & Processing         0720 Chemicals and Synthetics                         0720433 Chemicals: Diversified                           
20120629 736508847 US7365088472 POR      NYSE         PORTLAND GEN ELEC CO          75506    2012989.96  0.350214 11 Utilities                      1110 Utilities                                        1110870 Utilities: Electrical                            
20120629 737446104 US7374461041 POST     NYSE         POST HOLDINGS INC              8176     251424.55  0.043742 04 Consumer Staples               0410 Food/Beverage & Tobacco                          0410494 Foods                                            
20120629 737630103 US7376301039 PCH      NASDAQ       POTLATCH CORP                 14963     477923.71  0.083148 10 Financial Services             1050 Real Estate                                      1050806 Real Estate Investment Trusts (REITs)            
20120629 739128106 US7391281067 POWL     NASDAQ       POWELL INDUSTRIES INC          5103     190627.76  0.033165 08 Producer Durables              0820 Manufacturing & Production                       0820734 Power Transmission Equip                         
20120629 73930R102 US73930R1023 PWER     NASDAQ       POWER-ONE INC                 67080     303201.60  0.052750 08 Producer Durables              0820 Manufacturing & Production                       0820734 Power Transmission Equip                         
20120629 740367404 US7403674044 PFBC     NASDAQ       PREFERRED BANK                11744     156899.84  0.027297 10 Financial Services             1010 Banks                                            1010400 Banks: Diversified                               
20120629 740444104 US7404441047 PLPC     NASDAQ       PREFORMED LINE PRODUCTS        2099     121527.03  0.021143 08 Producer Durables              0830 Scientific Instruments & Services                0830465 Scientific Instruments: Electrical               
20120629 740585104 US7405851046 PGI      NYSE         PREMIERE GLOBAL SERVICES      38491     322937.45  0.056184 11 Utilities                      1110 Utilities                                        1110880 Utilities: Telecommunications                    
20120629 740884101 US7408841010 PLFE     NASDAQ       PRESIDENTIAL LIFE CORP        21661     212927.63  0.037044 10 Financial Services             1030 Insurance                                        1030528 Insurance: Life                                  
20120629 74112D101 US74112D1019 PBH      NYSE         PRESTIGE BRANDS HOLDINGS      17097     270318.12  0.047029 02 Health Care                    0230 Pharmaceuticals & Biotech                        0230460 Pharmaceuticals                                  
20120629 74164F103 US74164F1030 PRIM     NASDAQ       PRIMORIS SVCS CORP            21833     261994.08  0.045581 08 Producer Durables              0820 Manufacturing & Production                       0820443 Construction                                     
20120629 74164M108 US74164M1080 PRI      NYSE         PRIMERICA INC                 47040    1257379.20  0.218755 10 Financial Services             1030 Insurance                                        1030528 Insurance: Life                                  
20120629 742962103 US7429621037 PVTB     NASDAQ       PRIVATEBANCORP INC            60381     891223.56  0.155052 10 Financial Services             1010 Banks                                            1010400 Banks: Diversified                               
20120629 743312100 US7433121008 PRGS     NASDAQ       PROGRESS SOFTWARE CORP        62847    1311616.89  0.228191 01 Technology                     0130 Information Technology                           0130439 Computer Services Software & Systems             
20120629 743424103 US7434241037 PFPT     NASDAQ       PROOFPOINT INC                  342       5797.51  0.001009 01 Technology                     0130 Information Technology                           0130439 Computer Services Software & Systems             
20120629 74348T102 US74348T1025 PSEC     NASDAQ       PROSPECT CAPITAL CORP        122009    1389682.51  0.241773 10 Financial Services             1040 Investment Banking & Brokerage Services          1040544 Asset Management & Custodian                     
20120629 743606105 US7436061052 PB       NYSE         PROSPERITY BANCSHARES         47451    1994365.53  0.346973 10 Financial Services             1010 Banks                                            1010400 Banks: Diversified                               
20120629 743815102 US7438151026 PRSC     NASDAQ       PROVIDENCE SERVICE CORP        9823     134664.53  0.023429 02 Health Care                    0210 Health Care Services                             0210639 Health Care: Misc                                
20120629 743868101 US7438681014 PROV     NASDAQ       PROVIDENT FINL HLDGS INC       9725     112129.25  0.019508 10 Financial Services             1010 Banks                                            1010820 Banks: Savings/Thrifts & Mortgage Lend           
20120629 74386T105 US74386T1051 PFS      NYSE         PROVIDENT FINANCIAL SVCS      60183     923809.05  0.160721 10 Financial Services             1010 Banks                                            1010400 Banks: Diversified                               
20120629 744028101 US7440281019 PBNY     NYSE         PROVIDENT NY BANCORP          33919     257445.21  0.044789 10 Financial Services             1010 Banks                                            1010820 Banks: Savings/Thrifts & Mortgage Lend           
20120629 747277101 US7472771010 QLGC     NASDAQ       QLOGIC CORP                   73575    1007238.33  0.175236 01 Technology                     0140 Telecommunication                                0140448 Communications Technology                        
20120629 74727D306 US74727D3061 QADA     NASDAQ       QAD INC                         650       9247.44  0.001609 01 Technology                     0130 Information Technology                           0130439 Computer Services Software & Systems             
20120629 747301109 US7473011093 QUAD     NYSE         QUAD / GRAPHICS INC           25187     362189.06  0.063013 08 Producer Durables              0850 Commercial Services                              0850486 Forms and Bulk Printing Services                 
20120629 747316107 US7473161070 KWR      NYSE         QUAKER CHEMICAL CORP           9325     430895.31  0.074966 07 Materials & Processing         0720 Chemicals and Synthetics                         0720833 Chemicals: Specialty                             
20120629 74731Q103 US74731Q1031 PZN      NYSE         PZENA INVESTMENT MGMT          3228      14303.23  0.002488 10 Financial Services             1040 Investment Banking & Brokerage Services          1040544 Asset Management & Custodian                     
20120629 74756M102 US74756M1027 QLTY     NASDAQ       QUALITY DISTRIBUTION INC      13374     148316.15  0.025804 08 Producer Durables              0840 Transportation & Freight                         0840865 Truckers                                         
20120629 747619104 US7476191041 NX       NYSE         QUANEX BUILDING PRODUCTS      36769     657429.72  0.114378 07 Materials & Processing         0710 Building Materials & Services                    0710430 Building Materials                               
20120629 747906204 US7479062041 QTM      NYSE         QUANTUM CORP                 220242     447091.26  0.077784 01 Technology                     0130 Information Technology                           0130449 Computer Technology                              
20120629 74837P108 US74837P1084 QUIK     NASDAQ       QUICKLOGIC CORP                4837      12141.18  0.002112 01 Technology                     0120 Electronics                                      0120476 Semiconductors & Components                      
20120629 74837R104 US74837R1041 KWK      NYSE         QUICKSILVER RESOURCES        117437     636508.54  0.110738 06 Energy                         0620 Non-Renewable Energy                             0620670 Oil: Crude Producers                             
20120629 74838C106 US74838C1062 ZQK      NYSE         QUIKSILVER INC               130541     304160.53  0.052917 03 Consumer Discretionary         0320 Consumer Products                                0320850 Textiles Apparel & Shoes                         
20120629 74874Q100 US74874Q1004 QNST     NASDAQ       QUINSTREET INC                32686     302672.36  0.052658 03 Consumer Discretionary         0350 Media                                            0350301 Advertising Agencies                             
20120629 749227609 US7492276099 RAS      NYSE         RAIT FINANCIAL TRUST          49902     230547.24  0.040110 10 Financial Services             1050 Real Estate                                      1050806 Real Estate Investment Trusts (REITs)            
20120629 749607107 US7496071074 RLI      NYSE         RLI CORP                      21210    1446522.00  0.251661 10 Financial Services             1030 Insurance                                        1030542 Insurance: Property-Casualty                     
20120629 74965L101 US74965L1017 RLJ      NYSE         RLJ LODGING TR               106693    1934344.09  0.336531 10 Financial Services             1050 Real Estate                                      1050806 Real Estate Investment Trusts (REITs)            
20120629 74972G103 US74972G1031 RPXC     NASDAQ       RPX CORP                       1713      24591.84  0.004278 08 Producer Durables              0850 Commercial Services                              0850365 Back Office Support HR & Consutling              
20120629 74973W107 US74973W1071 RTI      NYSE         RTI INTERNATIONAL METALS      30316     686051.08  0.119357 07 Materials & Processing         0740 Metals & Minerals                                0740630 Metal Fabricating                                
20120629 74975N105 US74975N1054 RTIX     NASDAQ       RTI BIOLOGICS INC             52372     196916.29  0.034259 02 Health Care                    0230 Pharmaceuticals & Biotech                        0230412 Biotechnology                                    
20120629 749941100 US7499411004 RFMD     NASDAQ       RF MICRODEVICES INC          243934    1036715.95  0.180365 01 Technology                     0120 Electronics                                      0120476 Semiconductors & Components                      
20120629 750236101 US7502361014 RDN      NYSE         RADIAN GROUP INC             133294     438537.26  0.076295 10 Financial Services             1030 Insurance                                        1030542 Insurance: Property-Casualty                     
20120629 750438103 US7504381036 RSH      NYSE         RADIOSHACK CORP               99428     381803.52  0.066425 03 Consumer Discretionary         0360 Retail                                           0360834 Specialty Retail                                 
20120629 750459109 US7504591097 RSYS     NASDAQ       RADISYS CORP                  22891     143755.48  0.025010 01 Technology                     0130 Information Technology                           0130449 Computer Technology                              
20120629 750753402 US7507534029 RA       NYSE         RAILAMERICA INC                2514      60844.41  0.010586 08 Producer Durables              0840 Transportation & Freight                         0840800 Railroads                                        
20120629 750917106 US7509171069 RMBS     NASDAQ       RAMBUS INC                   102461     588123.16  0.102320 01 Technology                     0120 Electronics                                      0120476 Semiconductors & Components                      
20120629 751452202 US7514522025 RPT      NYSE         RAMCO-GERSHENSON PPTYS        45948     577566.36  0.100483 10 Financial Services             1050 Real Estate                                      1050806 Real Estate Investment Trusts (REITs)            
20120629 752182105 US7521821055 RLOG     NASDAQ       RAND LOGISTICS INC            16791     142717.55  0.024830 08 Producer Durables              0840 Transportation & Freight                         0840830 Shipping                                         
20120629 755408101 US7554081015 RDI      NASDAQ       READING INTERNATIONAL         16722      90466.02  0.015739 03 Consumer Discretionary         0350 Media                                            0350480 Entertainment                                    
20120629 75604L105 US75604L1052 RLD      NYSE         REALD INC                      6156      92105.43  0.016024 03 Consumer Discretionary         0320 Consumer Products                                0320451 Consumer Electronics                             
20120629 75605L708 US75605L7082 RNWK     NASDAQ       REALNETWORKS INC              21861     188879.04  0.032861 01 Technology                     0130 Information Technology                           0130439 Computer Services Software & Systems             
20120629 756764106 US7567641060 RLH      NYSE         RED LION HOTELS CORP          13776     119162.40  0.020731 03 Consumer Discretionary         0340 Leisure                                          0340514 Hotel/Motel                                      
20120629 75689M101 US75689M1018 RRGB     NASDAQ       RED ROBIN GOURMET BURGER       8137     248247.60  0.043189 03 Consumer Discretionary         0340 Leisure                                          0340810 Restaurants                                      
20120629 758075402 US7580754023 RWT      NYSE         REDWOOD TRUST INC             79055     986606.40  0.171647 10 Financial Services             1050 Real Estate                                      1050806 Real Estate Investment Trusts (REITs)            
20120629 758932107 US7589321071 RGS      NYSE         REGIS CORP                    57561    1033795.56  0.179856 03 Consumer Discretionary         0360 Retail                                           0360834 Specialty Retail                                 
20120629 75970E107 US75970E1073 RNST     NASDAQ       RENASANT CORP                 25106     394415.26  0.068619 10 Financial Services             1010 Banks                                            1010400 Banks: Diversified                               
20120629 75972A301 US75972A3014 REGI     NASDAQ       RENEWABLE ENER GROUP INC       5472      40651.31  0.007072 06 Energy                         0630 Alternative Energy                               0630478 Alternative Energy                               
20120629 759916109 US7599161095 RGEN     NASDAQ       REPLIGEN CORP                  3084      13263.78  0.002308 02 Health Care                    0230 Pharmaceuticals & Biotech                        0230412 Biotechnology                                    
20120629 76009N100 US76009N1000 RCII     NASDAQ       RENT A CENTER INC             59413    2004594.62  0.348753 03 Consumer Discretionary         0330 Consumer Services                                0330809 Rental & Leasing Services: Consumer              
20120629 760112102 US7601121020 RTK      NYSE MKT     RENTECH INC                   75377     155277.20  0.027015 07 Materials & Processing         0720 Chemicals and Synthetics                         0720485 Fertilizers                                      
20120629 760174102 US7601741025 RENT     NASDAQ       RENTRAK CORP                   3770      77851.84  0.013544 03 Consumer Discretionary         0350 Media                                            0350480 Entertainment                                    
20120629 760276105 US7602761055 RJET     NASDAQ       REPUBLIC AIRWAYS HLD          21842     121227.72  0.021091 08 Producer Durables              0840 Transportation & Freight                         0840310 Air Transport                                    
20120629 760281204 US7602812049 RBCAA    NASDAQ       REPUBLIC BANCORP INC KY        9955     221498.75  0.038536 10 Financial Services             1010 Banks                                            1010400 Banks: Diversified                               
20120629 76116A108 US76116A1088 REN      NYSE         RESOLUTE ENERGY CORP          48259     461838.63  0.080349 06 Energy                         0620 Non-Renewable Energy                             0620670 Oil: Crude Producers                             
20120629 76117W109 US76117W1099 RFP      NYSE         RESOLUTE FOREST PRODUCTS      81004     938026.32  0.163195 07 Materials & Processing         0730 Industrial Materials & Processes                 0730720 Paper                                            
20120629 761195205 US7611952059 REXI     NASDAQ       RESOURCE AMERICA INC          12014      76649.32  0.013335 10 Financial Services             1040 Investment Banking & Brokerage Services          1040544 Asset Management & Custodian                     
20120629 76120W302 US76120W3025 RSO      NYSE         RESOURCE CAPITAL CORP         84741     451669.53  0.078580 10 Financial Services             1050 Real Estate                                      1050806 Real Estate Investment Trusts (REITs)            
20120629 76122Q105 US76122Q1058 RECN     NASDAQ       RESOURCES CONNECTION          42499     522737.70  0.090944 08 Producer Durables              0850 Commercial Services                              0850365 Back Office Support HR & Consutling              
20120629 76131N101 US76131N1019 ROIC     NASDAQ       RETAIL OPPORTUNITY INVTS      50346     607172.76  0.105634 10 Financial Services             1050 Real Estate                                      1050806 Real Estate Investment Trusts (REITs)            
20120629 761505205 CA7615052056 RVM      NYSE MKT     REVETT MINERALS INC           25496      83881.84  0.014593 07 Materials & Processing         0740 Metals & Minerals                                0740447 Copper                                           
20120629 761525609 US7615256093 REV      NYSE         REVLON INC                    11307     160898.61  0.027993 03 Consumer Discretionary         0320 Consumer Products                                0320450 Cosmetics                                        
20120629 761565100 US7615651004 REXX     NASDAQ       REX ENERGY CORP               43159     483812.39  0.084172 06 Energy                         0620 Non-Renewable Energy                             0620670 Oil: Crude Producers                             
20120629 761624105 US7616241052 REX      NYSE         REX AMERICAN RESOURCES         5041      98389.66  0.017118 06 Energy                         0630 Alternative Energy                               0630478 Alternative Energy                               
20120629 76169B102 US76169B1026 RXN      NYSE         REXNORD CORP NEW              22525     451395.55  0.078532 07 Materials & Processing         0740 Metals & Minerals                                0740630 Metal Fabricating                                
20120629 763165107 US7631651079 RELL     NASDAQ       RICHARDSON ELECTRONICS        13745     169475.85  0.029485 01 Technology                     0120 Electronics                                      0120475 Electronics                                      
20120629 766559603 US7665596034 RIGL     NASDAQ       RIGEL PHARMACEUTICALS         13147     122272.08  0.021273 02 Health Care                    0230 Pharmaceuticals & Biotech                        0230412 Biotechnology                                    
20120629 767754104 US7677541044 RAD      NYSE         RITE AID CORP                603170     844437.47  0.146913 04 Consumer Staples               0420 Personal Care/Drug & Grocery Stores              0420459 Drug & Grocery Store Chains                      
20120629 76973Q105 US76973Q1058 RRTS     NYSE         ROADRUNNER TRNSN SVCS          6090     102867.70  0.017897 08 Producer Durables              0840 Transportation & Freight                         0840865 Truckers                                         
20120629 770196103 US7701961036 RBN      NYSE         ROBBINS & MYERS INC           22720     950114.02  0.165298 08 Producer Durables              0830 Scientific Instruments & Services                0830524 Scientific Instruments: Control & Filter         
20120629 771497104 US7714971048 ROCM     NASDAQ       ROCHESTER MEDICAL CORP         1304      14032.86  0.002441 02 Health Care                    0220 Medical Equipment & Services                     0220507 Medical & Dental Instruments & Supplies          
20120629 774188106 US7741881061 RCKB     NASDAQ       ROCKVILLE FINL INC            28584     330716.88  0.057537 10 Financial Services             1010 Banks                                            1010400 Banks: Diversified                               
20120629 774374102 US7743741024 RMTI     NASDAQ       ROCKWELL MEDICAL INC           1042       9709.40  0.001689 02 Health Care                    0220 Medical Equipment & Services                     0220507 Medical & Dental Instruments & Supplies          
20120629 775043102 US7750431022 RSTI     NASDAQ       ROFIN SINAR TECHNOLOGIES      28546     540375.78  0.094013 01 Technology                     0120 Electronics                                      0120475 Electronics                                      
20120629 775133101 US7751331015 ROG      NYSE         ROGERS CORP                    9388     371827.51  0.064689 01 Technology                     0120 Electronics                                      0120463 Electronic Components                            
20120629 77581P109 US77581P1093 ROMA     NASDAQ       ROMA FINANCIAL CORP            7307      62255.64  0.010831 10 Financial Services             1010 Banks                                            1010400 Banks: Diversified                               
20120629 777780107 US7777801074 RST      NYSE         ROSETTA STONE INC              5414      74919.23  0.013034 03 Consumer Discretionary         0330 Consumer Services                                0330461 Education Services                               
20120629 779287101 US7792871011 RSE      NYSE         ROUSE PROPERTIES INC          22146     300078.30  0.052207 10 Financial Services             1050 Real Estate                                      1050806 Real Estate Investment Trusts (REITs)            
20120629 78112T107 US78112T1079 RBCN     NASDAQ       RUBICON TECHNOLOGY INC        17013     173532.60  0.030191 01 Technology                     0120 Electronics                                      0120476 Semiconductors & Components                      
20120629 781182100 US7811821005 RT       NYSE         RUBY TUESDAY INC              63791     434416.71  0.075578 03 Consumer Discretionary         0340 Leisure                                          0340810 Restaurants                                      
20120629 781270103 US7812701032 RTEC     NASDAQ       RUDOLPH TECHNOLOGIES INC      32136     280225.92  0.048753 01 Technology                     0120 Electronics                                      0120738 Production Technology Equipment                  
20120629 781846209 US7818462092 RUSHA    NASDAQ       RUSH ENTERPRISES INC          33263     543850.05  0.094617 08 Producer Durables              0840 Transportation & Freight                         0840350 Commercial Vehicles & Parts                      
20120629 783764103 US7837641031 RYL      NYSE         RYLAND GROUP INC              19448     497496.52  0.086553 03 Consumer Discretionary         0320 Consumer Products                                0320501 Homebuilding                                     
20120629 783859101 US7838591011 STBA     NASDAQ       S & T BANCORP INC             28913     534023.11  0.092908 10 Financial Services             1010 Banks                                            1010400 Banks: Diversified                               
20120629 78401V102 US78401V1026 SCBT     NASDAQ       SCBT FINANCIAL CORP           15072     531288.00  0.092432 10 Financial Services             1010 Banks                                            1010400 Banks: Diversified                               
20120629 78425V104 US78425V1044 SIFI     NASDAQ       SI FINANCIAL GROUP            10576     121624.00  0.021160 10 Financial Services             1010 Banks                                            1010820 Banks: Savings/Thrifts & Mortgage Lend           
20120629 784305104 US7843051043 SJW      NYSE         SJW CORP                       9712     233179.12  0.040568 11 Utilities                      1110 Utilities                                        1110882 Utilities: Water                                 
20120629 78467J100 US78467J1007 SSNC     NASDAQ       SS&C TECHNOLOGIES HLDGS       24592     614794.95  0.106960 01 Technology                     0130 Information Technology                           0130439 Computer Services Software & Systems             
20120629 784774101 US7847741011 STEC     NASDAQ       STEC INC                      35447     276486.60  0.048102 01 Technology                     0130 Information Technology                           0130449 Computer Technology                              
20120629 78478V100 US78478V1008 STRI     NYSE         STR HOLDINGS INC              30258     137976.48  0.024005 06 Energy                         0610 Energy Equipment & Services                      0610477 Energy Equipment                                 
20120629 78503N107 US78503N1072 SWS      NYSE         SWS GROUP INC                 29167     155460.11  0.027046 10 Financial Services             1040 Investment Banking & Brokerage Services          1040823 Securities Brokerage & Services                  
20120629 785060104 US7850601045 SYBT     NASDAQ       S Y BANCORP INC               12150     290992.50  0.050626 10 Financial Services             1010 Banks                                            1010400 Banks: Diversified                               
20120629 78573L106 US78573L1061 SBRA     NASDAQ       SABRA HEALTH CARE REIT        37051     633942.61  0.110291 10 Financial Services             1050 Real Estate                                      1050806 Real Estate Investment Trusts (REITs)            
20120629 786449207 US7864492076 SFE      NYSE         SAFEGUARD SCIENTIFICS         20792     321860.16  0.055996 01 Technology                     0130 Information Technology                           0130449 Computer Technology                              
20120629 78648T100 US78648T1007 SAFT     NASDAQ       SAFETY INSURANCE GRP INC      12685     515518.40  0.089688 10 Financial Services             1030 Insurance                                        1030542 Insurance: Property-Casualty                     
20120629 786598300 US7865983008 SGA      NYSE MKT     SAGA COMMUNICATIONS INC        3506     130107.66  0.022636 03 Consumer Discretionary         0350 Media                                            0350760 Radio & TV Broadcasters                          
20120629 78709Y105 US78709Y1055 SAIA     NASDAQ       SAIA INC                      13050     285659.68  0.049698 08 Producer Durables              0840 Transportation & Freight                         0840865 Truckers                                         
20120629 79377W108 US79377W1080 SKS      NYSE         SAKS INC                     109870    1170115.50  0.203573 03 Consumer Discretionary         0360 Retail                                           0360815 Diversified Retail                               
20120629 794093104 US7940931048 SALM     NASDAQ       SALEM COMMUNICATIONS          10115      55329.05  0.009626 03 Consumer Discretionary         0350 Media                                            0350760 Radio & TV Broadcasters                          
20120629 800363103 US8003631038 SASR     NASDAQ       SANDY SPRING BANCORP          24149     434682.00  0.075625 10 Financial Services             1010 Banks                                            1010400 Banks: Diversified                               
20120629 800422107 US8004221078 JBSS     NASDAQ       SANFILIPPO JOHN B & SON        7952     141943.20  0.024695 04 Consumer Staples               0410 Food/Beverage & Tobacco                          0410494 Foods                                            
20120629 800907206 US8009072062 SANM     NASDAQ       SANMINA SCI CORP              81499     667476.81  0.116125 01 Technology                     0120 Electronics                                      0120643 Technology: Misc                                 
20120629 806037107 US8060371072 SCSC     NASDAQ       SCANSOURCE INC                27578     844989.92  0.147009 01 Technology                     0120 Electronics                                      0120463 Electronic Components                            
20120629 806373106 US8063731066 SGK      NYSE         SCHAWK INC                    11835     150304.50  0.026149 08 Producer Durables              0850 Commercial Services                              0850486 Forms and Bulk Printing Services                 
20120629 806882106 US8068821060 SCHN     NASDAQ       SCHNITZER STEEL INDS          25246     707392.92  0.123070 07 Materials & Processing         0740 Metals & Minerals                                0740835 Steel                                            
20120629 807066105 US8070661058 SCHL     NASDAQ       SCHOLASTIC CORP               25933     730273.28  0.127051 03 Consumer Discretionary         0350 Media                                            0350740 Publishing                                       
20120629 808194104 US8081941044 SHLM     NASDAQ       SCHULMAN A INC                29518     585932.30  0.101939 07 Materials & Processing         0730 Industrial Materials & Processes                 0730733 Plastics                                         
20120629 808541106 US8085411069 SWM      NYSE         SCHWEITZER-MAUDUIT INTL        4073     277545.53  0.048286 07 Materials & Processing         0730 Industrial Materials & Processes                 0730720 Paper                                            
20120629 80874P109 US80874P1093 SGMS     NASDAQ       SCIENTIFIC GAMES CORP         49342     421872.56  0.073396 03 Consumer Discretionary         0340 Leisure                                          0340434 Casinos & Gambling                               
20120629 811054402 US8110544025 SSP      NYSE         SCRIPPS E W CO                29866     287012.26  0.049933 03 Consumer Discretionary         0350 Media                                            0350438 Diversified Media                                
20120629 811543107 US8115431079 SEB      NYSE MKT     SEABOARD CORP                   306     652691.88  0.113553 04 Consumer Staples               0410 Food/Beverage & Tobacco                          0410305 Agriculture Fishing & Ranching                   
20120629 811656107 US8116561072 SBX      NYSE         SEABRIGHT HOLDINGS INC        19792     175950.88  0.030611 10 Financial Services             1030 Insurance                                        1030542 Insurance: Property-Casualty                     
20120629 811699107 US8116991071 SEAC     NASDAQ       SEACHANGE INTERNATIONAL       28581     235221.63  0.040923 01 Technology                     0140 Telecommunication                                0140448 Communications Technology                        
20120629 811707306 US8117073069 SBCF     NASDAQ       SEACOAST BANKING CORP FL      73500     110985.00  0.019309 10 Financial Services             1010 Banks                                            1010400 Banks: Diversified                               
20120629 812139301 US8121393016 ZZ       NYSE         SEALY CORP                    50183      92838.55  0.016152 03 Consumer Discretionary         0320 Consumer Products                                0320523 Household Furnishings                            
20120629 81618T100 US81618T1007 SIR      NYSE         SELECT INCOME REIT             9204     218687.04  0.038046 10 Financial Services             1050 Real Estate                                      1050806 Real Estate Investment Trusts (REITs)            
20120629 81619Q105 US81619Q1058 SEM      NYSE         SELECT MEDICAL HOLDINGS       34982     353668.02  0.061530 02 Health Care                    0210 Health Care Services                             0210504 Health Care Facilities                           
20120629 816300107 US8163001071 SIGI     NASDAQ       SELECTIVE INSURANCE GRP       54805     954155.05  0.166001 10 Financial Services             1030 Insurance                                        1030542 Insurance: Property-Casualty                     
20120629 81663A105 US81663A1051 SEMG     NYSE         SEMGROUP CORP                 41797    1334578.21  0.232186 06 Energy                         0620 Non-Renewable Energy                             0620877 Gas Pipeline                                     
20120629 817070501 US8170705011 SENEA    NASDAQ       SENECA FOODS CORP              9068     243929.20  0.042438 04 Consumer Staples               0410 Food/Beverage & Tobacco                          0410494 Foods                                            
20120629 81725T100 US81725T1007 SXT      NYSE         SENSIENT TECHNOLOGIES         49922    1833635.06  0.319010 07 Materials & Processing         0720 Chemicals and Synthetics                         0720433 Chemicals: Diversified                           
20120629 817337405 US8173374054 SQNM     NASDAQ       SEQUENOM INC                  27260     110678.68  0.019256 02 Health Care                    0230 Pharmaceuticals & Biotech                        0230412 Biotechnology                                    
20120629 82312B106 US82312B1061 SHEN     NASDAQ       SHENANDOAH TELECOMM CO        23849     324584.89  0.056470 11 Utilities                      1110 Utilities                                        1110880 Utilities: Telecommunications                    
20120629 824543102 US8245431023 SHLO     NASDAQ       SHILOH INDUSTRIES INC          5830      67045.00  0.011664 07 Materials & Processing         0740 Metals & Minerals                                0740835 Steel                                            
20120629 824889109 US8248891090 SCVL     NASDAQ       SHOE CARNIVAL INC             14283     306941.67  0.053401 03 Consumer Discretionary         0360 Retail                                           0360834 Specialty Retail                                 
20120629 825211105 US8252111054 SHOR     NASDAQ       SHORETEL INC                   5882      25763.63  0.004482 01 Technology                     0140 Telecommunication                                0140448 Communications Technology                        
20120629 82568P304 US82568P3047 SFLY     NASDAQ       SHUTTERFLY INC                26787     822077.29  0.143022 03 Consumer Discretionary         0360 Retail                                           0360834 Specialty Retail                                 
20120629 82620P102 US82620P1021 BSRR     NASDAQ       SIERRA BANCORP                12086     119651.40  0.020817 10 Financial Services             1010 Banks                                            1010400 Banks: Diversified                               
20120629 826546103 US8265461033 SIF      NYSE MKT     SIFCO INDS INC                 1505      34577.73  0.006016 08 Producer Durables              0840 Transportation & Freight                         0840300 Aerospace                                        
20120629 826565103 US8265651039 SIGM     NASDAQ       SIGMA DESIGNS INC             32904     209927.52  0.036523 01 Technology                     0120 Electronics                                      0120476 Semiconductors & Components                      
20120629 82705T102 US82705T1025 SIMG     NASDAQ       SILICON IMAGE INC             13652      56522.74  0.009834 01 Technology                     0120 Electronics                                      0120476 Semiconductors & Components                      
20120629 82706L108 US82706L1089 SGI      NASDAQ       SILICON GRAPHICS INTL         30244     194162.58  0.033780 01 Technology                     0130 Information Technology                           0130449 Computer Technology                              
20120629 828730200 US8287302009 SFNC     NASDAQ       SIMMONS FIRST NATIONAL        17114     397900.50  0.069225 10 Financial Services             1010 Banks                                            1010400 Banks: Diversified                               
20120629 829073105 US8290731053 SSD      NYSE         SIMPSON MANUFACTURING         35920    1059999.20  0.184415 07 Materials & Processing         0710 Building Materials & Services                    0710430 Building Materials                               
20120629 829226109 US8292261091 SBGI     NASDAQ       SINCLAIR BROADCAST GROUP      46284     419330.54  0.072954 03 Consumer Discretionary         0350 Media                                            0350760 Radio & TV Broadcasters                          
20120629 830566105 US8305661055 SKX      NYSE         SKECHERS U S A INC            37845     770902.65  0.134119 03 Consumer Discretionary         0320 Consumer Products                                0320850 Textiles Apparel & Shoes                         
20120629 83066R107 US83066R1077 SKH      NYSE         SKILLED HEALTHCARE GROUP       1339       8413.06  0.001464 02 Health Care                    0210 Health Care Services                             0210504 Health Care Facilities                           
20120629 830879102 US8308791024 SKYW     NASDAQ       SKYWEST INC                   47633     311041.14  0.054114 08 Producer Durables              0840 Transportation & Freight                         0840310 Air Transport                                    
20120629 83169Y108 US83169Y1082 SMBL     NASDAQ       SMART BALANCE INC             58941     553455.99  0.096289 04 Consumer Staples               0410 Food/Beverage & Tobacco                          0410494 Foods                                            
20120629 831865209 US8318652091 AOS      NYSE         SMITH A O CORP                28234    1380344.37  0.240148 08 Producer Durables              0830 Scientific Instruments & Services                0830465 Scientific Instruments: Electrical               
20120629 833551104 US8335511049 LNCE     NASDAQ       SNYDER'S-LANCE INC             4898     123592.99  0.021502 04 Consumer Staples               0410 Food/Beverage & Tobacco                          0410494 Foods                                            
20120629 83413U100 US83413U1007 SLRC     NASDAQ       SOLAR CAPITAL LTD             36608     814894.08  0.141773 10 Financial Services             1040 Investment Banking & Brokerage Services          1040544 Asset Management & Custodian                     
20120629 83416M105 US83416M1053 SUNS     NASDAQ       SOLAR SENIOR CAP LTD           9500     160550.00  0.027932 10 Financial Services             1040 Investment Banking & Brokerage Services          1040544 Asset Management & Custodian                     
20120629 83438K103 US83438K1034 SLTM     NASDAQ       SOLTA MEDICAL INC             61594     180470.42  0.031398 02 Health Care                    0220 Medical Equipment & Services                     0220471 Medical Equipment                                
20120629 835451105 US8354511052 SONC     NASDAQ       SONIC CORP                    11760     117836.06  0.020501 03 Consumer Discretionary         0340 Leisure                                          0340810 Restaurants                                      
20120629 83545G102 US83545G1022 SAH      NYSE         SONIC AUTOMOTIVE INC          40283     550668.61  0.095804 03 Consumer Discretionary         0360 Retail                                           0360834 Specialty Retail                                 
20120629 835898107 US8358981079 BID      NYSE         SOTHEBYS                      43965    1466657.65  0.255164 03 Consumer Discretionary         0330 Consumer Services                                0330638 Consumer Services: Misc                          
20120629 835916107 US8359161077 SONS     NASDAQ       SONUS NETWORKS INC           194003     417105.30  0.072567 01 Technology                     0140 Telecommunication                                0140448 Communications Technology                        
20120629 838518108 US8385181081 SJI      NYSE         SOUTH JERSEY INDUSTRIES       23774    1211739.47  0.210815 11 Utilities                      1110 Utilities                                        1110875 Utilities: Gas Distributors                      
20120629 84470P109 US84470P1093 SBSI     NASDAQ       SOUTHSIDE BANCSHARES INC      17336     389713.28  0.067801 10 Financial Services             1010 Banks                                            1010400 Banks: Diversified                               
20120629 844767103 US8447671038 OKSB     NASDAQ       SOUTHWEST BANCORP INC OK      19447     182996.27  0.031837 10 Financial Services             1010 Banks                                            1010400 Banks: Diversified                               
20120629 844895102 US8448951025 SWX      NYSE         SOUTHWEST GAS CORP            46112    2012788.80  0.350179 11 Utilities                      1110 Utilities                                        1110875 Utilities: Gas Distributors                      
20120629 84610H108 US84610H1086 SSS      NYSE         SOVRAN SELF STORAGE            2551     127820.86  0.022238 10 Financial Services             1050 Real Estate                                      1050806 Real Estate Investment Trusts (REITs)            
20120629 84649R200 US84649R2004 CODE     NYSE         SPANSION INC                  48227     529532.46  0.092126 01 Technology                     0120 Electronics                                      0120476 Semiconductors & Components                      
20120629 846819100 US8468191007 SPAR     NASDAQ       SPARTAN MOTORS INC            33878     177520.72  0.030884 08 Producer Durables              0840 Transportation & Freight                         0840350 Commercial Vehicles & Parts                      
20120629 846822104 US8468221044 SPTN     NASDAQ       SPARTAN STORES INC            21665     392786.45  0.068336 04 Consumer Staples               0420 Personal Care/Drug & Grocery Stores              0420459 Drug & Grocery Store Chains                      
20120629 847220209 US8472202097 SEH      NYSE         SPARTECH CORP                 30800     159236.00  0.027703 07 Materials & Processing         0730 Industrial Materials & Processes                 0730733 Plastics                                         
20120629 84763R101 US84763R1014 SPB      NYSE         SPECTRUM BRANDS HOLDINGS       3742     121892.57  0.021206 04 Consumer Staples               0420 Personal Care/Drug & Grocery Stores              0420637 Miscellaneous Consumer Staples                   
20120629 847788106 US8477881069 TRK      NYSE         SPEEDWAY MOTORSPORTS INC      11649     196984.59  0.034271 03 Consumer Discretionary         0340 Leisure                                          0340556 Leisure Time                                     
20120629 85254C305 US85254C3051 SSI      NYSE         STAGE STORES INC              30658     561654.56  0.097715 03 Consumer Discretionary         0360 Retail                                           0360834 Specialty Retail                                 
20120629 85254J102 US85254J1025 STAG     NYSE         STAG INDL INC                 23911     348622.38  0.060652 10 Financial Services             1050 Real Estate                                      1050806 Real Estate Investment Trusts (REITs)            
20120629 853666105 US8536661056 SMP      NYSE         STANDARD MOTOR PRODUCTS       19850     279488.00  0.048624 03 Consumer Discretionary         0310 Auto & Auto Parts                                0310340 Auto Parts                                       
20120629 85375C101 US85375C1018 SPF      NYSE         STANDARD PACIFIC CORP        108518     671726.42  0.116865 03 Consumer Discretionary         0320 Consumer Products                                0320501 Homebuilding                                     
20120629 854231107 US8542311076 SXI      NYSE         STANDEX INTERNATIONAL          9734     414338.24  0.072085 08 Producer Durables              0820 Manufacturing & Production                       0820453 Diversified Manufacturing Operations             
20120629 855707105 US8557071052 STFC     NASDAQ       STATE AUTO FINANCIAL          12591     176889.56  0.030775 10 Financial Services             1030 Insurance                                        1030542 Insurance: Property-Casualty                     
20120629 85571B105 US85571B1052 STWD     NYSE         STARWOOD PPTY TRUST INC      116379    2480036.49  0.431469 10 Financial Services             1050 Real Estate                                      1050806 Real Estate Investment Trusts (REITs)            
20120629 856190103 US8561901039 STBZ     NASDAQ       STATE BK FINL CORP            31721     480890.36  0.083664 10 Financial Services             1010 Banks                                            1010400 Banks: Diversified                               
20120629 858155203 US8581552036 SCS      NYSE         STEELCASE INC                 65578     592164.93  0.103023 08 Producer Durables              0820 Manufacturing & Production                       0820650 Office Supplies Equipment                        
20120629 858375108 US8583751081 SMRT     NASDAQ       STEIN MART INC                27319     217186.05  0.037785 03 Consumer Discretionary         0360 Retail                                           0360834 Specialty Retail                                 
20120629 858495104 US8584951045 LVB      NYSE         STEINWAY MUSICAL INS           6904     169148.00  0.029428 03 Consumer Discretionary         0340 Leisure                                          0340556 Leisure Time                                     
20120629 85856G100 US85856G1004 STEL     NASDAQ       STELLARONE CORP               23080     288038.40  0.050112 10 Financial Services             1010 Banks                                            1010400 Banks: Diversified                               
20120629 858586100 US8585861003 SCL      NYSE         STEPAN CO                       461      43500.80  0.007568 07 Materials & Processing         0720 Chemicals and Synthetics                         0720833 Chemicals: Specialty                             
20120629 859152100 US8591521005 STE      NYSE         STERIS CORP                   15202     476917.42  0.082973 02 Health Care                    0220 Medical Equipment & Services                     0220507 Medical & Dental Instruments & Supplies          
20120629 859158107 US8591581074 STL      NYSE         STERLING BANCORP              30917     308551.66  0.053681 10 Financial Services             1010 Banks                                            1010400 Banks: Diversified                               
20120629 859241101 US8592411016 STRL     NASDAQ       STERLING CONSTRUCTION CO      14659     149814.49  0.026064 08 Producer Durables              0820 Manufacturing & Production                       0820443 Construction                                     
20120629 859319303 US8593193035 STSA     NASDAQ       STERLING FINL CORP WASH       26774     505760.86  0.087991 10 Financial Services             1010 Banks                                            1010400 Banks: Diversified                               
20120629 860370105 US8603701058 STEI     NASDAQ       STEWART ENTERPRISES           74729     533565.06  0.092828 03 Consumer Discretionary         0330 Consumer Services                                0330495 Funeral Parlors & Cemetery                       
20120629 860372101 US8603721015 STC      NYSE         STEWART INFORMATION           18314     281119.90  0.048908 10 Financial Services             1030 Insurance                                        1030542 Insurance: Property-Casualty                     
20120629 860630102 US8606301021 SF       NYSE         STIFEL FINANCIAL CORP         27332     844551.79  0.146932 10 Financial Services             1040 Investment Banking & Brokerage Services          1040457 Diversified Financial Services                   
20120629 86074Q102 US86074Q1022 SWC      NYSE         STILLWATER MINING CO         115757     988564.78  0.171987 07 Materials & Processing         0740 Metals & Minerals                                0740549 Precious Metals & Minerals                       
20120629 861642106 US8616421066 SGY      NYSE         STONE ENERGY CORP             49472    1253620.48  0.218101 06 Energy                         0620 Non-Renewable Energy                             0620670 Oil: Crude Producers                             
20120629 86183P102 US86183P1021 SRI      NYSE         STONERIDGE INC                28014     190775.34  0.033190 03 Consumer Discretionary         0310 Auto & Auto Parts                                0310340 Auto Parts                                       
20120629 86272T106 US86272T1060 BEE      NYSE         STRATEGIC HOTEL & RESORT      27690     178878.00  0.031121 10 Financial Services             1050 Real Estate                                      1050806 Real Estate Investment Trusts (REITs)            
20120629 864739107 US8647391072 SUBK     NASDAQ       SUFFOLK BANCORP                9727     126159.19  0.021949 10 Financial Services             1010 Banks                                            1010400 Banks: Diversified                               
20120629 866082100 US8660821005 INN      NYSE         SUMMIT HOTEL PROPER           30537     255594.69  0.044468 10 Financial Services             1050 Real Estate                                      1050806 Real Estate Investment Trusts (REITs)            
20120629 86663B102 US86663B1026 SNBC     NASDAQ       SUN BANCORP INC NJ            39833     107549.10  0.018711 10 Financial Services             1010 Banks                                            1010400 Banks: Diversified                               
20120629 86677E100 US86677E1001 SUNH     NASDAQ       SUN HEALTHCARE GROUP INC      25531     213694.47  0.037178 02 Health Care                    0210 Health Care Services                             0210499 Health Care Services                             
20120629 86722A103 US86722A1034 SXC      NYSE         SUNCOKE ENERGY INC            20584     301557.30  0.052464 06 Energy                         0620 Non-Renewable Energy                             0620435 Coal                                             
20120629 867652406 US8676524064 SPWR     NASDAQ       SUNPOWER CORP                 21432     103086.56  0.017935 06 Energy                         0610 Energy Equipment & Services                      0610477 Energy Equipment                                 
20120629 86768K106 US86768K1060 SRZ      NYSE         SUNRISE SENIOR LIVING         11406      83151.34  0.014466 02 Health Care                    0210 Health Care Services                             0210504 Health Care Facilities                           
20120629 867892101 US8678921011 SHO      NYSE         SUNSTONE HOTEL INVS INC      119108    1308996.92  0.227735 10 Financial Services             1050 Real Estate                                      1050806 Real Estate Investment Trusts (REITs)            
20120629 86800U104 US86800U1043 SMCI     NASDAQ       SUPER MICRO COMPUTER INC       3057      48498.53  0.008438 01 Technology                     0130 Information Technology                           0130449 Computer Technology                              
20120629 868168105 US8681681057 SUP      NYSE         SUPERIOR INDUSTRIES INTL      22976     376117.12  0.065436 03 Consumer Discretionary         0310 Auto & Auto Parts                                0310340 Auto Parts                                       
20120629 868459108 US8684591089 SUPN     NASDAQ       SUPERNUS PHARMACEUTICALS       3371      31552.56  0.005489 02 Health Care                    0230 Pharmaceuticals & Biotech                        0230460 Pharmaceuticals                                  
20120629 868532102 US8685321023 SUPX     NASDAQ       SUPERTEX INC                  10312     194381.20  0.033818 01 Technology                     0120 Electronics                                      0120476 Semiconductors & Components                      
20120629 868536103 US8685361037 SVU      NYSE         SUPERVALU INC                 51578     267176.38  0.046482 04 Consumer Staples               0420 Personal Care/Drug & Grocery Stores              0420459 Drug & Grocery Store Chains                      
20120629 86858W101 US86858W1018 SPRT     NASDAQ       SUPPORT.COM INC               14563      46456.27  0.008082 01 Technology                     0130 Information Technology                           0130439 Computer Services Software & Systems             
20120629 868733106 US8687331061 SURW     NASDAQ       SUREWEST COMMUNICATIONS       13356     281401.65  0.048957 11 Utilities                      1110 Utilities                                        1110880 Utilities: Telecommunications                    
20120629 868873100 US8688731004 SRDX     NASDAQ       SURMODICS INC                 11867     205298.55  0.035717 02 Health Care                    0220 Medical Equipment & Services                     0220507 Medical & Dental Instruments & Supplies          
20120629 869099101 US8690991018 SUSQ     NASDAQ       SUSQUEHANNA BANCSHARES       187856    1934916.80  0.336631 10 Financial Services             1010 Banks                                            1010400 Banks: Diversified                               
20120629 869233106 US8692331064 SUSS     NASDAQ       SUSSER HOLDINGS CORP           6422     238702.47  0.041529 04 Consumer Staples               0420 Personal Care/Drug & Grocery Stores              0420459 Drug & Grocery Store Chains                      
20120629 870738101 US8707381013 SFY      NYSE         SWIFT ENERGY CO               42845     797345.45  0.138720 06 Energy                         0620 Non-Renewable Energy                             0620670 Oil: Crude Producers                             
20120629 870808102 US8708081026 SWSH     NASDAQ       SWISHER HYGIENE INC          112636     284969.08  0.049578 08 Producer Durables              0850 Commercial Services                              0850484 Environmental Maint & Security Service           
20120629 871206405 US8712064059 SCMR     NASDAQ       SYCAMORE NETWORKS INC         20504     297718.08  0.051796 01 Technology                     0140 Telecommunication                                0140448 Communications Technology                        
20120629 871237103 US8712371033 SYKE     NASDAQ       SYKES ENTERPRISES INC         38928     621290.88  0.108090 08 Producer Durables              0850 Commercial Services                              0850365 Back Office Support HR & Consutling              
20120629 87151Q106 US87151Q1067 SYA      NYSE         SYMETRA FINANCIAL CORP        77411     976926.82  0.169963 10 Financial Services             1030 Insurance                                        1030528 Insurance: Life                                  
20120629 871543104 US8715431040 SYMM     NASDAQ       SYMMETRICOM INC               41618     249291.82  0.043371 01 Technology                     0140 Telecommunication                                0140849 Telecommunications Equipment                     
20120629 871546206 US8715462060 SMA      NYSE         SYMMETRY MEDICAL INC          25258     216708.17  0.037702 02 Health Care                    0220 Medical Equipment & Services                     0220507 Medical & Dental Instruments & Supplies          
20120629 871561106 US8715611062 SYNC     NASDAQ       SYNACOR INC                     364       4990.69  0.000868 01 Technology                     0130 Information Technology                           0130439 Computer Services Software & Systems             
20120629 87162W100 US87162W1009 SNX      NYSE         SYNNEX CORP                   26290     906742.10  0.157752 01 Technology                     0130 Information Technology                           0130439 Computer Services Software & Systems             
20120629 87164P103 US87164P1030 SYRG     NYSE MKT     SYNERGY RES CORP              37172     114488.53  0.019918 06 Energy                         0620 Non-Renewable Energy                             0620670 Oil: Crude Producers                             
20120629 871655106 US8716551069 SYPR     NASDAQ       SYPRIS SOLUTIONS INC           3535      24641.67  0.004287 08 Producer Durables              0840 Transportation & Freight                         0840350 Commercial Vehicles & Parts                      
20120629 871851101 US8718511012 SYX      NYSE         SYSTEMAX INC                  10365     122513.12  0.021314 03 Consumer Discretionary         0360 Retail                                           0360834 Specialty Retail                                 
20120629 872386107 US8723861071 TESS     NASDAQ       TESSCO TECHNOLOGIES INC        2646      58365.93  0.010154 01 Technology                     0140 Telecommunication                                0140849 Telecommunications Equipment                     
20120629 87238Q103 US87238Q1031 TCPC     NASDAQ       TCP CAP CORP                   5755      83217.30  0.014478 10 Financial Services             1040 Investment Banking & Brokerage Services          1040544 Asset Management & Custodian                     
20120629 872438106 US8724381061 TCRD     NASDAQ       THL CR INC                    11929     160683.63  0.027955 10 Financial Services             1040 Investment Banking & Brokerage Services          1040544 Asset Management & Custodian                     
20120629 87244T109 US87244T1097 TICC     NASDAQ       TICC CAPITAL CORP             37755     366223.50  0.063714 10 Financial Services             1040 Investment Banking & Brokerage Services          1040544 Asset Management & Custodian                     
20120629 87261Q103 US87261Q1031 TMS      NYSE         TMS INTL CORP                  6438      64181.88  0.011166 07 Materials & Processing         0740 Metals & Minerals                                0740835 Steel                                            
20120629 872625108 US8726251080 TRR      NYSE         TRC COS INC                    2355      14320.08  0.002491 08 Producer Durables              0830 Scientific Instruments & Services                0830735 Scientific Instruments: Pollution Control        
20120629 87305R109 US87305R1095 TTMI     NASDAQ       TTM TECHNOLOGIES INC          53155     500188.55  0.087021 01 Technology                     0120 Electronics                                      0120463 Electronic Components                            
20120629 874083108 US8740831081 TAL      NYSE         TAL INTERNATIONAL GROUP       14543     487064.90  0.084738 08 Producer Durables              0840 Transportation & Freight                         0840808 Commercial Services: Rental & Leasing            
20120629 874161102 US8741611029 TLB      NYSE         TALBOTS INC                   30991      78099.12  0.013587 03 Consumer Discretionary         0360 Retail                                           0360834 Specialty Retail                                 
20120629 87611R306 US87611R3066 TRGT     NASDAQ       TARGACEPT INC                 27220     117046.00  0.020363 02 Health Care                    0230 Pharmaceuticals & Biotech                        0230412 Biotechnology                                    
20120629 876851106 US8768511060 TAYC     NASDAQ       TAYLOR CAPITAL GROUP INC      16285     266911.15  0.046436 10 Financial Services             1010 Banks                                            1010400 Banks: Diversified                               
20120629 87874R100 US87874R1005 TTGT     NASDAQ       TECHTARGET INC                15425      77742.00  0.013525 01 Technology                     0130 Information Technology                           0130439 Computer Services Software & Systems             
20120629 879360105 US8793601050 TDY      NYSE         TELEDYNE TECHNOLOGIES         23965    1477396.63  0.257033 08 Producer Durables              0840 Transportation & Freight                         0840300 Aerospace                                        
20120629 879455103 US8794551031 TNAV     NASDAQ       TELENAV INC                   16596     101733.48  0.017699 01 Technology                     0140 Telecommunication                                0140448 Communications Technology                        
20120629 879664100 US8796641004 TLAB     NASDAQ       TELLABS INC                  366211    1219482.63  0.212162 01 Technology                     0140 Telecommunication                                0140448 Communications Technology                        
20120629 87970T208 US87970T2087 WRLS     NASDAQ       TELULAR CORP                   6582      60820.08  0.010581 01 Technology                     0140 Telecommunication                                0140448 Communications Technology                        
20120629 879939106 US8799391060 TTEC     NASDAQ       TELETECH HOLDINGS INC         22962     367392.00  0.063918 08 Producer Durables              0850 Commercial Services                              0850365 Back Office Support HR & Consutling              
20120629 88145X108 US88145X1081 TBNK     NASDAQ       TERRITORIAL BANCORP INC       11035     251266.95  0.043715 10 Financial Services             1010 Banks                                            1010820 Banks: Savings/Thrifts & Mortgage Lend           
20120629 88146M101 US88146M1018 TRNO     NYSE         TERRENO REALTY CORP           13413     202670.43  0.035260 10 Financial Services             1050 Real Estate                                      1050806 Real Estate Investment Trusts (REITs)            
20120629 88157K101 CA88157K1012 TESO     NASDAQ       TESCO CORP                    30348     364176.00  0.063358 06 Energy                         0610 Energy Equipment & Services                      0610600 Oil Well Equipment & Services                    
20120629 88162F105 US88162F1057 TTI      NYSE         TETRA TECHNOLOGIES INC        77572     553088.36  0.096225 06 Energy                         0610 Energy Equipment & Services                      0610600 Oil Well Equipment & Services                    
20120629 88162G103 US88162G1031 TTEK     NASDAQ       TETRA TECH INC                11734     306027.41  0.053242 08 Producer Durables              0850 Commercial Services                              0850479 Engineering & Contracting Services               
20120629 88164L100 US88164L1008 TSRA     NASDAQ       TESSERA TECHNOLOGIES INC      51895     797626.15  0.138768 01 Technology                     0120 Electronics                                      0120738 Production Technology Equipment                  
20120629 88224Q107 US88224Q1076 TCBI     NASDAQ       TEXAS CAPITAL BANCSHARES       4815     194501.52  0.033839 10 Financial Services             1010 Banks                                            1010400 Banks: Diversified                               
20120629 882491103 US8824911031 TXI      NYSE         TEXAS INDUSTRIES INC          22579     880806.79  0.153240 07 Materials & Processing         0710 Building Materials & Services                    0710430 Building Materials                               
20120629 884453101 US8844531017 TPGI     NASDAQ       THOMAS PROPERTIES GROUP       32195     175140.80  0.030470 10 Financial Services             1050 Real Estate                                      1050805 Real Estate                                      
20120629 888706108 US8887061088 TIVO     NASDAQ       TIVO INC                      62346     515601.42  0.089703 03 Consumer Discretionary         0320 Consumer Products                                0320451 Consumer Electronics                             
20120629 890110109 US8901101092 TMP      NYSE MKT     TOMPKINS FINANCIAL CORP        9259     348879.12  0.060697 10 Financial Services             1010 Banks                                            1010400 Banks: Diversified                               
20120629 890516107 US8905161076 TR       NYSE         TOOTSIE ROLL INDUSTRIES        1467      35022.90  0.006093 04 Consumer Staples               0410 Food/Beverage & Tobacco                          0410494 Foods                                            
20120629 891777104 US8917771045 TWGP     NASDAQ       TOWER GROUP INC               16034     334640.06  0.058220 10 Financial Services             1030 Insurance                                        1030542 Insurance: Property-Casualty                     
20120629 89214P109 US89214P1093 TOWN     NASDAQ       TOWNEBANK PORTSMOUTH VA       26322     368508.00  0.064112 10 Financial Services             1010 Banks                                            1010400 Banks: Diversified                               
20120629 89236Y104 US89236Y1047 TPCG     NASDAQ       TPC GROUP INC                  3598     132972.33  0.023134 07 Materials & Processing         0720 Chemicals and Synthetics                         0720433 Chemicals: Diversified                           
20120629 89354M106 US89354M1062 TSPT     NASDAQ       TRANSCEPT PHARM INC           11131      69007.33  0.012006 02 Health Care                    0230 Pharmaceuticals & Biotech                        0230412 Biotechnology                                    
20120629 894650100 US8946501009 TG       NYSE         TREDEGAR CORP                 24154     351682.24  0.061185 07 Materials & Processing         0730 Industrial Materials & Processes                 0730452 Diversified Materials & Processing               
20120629 894675107 US8946751075 TREE     NASDAQ       TREE.COM INC                   2374      27161.35  0.004725 10 Financial Services             1020 Consumer Finance & Credit Services               1020492 Consumer Lending                                 
20120629 89469A104 US89469A1043 THS      NYSE         TREEHOUSE FOODS INC           11720     730060.73  0.127014 04 Consumer Staples               0410 Food/Beverage & Tobacco                          0410494 Foods                                            
20120629 895848109 US8958481090 TCAP     NYSE         TRIANGLE CAPITAL CORP         27263     621051.14  0.108049 10 Financial Services             1040 Investment Banking & Brokerage Services          1040457 Diversified Financial Services                   
20120629 89600B201 US89600B2016 TPLM     NYSE MKT     TRIANGLE PETE CORP            44243     246875.94  0.042951 06 Energy                         0620 Non-Renewable Energy                             0620670 Oil: Crude Producers                             
20120629 896095106 US8960951064 TCBK     NASDAQ       TRICO BANCSHARES              15983     246138.20  0.042822 10 Financial Services             1010 Banks                                            1010400 Banks: Diversified                               
20120629 896215209 US8962152091 TRS      NASDAQ       TRIMAS CORP                    2543      51133.56  0.008896 08 Producer Durables              0820 Manufacturing & Production                       0820453 Diversified Manufacturing Operations             
20120629 896749108 PR8967491088 GTS      NYSE         TRIPLE-S MANAGEMENT CORP      19391     354467.48  0.061669 02 Health Care                    0210 Health Care Services                             0210503 Health Care Management Services                  
20120629 89674K103 US89674K1034 TQNT     NASDAQ       TRIQUINT SEMICONDUCTOR       168528     926904.00  0.161260 01 Technology                     0120 Electronics                                      0120476 Semiconductors & Components                      
20120629 89785X101 US89785X1019 TBI      NYSE         TRUEBLUE INC                  10907     168847.48  0.029376 08 Producer Durables              0850 Commercial Services                              0850365 Back Office Support HR & Consutling              
20120629 898349105 US8983491056 TRST     NASDAQ       TRUSTCO BANK CORP NY          93674     511460.04  0.088982 10 Financial Services             1010 Banks                                            1010400 Banks: Diversified                               
20120629 898402102 US8984021027 TRMK     NASDAQ       TRUSTMARK CORP                64766    1585471.68  0.275835 10 Financial Services             1010 Banks                                            1010400 Banks: Diversified                               
20120629 899035505 US8990355054 TUES     NASDAQ       TUESDAY MORNING CORP          41831     179454.99  0.031221 03 Consumer Discretionary         0360 Retail                                           0360815 Diversified Retail                               
20120629 901109108 US9011091082 TPC      NYSE         TUTOR PERINI CORP             35715     452509.05  0.078726 08 Producer Durables              0820 Manufacturing & Production                       0820443 Construction                                     
20120629 901476101 US9014761012 TWIN     NASDAQ       TWIN DISC INC                  8526     157645.74  0.027427 08 Producer Durables              0810 Machinery                                        0810584 Machinery: Industrial                            
20120629 90187B101 US90187B1017 TWO      NYSE         TWO HBRS INVT CORP           214249    2219619.64  0.386162 10 Financial Services             1050 Real Estate                                      1050806 Real Estate Investment Trusts (REITs)            
20120629 902104108 US9021041085 IIVI     NASDAQ       II VI INC                      7781     129718.34  0.022568 01 Technology                     0120 Electronics                                      0120475 Electronics                                      
20120629 902673102 US9026731029 UFPT     NASDAQ       UFP TECHNOLOGIES INC           5495      92865.50  0.016156 07 Materials & Processing         0730 Industrial Materials & Processes                 0730442 Containers & Packaging                           
20120629 902748102 US9027481020 UIL      NYSE         UIL HOLDINGS CORP             50650    1816309.00  0.315996 11 Utilities                      1110 Utilities                                        1110870 Utilities: Electrical                            
20120629 902788108 US9027881088 UMBF     NASDAQ       UMB FINANCIAL CORP            32284    1653909.32  0.287742 10 Financial Services             1010 Banks                                            1010400 Banks: Diversified                               
20120629 903002103 US9030021037 UMH      NYSE         UMH PROPERTIES INC            10777     115630.04  0.020117 10 Financial Services             1050 Real Estate                                      1050806 Real Estate Investment Trusts (REITs)            
20120629 903119105 US9031191052 UNS      NYSE         UNS ENERGY CORPORATION        40260    1546386.60  0.269035 11 Utilities                      1110 Utilities                                        1110870 Utilities: Electrical                            
20120629 90341G103 US90341G1031 USMO     NASDAQ       USA MOBILITY INC              22145     284784.70  0.049546 11 Utilities                      1110 Utilities                                        1110880 Utilities: Telecommunications                    
20120629 90385V107 US90385V1070 UCTT     NASDAQ       ULTRA CLEAN HOLDINGS INC      23285     149722.55  0.026048 01 Technology                     0120 Electronics                                      0120738 Production Technology Equipment                  
20120629 904214103 US9042141039 UMPQ     NASDAQ       UMPQUA HOLDINGS CORP         111894    1472525.04  0.256185 10 Financial Services             1010 Banks                                            1010400 Banks: Diversified                               
20120629 904677200 US9046772003 UFI      NYSE         UNIFI INC                     14063     159333.79  0.027720 07 Materials & Processing         0730 Industrial Materials & Processes                 0730852 Textile Products                                 
20120629 904708104 US9047081040 UNF      NYSE         UNIFIRST CORP MASS            14494     923992.50  0.160753 08 Producer Durables              0850 Commercial Services                              0850484 Environmental Maint & Security Service           
20120629 90653P105 US90653P1057 UDRL     NASDAQ       UNION DRILLING INC            13872      62146.56  0.010812 06 Energy                         0610 Energy Equipment & Services                      0610600 Oil Well Equipment & Services                    
20120629 90662P104 US90662P1049 UBSH     NASDAQ       UNION FIRST MARKET BKSHS      20260     292757.00  0.050933 10 Financial Services             1010 Banks                                            1010400 Banks: Diversified                               
20120629 909214306 US9092143067 UIS      NYSE         UNISYS CORP                   21472     419792.85  0.073034 01 Technology                     0130 Information Technology                           0130439 Computer Services Software & Systems             
20120629 90984P303 US90984P3038 UCBI     NASDAQ       UNITED COMMUNITY BANKS        41712     357471.84  0.062192 10 Financial Services             1010 Banks                                            1010400 Banks: Diversified                               
20120629 909907107 US9099071071 UBSI     NASDAQ       UNITED BANKSHARES INC         50274    1301091.12  0.226360 10 Financial Services             1010 Banks                                            1010400 Banks: Diversified                               
20120629 91030T109 US91030T1097 UBNK     NASDAQ       UNITED FINANCIAL BANCORP      15526     223263.88  0.038843 10 Financial Services             1010 Banks                                            1010820 Banks: Savings/Thrifts & Mortgage Lend           
20120629 910340108 US9103401082 UFCS     NASDAQ       UNITED FIRE GROUP INC         20126     429287.58  0.074686 10 Financial Services             1030 Insurance                                        1030542 Insurance: Property-Casualty                     
20120629 911268100 US9112681005 UNTD     NASDAQ       UNITED ONLINE INC             90602     382340.44  0.066518 01 Technology                     0130 Information Technology                           0130439 Computer Services Software & Systems             
20120629 911922102 US9119221029 USLM     NASDAQ       UNITED STATES LIME & MIN        105       4942.17  0.000860 07 Materials & Processing         0740 Metals & Minerals                                0740635 Metals & Minerals: Diversified                   
20120629 913004107 US9130041075 USTR     NASDAQ       UNITED STATIONERS INC         38355    1033657.52  0.179832 08 Producer Durables              0820 Manufacturing & Production                       0820650 Office Supplies Equipment                        
20120629 913259107 US9132591077 UTL      NYSE         UNITIL CORP                   13751     364401.50  0.063397 11 Utilities                      1110 Utilities                                        1110870 Utilities: Electrical                            
20120629 91338E101 US91338E1010 UAM      NYSE         UNIVERSAL AMERICAN CORP       37573     395643.69  0.068833 02 Health Care                    0210 Health Care Services                             0210503 Health Care Management Services                  
20120629 913456109 US9134561094 UVV      NYSE         UNIVERSAL CORP                23257    1077496.81  0.187459 04 Consumer Staples               0410 Food/Beverage & Tobacco                          0410856 Tobacco                                          
20120629 913483103 US9134831034 UEIC     NASDAQ       UNIVERSAL ELECTRONICS         14932     196654.44  0.034213 03 Consumer Discretionary         0320 Consumer Products                                0320451 Consumer Electronics                             
20120629 913543104 US9135431040 UFPI     NASDAQ       UNIVERSAL FOREST PRODS        19716     768529.68  0.133706 07 Materials & Processing         0730 Industrial Materials & Processes                 0730496 Forest Products                                  
20120629 91359E105 US91359E1055 UHT      NYSE         UNIVERSAL HEALTH REALTY        4504     187068.35  0.032546 10 Financial Services             1050 Real Estate                                      1050806 Real Estate Investment Trusts (REITs)            
20120629 91359V107 US91359V1070 UVE      NYSE MKT     UNIVERSAL INSURANCE           16513      56306.72  0.009796 10 Financial Services             1030 Insurance                                        1030542 Insurance: Property-Casualty                     
20120629 913837100 US9138371003 USAP     NASDAQ       UNIVERSAL STAINLESS & AL       6852     281617.20  0.048995 07 Materials & Processing         0740 Metals & Minerals                                0740835 Steel                                            
20120629 91388P105 US91388P1057 UACL     NASDAQ       UNIVERSAL TRUCKLOAD SVCS       5471      82748.88  0.014396 08 Producer Durables              0840 Transportation & Freight                         0840865 Truckers                                         
20120629 913915104 US9139151040 UTI      NYSE         UNIVERSAL TECHNICAL INST       7355      99369.99  0.017288 03 Consumer Discretionary         0330 Consumer Services                                0330461 Education Services                               
20120629 915271100 US9152711001 UVSP     NASDAQ       UNIVEST CORP OF PENN          16780     277373.40  0.048257 10 Financial Services             1010 Banks                                            1010400 Banks: Diversified                               
20120629 91531F103 US91531F1030 UPIP     NASDAQ       UNWIRED PLANET INC             5292      12173.55  0.002118 01 Technology                     0130 Information Technology                           0130439 Computer Services Software & Systems             
20120629 916896103 US9168961038 UEC      NYSE MKT     URANIUM ENERGY CORP           44902     102823.45  0.017889 07 Materials & Processing         0740 Metals & Minerals                                0740635 Metals & Minerals: Diversified                   
20120629 917286205 US9172862057 UBA      NYSE         URSTADT BIDDLE PPTYS INS       5447     107703.40  0.018738 10 Financial Services             1050 Real Estate                                      1050806 Real Estate Investment Trusts (REITs)            
20120629 91732J102 US91732J1025 ECOL     NASDAQ       US ECOLOGY INC                 6834     121243.66  0.021094 08 Producer Durables              0830 Scientific Instruments & Services                0830735 Scientific Instruments: Pollution Control        
20120629 918284100 US9182841000 VSEC     NASDAQ       VSE CORP                       4118      97967.22  0.017044 08 Producer Durables              0850 Commercial Services                              0850479 Engineering & Contracting Services               
20120629 91829F104 US91829F1049 VOXX     NASDAQ       VOXX INTERNATIONAL CORP       18231     169912.92  0.029561 03 Consumer Discretionary         0320 Consumer Products                                0320451 Consumer Electronics                             
20120629 91879Q109 US91879Q1094 MTN      NYSE         VAIL RESORTS INC              23337    1168688.11  0.203325 03 Consumer Discretionary         0340 Leisure                                          0340556 Leisure Time                                     
20120629 918866104 US9188661048 VCI      NYSE         VALASSIS COMMUNICATIONS       16548     359921.61  0.062618 03 Consumer Discretionary         0350 Media                                            0350301 Advertising Agencies                             
20120629 920437100 US9204371002 VALU     NASDAQ       VALUE LINE INC                  122       1455.19  0.000253 10 Financial Services             1020 Consumer Finance & Credit Services               1020489 Financial Data & Systems                         
20120629 92046N102 US92046N1028 VCLK     NASDAQ       VALUECLICK INC                32176     527367.23  0.091750 03 Consumer Discretionary         0350 Media                                            0350301 Advertising Agencies                             
20120629 922036207 US9220362076 VHS      NYSE         VANGUARD HEALTH SYS INC        4291      38150.37  0.006637 02 Health Care                    0210 Health Care Services                             0210504 Health Care Facilities                           
20120629 92230Y104 US92230Y1047 VDSI     NASDAQ       VASCO DATA SECURITY INTL      15504     126822.31  0.022064 01 Technology                     0130 Information Technology                           0130439 Computer Services Software & Systems             
20120629 92240M108 US92240M1080 VGR      NYSE         VECTOR GROUP LTD              13068     222430.47  0.038698 04 Consumer Staples               0410 Food/Beverage & Tobacco                          0410856 Tobacco                                          
20120629 922417100 US9224171002 VECO     NASDAQ       VEECO INSTRUMENTS INC         28872     992024.53  0.172589 01 Technology                     0120 Electronics                                      0120738 Production Technology Equipment                  
20120629 92552R406 US92552R4065 VVI      NYSE         VIAD CORP                     20254     405080.00  0.070475 03 Consumer Discretionary         0350 Media                                            0350301 Advertising Agencies                             
20120629 92553H803 US92553H8034 VIAS     NASDAQ       VIASYSTEMS GROUP INC           3844      65348.00  0.011369 01 Technology                     0120 Electronics                                      0120463 Electronic Components                            
20120629 925602104 US9256021042 VICL     NASDAQ       VICAL INC                      6456      23242.23  0.004044 02 Health Care                    0230 Pharmaceuticals & Biotech                        0230460 Pharmaceuticals                                  
20120629 925815102 US9258151029 VICR     NASDAQ       VICOR CORP                    16113     111824.22  0.019455 08 Producer Durables              0820 Manufacturing & Production                       0820734 Power Transmission Equip                         
20120629 92672A101 US92672A1016 VPFG     NASDAQ       VIEWPOINT FINL GROUP          33698     527036.72  0.091692 10 Financial Services             1010 Banks                                            1010820 Banks: Savings/Thrifts & Mortgage Lend           
20120629 927107409 US9271074091 VLGEA    NASDAQ       VILLAGE SUPER MARKET INC       8423     274421.34  0.047743 04 Consumer Staples               0420 Personal Care/Drug & Grocery Stores              0420459 Drug & Grocery Store Chains                      
20120629 92778Q109 US92778Q1094 VCBI     NASDAQ       VIRGINIA COMM BANCORP         26814     226042.02  0.039326 10 Financial Services             1010 Banks                                            1010400 Banks: Diversified                               
20120629 927926303 CA9279263037 VGZ      NYSE MKT     VISTA GOLD CORP               58176     169292.16  0.029453 07 Materials & Processing         0740 Metals & Minerals                                0740498 Gold                                             
20120629 928241108 US9282411084 VPHM     NASDAQ       VIROPHARMA INC                69731    1652624.70  0.287518 02 Health Care                    0230 Pharmaceuticals & Biotech                        0230412 Biotechnology                                    
20120629 92828Q109 US92828Q1094 VRTS     NASDAQ       VIRTUS INVESTMENT PTNRS        2862     231831.96  0.040333 10 Financial Services             1040 Investment Banking & Brokerage Services          1040544 Asset Management & Custodian                     
20120629 92835K103 US92835K1034 VPG      NYSE         VISHAY PRECISION GROUP        12306     171668.70  0.029866 08 Producer Durables              0830 Scientific Instruments & Services                0830474 Scientific Instruments: Gauges & Meters          
20120629 92857F107 US92857F1075 VCRA     NYSE         VOCERA COMMUNICATIONS          3919     104988.03  0.018265 01 Technology                     0140 Telecommunication                                0140849 Telecommunications Equipment                     
20120629 92886T201 US92886T2015 VG       NYSE         VONAGE HLDGS CORP            159133     319857.33  0.055648 11 Utilities                      1110 Utilities                                        1110880 Utilities: Telecommunications                    
20120629 92911K100 US92911K1007 VOG      NYSE MKT     VOYAGER OIL & GAS INC         48044      84557.44  0.014711 06 Energy                         0620 Non-Renewable Energy                             0620670 Oil: Crude Producers                             
20120629 92922P106 US92922P1066 WTI      NYSE         W&T OFFSHORE INC              32292     494059.34  0.085955 06 Energy                         0620 Non-Renewable Energy                             0620670 Oil: Crude Producers                             
20120629 92924F106 US92924F1066 WGL      NYSE         WGL HOLDINGS INC              51535    2048516.25  0.356394 11 Utilities                      1110 Utilities                                        1110875 Utilities: Gas Distributors                      
20120629 929297109 US9292971093 WMS      NYSE         WMS INDUSTRIES INC            55081    1098865.95  0.191177 03 Consumer Discretionary         0340 Leisure                                          0340434 Casinos & Gambling                               
20120629 929328102 US9293281021 WSFS     NASDAQ       WSFS FINANCIAL CORP            7616     307762.56  0.053544 10 Financial Services             1010 Banks                                            1010820 Banks: Savings/Thrifts & Mortgage Lend           
20120629 930427109 US9304271094 WAGE     NYSE         WAGEWORKS INC                  2506      37745.63  0.006567 08 Producer Durables              0850 Commercial Services                              0850365 Back Office Support HR & Consutling              
20120629 93148P102 US93148P1021 WD       NYSE         WALKER & DUNLOP INC           11375     146168.75  0.025430 10 Financial Services             1020 Consumer Finance & Credit Services               1020487 Commercial Finance & Mortgage Co                 
20120629 93317W102 US93317W1027 WAC      NYSE MKT     WALTER INV MGMT CORP          28643     671391.92  0.116807 10 Financial Services             1050 Real Estate                                      1050805 Real Estate                                      
20120629 934390402 US9343904028 WRC      NYSE         WARNACO GROUP INC              5048     214945.67  0.037396 03 Consumer Discretionary         0320 Consumer Products                                0320850 Textiles Apparel & Shoes                         
20120629 93564A100 US93564A1007 WRES     NASDAQ       WARREN RESOURCES INC          57642     138338.81  0.024068 06 Energy                         0620 Non-Renewable Energy                             0620670 Oil: Crude Producers                             
20120629 937303105 US9373031056 WBCO     NASDAQ       WASHINGTON BANKING CO         15421     214351.90  0.037292 10 Financial Services             1010 Banks                                            1010400 Banks: Diversified                               
20120629 939653101 US9396531017 WRE      NYSE         WASHINGTON REAL ESTATE        45362    1290535.02  0.224523 10 Financial Services             1050 Real Estate                                      1050806 Real Estate Investment Trusts (REITs)            
20120629 940610108 US9406101082 WASH     NASDAQ       WASHINGTON TRUST BANCORP      14395     350950.10  0.061057 10 Financial Services             1010 Banks                                            1010400 Banks: Diversified                               
20120629 941888109 US9418881093 WSBF     NASDAQ       WATERSTONE FINANCIAL INC       7304      27755.20  0.004829 10 Financial Services             1010 Banks                                            1010820 Banks: Savings/Thrifts & Mortgage Lend           
20120629 942749102 US9427491025 WTS      NYSE         WATTS WATER TECH INC          29706     990398.04  0.172306 08 Producer Durables              0830 Scientific Instruments & Services                0830524 Scientific Instruments: Control & Filter         
20120629 943315101 US9433151019 WPP      NYSE         WAUSAU PAPER CORP              2248      21874.31  0.003806 07 Materials & Processing         0730 Industrial Materials & Processes                 0730720 Paper                                            
20120629 94770V102 US94770V1026 WBMD     NASDAQ       WEBMD HEALTH CORP             50660    1039036.60  0.180768 02 Health Care                    0210 Health Care Services                             0210499 Health Care Services                             
20120629 947890109 US9478901096 WBS      NYSE         WEBSTER FINANCIAL CORP        72140    1562552.40  0.271848 10 Financial Services             1010 Banks                                            1010400 Banks: Diversified                               
20120629 948849104 US9488491047 WMK      NYSE         WEIS MARKETS INC              11001     489764.52  0.085208 04 Consumer Staples               0420 Personal Care/Drug & Grocery Stores              0420459 Drug & Grocery Store Chains                      
20120629 94946T106 US94946T1060 WCG      NYSE         WELLCARE GROUP INC            22277    1180654.29  0.205406 02 Health Care                    0210 Health Care Services                             0210503 Health Care Management Services                  
20120629 950755108 US9507551086 WERN     NASDAQ       WERNER ENTERPRISES INC         6147     146855.08  0.025549 08 Producer Durables              0840 Transportation & Freight                         0840865 Truckers                                         
20120629 950810101 US9508101014 WSBC     NASDAQ       WESBANCO INC                  23379     497037.54  0.086473 10 Financial Services             1010 Banks                                            1010400 Banks: Diversified                               
20120629 950814103 US9508141036 WAIR     NYSE         WESCO AIRCRAFT HLDGS INC      13219     168274.69  0.029276 08 Producer Durables              0840 Transportation & Freight                         0840300 Aerospace                                        
20120629 95123P106 US95123P1066 WTBA     NASDAQ       WEST BANCORPORATION INC       15646     148793.46  0.025887 10 Financial Services             1010 Banks                                            1010400 Banks: Diversified                               
20120629 952145209 US9521452097 WCBO     NASDAQ       WEST COAST BANCORP            19271     378675.15  0.065881 10 Financial Services             1010 Banks                                            1010400 Banks: Diversified                               
20120629 954235107 US9542351070 WMAR     NASDAQ       WEST MARINE INC               15185     178423.75  0.031042 03 Consumer Discretionary         0340 Leisure                                          0340556 Leisure Time                                     
20120629 955306105 US9553061055 WST      NYSE         WEST PHARMACEUTICAL SVCS      12262     619146.25  0.107717 02 Health Care                    0220 Medical Equipment & Services                     0220507 Medical & Dental Instruments & Supplies          
20120629 957090103 US9570901036 WABC     NASDAQ       WESTAMERICA BANCORP           12511     590412.26  0.102718 10 Financial Services             1010 Banks                                            1010400 Banks: Diversified                               
20120629 957541105 US9575411056 WSTL     NASDAQ       WESTELL TECHNOLOGIES INC      48604     115677.52  0.020125 01 Technology                     0140 Telecommunication                                0140448 Communications Technology                        
20120629 957638109 US9576381092 WAL      NYSE         WESTERN ALLIANCE BANCORP      69919     654441.84  0.113858 10 Financial Services             1010 Banks                                            1010400 Banks: Diversified                               
20120629 95790D105 US95790D1054 WMC      NYSE         WESTERN ASSET MTG CAP          7997     155861.53  0.027116 10 Financial Services             1050 Real Estate                                      1050806 Real Estate Investment Trusts (REITs)            
20120629 959319104 US9593191045 WNR      NYSE         WESTERN REFINING INC          23437     521949.47  0.090807 06 Energy                         0620 Non-Renewable Energy                             0620605 Oil: Refining & Marketing                        
20120629 96008P104 US96008P1049 WFD      NASDAQ       WESTFIELD FINANCIAL INC       26602     194194.60  0.033785 10 Financial Services             1010 Banks                                            1010820 Banks: Savings/Thrifts & Mortgage Lend           
20120629 960878106 US9608781061 WLB      NASDAQ       WESTMORELAND COAL CO          10883      87608.15  0.015242 06 Energy                         0620 Non-Renewable Energy                             0620435 Coal                                             
20120629 96169B100 US96169B1008 WWAY     NASDAQ       WESTWAY GROUP INC             10666      63883.75  0.011114 04 Consumer Staples               0410 Food/Beverage & Tobacco                          0410494 Foods                                            
20120629 961840105 US9618401056 WTSLA    NASDAQ       WET SEAL INC                  90456     285840.96  0.049730 03 Consumer Discretionary         0360 Retail                                           0360834 Specialty Retail                                 
20120629 962149100 US9621491003 WEYS     NASDAQ       WEYCO GROUP INC                6221     144189.80  0.025086 03 Consumer Discretionary         0320 Consumer Products                                0320850 Textiles Apparel & Shoes                         
20120629 966084204 US9660842041 WSR      NYSE         WHITESTONE REIT               10158     140281.98  0.024406 10 Financial Services             1050 Real Estate                                      1050806 Real Estate Investment Trusts (REITs)            
20120629 969203108 US9692031084 WG       NYSE         WILLBROS GROUP INC            29850     192826.73  0.033547 06 Energy                         0610 Energy Equipment & Services                      0610600 Oil Well Equipment & Services                    
20120629 969490101 US9694901011 CWEI     NASDAQ       WILLIAMS CLAYTON ENERGY        5345     258566.62  0.044985 06 Energy                         0620 Non-Renewable Energy                             0620670 Oil: Crude Producers                             
20120629 970646105 US9706461053 WLFC     NASDAQ       WILLIS LEASE FINANCE           5444      67070.08  0.011669 08 Producer Durables              0840 Transportation & Freight                         0840808 Commercial Services: Rental & Leasing            
20120629 97186T108 US97186T1088 WIBC     NASDAQ       WILSHIRE BANCORP INC          61802     338674.96  0.058922 10 Financial Services             1010 Banks                                            1010400 Banks: Diversified                               
20120629 974637100 US9746371007 WGO      NYSE         WINNEBAGO INDUSTRIES INC      21016     214149.48  0.037257 03 Consumer Discretionary         0340 Leisure                                          0340804 Recreational Vehicles & Boats                    
20120629 976391300 US9763913004 FUR      NYSE         WINTHROP REALTY TRUST         29164     354634.24  0.061698 10 Financial Services             1050 Real Estate                                      1050806 Real Estate Investment Trusts (REITs)            
20120629 97650W108 US97650W1080 WTFC     NASDAQ       WINTRUST FINANCIAL CORP       36318    1289289.00  0.224306 10 Financial Services             1010 Banks                                            1010400 Banks: Diversified                               
20120629 98156Q108 US98156Q1085 WWE      NYSE         WORLD WRESTLING ENTMNT         2250      17597.31  0.003062 03 Consumer Discretionary         0350 Media                                            0350480 Entertainment                                    
20120629 981811102 US9818111026 WOR      NYSE         WORTHINGTON INDUSTRIES        52244    1069434.68  0.186057 07 Materials & Processing         0740 Metals & Minerals                                0740630 Metal Fabricating                                
20120629 98235T107 US98235T1079 WMGI     NASDAQ       WRIGHT MEDICAL GROUP INC      39309     839247.15  0.146010 02 Health Care                    0220 Medical Equipment & Services                     0220507 Medical & Dental Instruments & Supplies          
20120629 98411C100 US98411C1009 XNPT     NASDAQ       XENOPORT INC                   5000      30205.68  0.005255 02 Health Care                    0230 Pharmaceuticals & Biotech                        0230460 Pharmaceuticals                                  
20120629 98419J107 US98419J1079 XOMA     NASDAQ       XOMA CORPORATION               8033      24101.74  0.004193 02 Health Care                    0230 Pharmaceuticals & Biotech                        0230412 Biotechnology                                    
20120629 987184108 US9871841089 YORW     NASDAQ       YORK WATER COMPANY             3181      56918.68  0.009903 11 Utilities                      1110 Utilities                                        1110882 Utilities: Water                                 
20120629 987520103 US9875201033 YDNT     NASDAQ       YOUNG INNOVATIONS INC          3065     105695.85  0.018389 02 Health Care                    0220 Medical Equipment & Services                     0220507 Medical & Dental Instruments & Supplies          
20120629 98919T100 US98919T1007 ZAZA     NASDAQ       ZAZA ENERGY CORP              13452      60800.13  0.010578 06 Energy                         0620 Non-Renewable Energy                             0620670 Oil: Crude Producers                             
20120629 98933Q108 US98933Q1085 ZLTQ     NASDAQ       ZELTIQ AESTHETICS INC         10053      56292.67  0.009794 02 Health Care                    0220 Medical Equipment & Services                     0220471 Medical Equipment                                
20120629 98944B108 US98944B1089 ZEP      NYSE         ZEP INC                       13001     178495.63  0.031054 07 Materials & Processing         0720 Chemicals and Synthetics                         0720833 Chemicals: Specialty                             
20120629 98974X103 US98974X1037 ZIP      NASDAQ       ZIPCAR INC                     4622      54217.89  0.009433 03 Consumer Discretionary         0330 Consumer Services                                0330809 Rental & Leasing Services: Consumer              
20120629 98975W104 US98975W1045 ZOLT     NASDAQ       ZOLTEK COMPANIES INC          27518     248487.54  0.043231 07 Materials & Processing         0720 Chemicals and Synthetics                         0720845 Synthetic Fibers & Chemicals                     
20120629 989855101 US9898551018 ZIGO     NASDAQ       ZYGO CORP                     13255     236722.49  0.041184 08 Producer Durables              0830 Scientific Instruments & Services                0830474 Scientific Instruments: Gauges & Meters          
20120629 G0129K104 BMG0129K1045 AYR      NYSE         AIRCASTLE LTD                 58735     707756.75  0.123133 08 Producer Durables              0840 Transportation & Freight                         0840808 Commercial Services: Rental & Leasing            
20120629 G0229R108 BMG0229R1088 ALTE     NASDAQ       ALTERRA CAPITAL HOLDINGS      85731    2001818.85  0.348270 10 Financial Services             1030 Insurance                                        1030535 Insurance: Multi-Line                            
20120629 G02995101 BMG029951016 ASI      NYSE         AMERICAN SAFETY INS HLDG       8178     153329.63  0.026676 10 Financial Services             1030 Insurance                                        1030542 Insurance: Property-Casualty                     
20120629 G0464B107 BMG0464B1072 AGII     NASDAQ       ARGO GROUP INTL               25792     754931.84  0.131341 10 Financial Services             1030 Insurance                                        1030542 Insurance: Property-Casualty                     
20120629 G10082140 BMG100821401 EXXI     NASDAQ       ENERGY XXI (BERMUDA) LTD      21453     671270.13  0.116785 06 Energy                         0620 Non-Renewable Energy                             0620670 Oil: Crude Producers                             
20120629 G20045202 BMG200452024 CETV     NASDAQ       CENTRAL EUROPEAN MEDIA        36713     186502.04  0.032447 03 Consumer Discretionary         0350 Media                                            0350760 Radio & TV Broadcasters                          
20120629 G23773107 KYG237731073 CWCO     NASDAQ       CONSOLIDATED WATER CO         14579     120859.91  0.021027 11 Utilities                      1110 Utilities                                        1110882 Utilities: Water                                 
20120629 G3075P101 BMG3075P1014 ESGR     NASDAQ       ENSTAR GROUP LIMITED           8440     835053.60  0.145280 10 Financial Services             1030 Insurance                                        1030542 Insurance: Property-Casualty                     
20120629 G3323L100 KYG3323L1005 FN       NYSE         FABRINET                      22059     276840.45  0.048164 01 Technology                     0120 Electronics                                      0120643 Technology: Misc                                 
20120629 G36738105 KYG367381053 FDP      NYSE         FRESH DEL MONTE PRODUCE       38111     894465.17  0.155616 04 Consumer Staples               0410 Food/Beverage & Tobacco                          0410305 Agriculture Fishing & Ranching                   
20120629 G3682E127 BMG3682E1277 FRO      NYSE         FRONTLINE LTD                 51542     235031.52  0.040890 08 Producer Durables              0840 Transportation & Freight                         0840830 Shipping                                         
20120629 G37585109 BMG375851091 GLOG     NYSE         GASLOG LTD                    14059     142698.65  0.024826 08 Producer Durables              0840 Transportation & Freight                         0840830 Shipping                                         
20120629 G39300101 BMG393001018 GSOL     NASDAQ       GLOBAL SOURCES LTD            16050     105929.08  0.018429 08 Producer Durables              0850 Commercial Services                              0850546 International Trade & Diversified Logistics      
20120629 G39319101 IE00B5NH3H04 GBLI     NASDAQ       GLOBAL INDEMNITY PLC          11475     232368.75  0.040427 10 Financial Services             1030 Insurance                                        1030542 Insurance: Property-Casualty                     
20120629 G4095J109 KYG4095J1094 GLRE     NASDAQ       GREENLIGHT CAPITAL RE LT      20259     514975.09  0.089594 10 Financial Services             1030 Insurance                                        1030542 Insurance: Property-Casualty                     
20120629 G4388N106 BMG4388N1065 HELE     NASDAQ       HELEN OF TROY LTD             31700    1074313.00  0.186906 03 Consumer Discretionary         0320 Consumer Products                                0320521 Household Equip & Products                       
20120629 G5299G106 BMG5299G1069 VLCCF    NASDAQ       KNIGHTSBRIDGE TANKERS         24426     198827.64  0.034591 08 Producer Durables              0840 Transportation & Freight                         0840830 Shipping                                         
20120629 G5753U112 BMG5753U1128 MHLD     NASDAQ       MAIDEN HOLDINGS LTD           50146     435267.28  0.075726 10 Financial Services             1030 Insurance                                        1030535 Insurance: Multi-Line                            
20120629 G62185106 BMG621851069 MRH      NYSE         MONTPELIER RE HOLDINGS        43721     930813.98  0.161940 10 Financial Services             1030 Insurance                                        1030542 Insurance: Property-Casualty                     
20120629 G6331P104 BMG6331P1041 AOSL     NASDAQ       ALPHA & OMEGA SEMICON         17188     157270.20  0.027361 01 Technology                     0120 Electronics                                      0120476 Semiconductors & Components                      
20120629 G65773106 BMG657731060 NAT      NYSE         NORDIC AMERICAN TANKER        52916     718070.12  0.124928 08 Producer Durables              0840 Transportation & Freight                         0840830 Shipping                                         
20120629 G6648D109 KYG6648D1097 HLSS     NASDAQ       HOME LOAN SERVICING SOL       13458     180337.20  0.031374 10 Financial Services             1020 Consumer Finance & Credit Services               1020487 Commercial Finance & Mortgage Co                 
20120629 G67742109 BMG677421098 OB       NYSE         ONEBEACON INSURANCE GRP       22697     295514.94  0.051413 10 Financial Services             1030 Insurance                                        1030542 Insurance: Property-Casualty                     
20120629 G67743107 BMG677431071 OEH      NYSE         ORIENT-EXPRESS HOTELS         96821     810391.77  0.140989 03 Consumer Discretionary         0340 Leisure                                          0340514 Hotel/Motel                                      
20120629 G7127P100 BMG7127P1005 PTP      NYSE         PLATINUM UNDERWRITER HLD      34838    1327327.80  0.230924 10 Financial Services             1030 Insurance                                        1030535 Insurance: Multi-Line                            
20120629 G79978105 BMG799781056 BOX      NYSE         SEACUBE CONTAINER LEASIN       9512     162361.99  0.028247 08 Producer Durables              0840 Transportation & Freight                         0840808 Commercial Services: Rental & Leasing            
20120629 G81075106 BMG810751062 SFL      NYSE         SHIP FINANCE INTL             45237     707054.31  0.123011 08 Producer Durables              0840 Transportation & Freight                         0840830 Shipping                                         
20120629 G93205113 KYG932051132 VTG      NYSE MKT     VANTAGE DRILLING COMPANY     191475     287212.50  0.049968 06 Energy                         0620 Non-Renewable Energy                             0620660 Offshore Drilling & Other Services               
20120629 L3466T104 LU0490650438 FSR      NYSE         FLAGSTONE REINSURANCE         50096     401264.39  0.069811 10 Financial Services             1030 Insurance                                        1030535 Insurance: Multi-Line                            
20120629 M6787E101 IL0010823958 CALL     NASDAQ       MAGICJACK VOCALTEC LTD         4632      88019.97  0.015313 11 Utilities                      1110 Utilities                                        1110880 Utilities: Telecommunications                    
20120629 N07831105 NL0010060661 AVG      NYSE         AVG TECHNOLOGIES NV             431       5616.10  0.000977 01 Technology                     0130 Information Technology                           0130439 Computer Services Software & Systems             
20120629 N6748L102 ANN6748L1027 OFIX     NASDAQ       ORTHOFIX INTL N V              3746     154522.50  0.026883 02 Health Care                    0220 Medical Equipment & Services                     0220507 Medical & Dental Instruments & Supplies          
20120629 N7716A151 ANN7716A1513 SPNS     NASDAQ       SAPIENS INTL CORP N V         13657      49165.20  0.008554 01 Technology                     0130 Information Technology                           0130439 Computer Services Software & Systems             
20120629 N87237108 NL0009693746 TRNX     NASDAQ       TORNIER N V                    4549     101988.87  0.017744 02 Health Care                    0220 Medical Equipment & Services                     0220507 Medical & Dental Instruments & Supplies          
20120629 P16994132 PAP169941328 BLX      NYSE         BANCO LATINOAMERICANO         28257     605547.51  0.105351 10 Financial Services             1010 Banks                                            1010400 Banks: Diversified                               
20120629 Y2685T107 MHY2685T1073 GNK      NYSE         GENCO SHIPPING & TRADING      31235      95266.75  0.016574 08 Producer Durables              0840 Transportation & Freight                         0840830 Shipping                                         
20120629 Y7542C106 MHY7542C1066 STNG     NYSE         SCORPIO TANKERS INC           37646     240557.94  0.041852 08 Producer Durables              0840 Transportation & Freight                         0840830 Shipping                                         
20120629 Y8565N102 MHY8565N1022 TNK      NYSE         TEEKAY TANKERS LTD            62985     287211.60  0.049968 08 Producer Durables              0840 Transportation & Freight                         0840830 Shipping                                         
