Date     Cusip     ISIN         Ticker   Exchange     Name                         Shares     Mkt Value    Weight ES Economic Sector                SubS SubSector                                        IND     Industry                                         
-------- --------- ------------ -------  ------------ ------------------------- --------- ------------- --------- -- ------------------------------ ---- ------------------------------------------------ ------- ------------------------------------------------ 
20110429 000361105 US0003611052 AIR      NYSE         AAR CORP                      39025    1016211.00  0.161963 08 Producer Durables              0840 Transportation & Freight                         0840300 Aerospace                                        
20110429 00081T108 US00081T1088 ABD      NYSE         ACCO BRANDS CORP              54799     532098.29  0.084806 08 Producer Durables              0820 Manufacturing & Production                       0820650 Office Supplies Equipment                        
20110429 000957100 US0009571003 ABM      NYSE         ABM INDUSTRIES INC            37849     920468.76  0.146704 08 Producer Durables              0850 Commercial Services                              0850484 Environmental Maint & Security Service           
20110429 001031103 US0010311035 AEPI     NASDAQ       AEP INDUSTRIES INC             2281      69152.98  0.011022 07 Materials & Processing         0730 Industrial Materials & Processes                 0730442 Containers & Packaging                           
20110429 00104Q107 US00104Q1076 AFCE     NASDAQ       AFC ENTERPRISES INC            4702      70822.24  0.011288 03 Consumer Discretionary         0340 Leisure                                          0340810 Restaurants                                      
20110429 001282102 US0012821023 AHC      NYSE         A H BELO CORP                 17988     149660.16  0.023853 03 Consumer Discretionary         0350 Media                                            0350740 Publishing                                       
20110429 001744101 US0017441017 AHS      NYSE         AMN HEALTHCARE SERVICES       21780     187954.99  0.029956 02 Health Care                    0210 Health Care Services                             0210499 Health Care Services                             
20110429 00207R101 US00207R1014 ATMI     NASDAQ       ATMI INC                      29664     590601.88  0.094130 01 Technology                     0120 Electronics                                      0120738 Production Technology Equipment                  
20110429 00208J108 US00208J1088 ATPG     NASDAQ       ATP OIL & GAS CORP            44478     790818.84  0.126040 06 Energy                         0620 Non-Renewable Energy                             0620670 Oil: Crude Producers                             
20110429 00246W103 US00246W1036 AXTI     NASDAQ       AXT INC                       18196     127188.82  0.020271 01 Technology                     0120 Electronics                                      0120476 Semiconductors & Components                      
20110429 002474104 US0024741045 AZZ      NYSE         AZZ INC                         757      33173.94  0.005287 08 Producer Durables              0830 Scientific Instruments & Services                0830465 Scientific Instruments: Electrical               
20110429 00350L109 US00350L1098 ABBC     NASDAQ       ABINGTON BANCORP INC          20850     252702.00  0.040276 10 Financial Services             1010 Banks                                            1010820 Banks: Savings/Thrifts & Mortgage Lend           
20110429 003830106 US0038301067 AXAS     NASDAQ       ABRAXAS PETE CORP             51501     261623.23  0.041697 06 Energy                         0620 Non-Renewable Energy                             0620670 Oil: Crude Producers                             
20110429 004239109 US0042391096 AKR      NYSE         ACADIA REALTY TRUST           31976     666692.09  0.106257 10 Financial Services             1050 Real Estate                                      1050806 Real Estate Investment Trusts (REITs)            
20110429 00430U103 US00430U1034 ACCL     NASDAQ       ACCELRYS INC                  25790     195236.20  0.031117 02 Health Care                    0230 Pharmaceuticals & Biotech                        0230412 Biotechnology                                    
20110429 004446100 US0044461004 ACET     NASDAQ       ACETO CORP                    25411     203542.11  0.032440 07 Materials & Processing         0720 Chemicals and Synthetics                         0720433 Chemicals: Diversified                           
20110429 00739W107 US00739W1071 AEA      NYSE         ADVANCE AMERICA CASH ADV      48381     284478.16  0.045340 10 Financial Services             1020 Consumer Finance & Credit Services               1020492 Consumer Lending                                 
20110429 00752H102 US00752H1023 ABAT     NASDAQ       ADVANCED BATTERY TECH         22826      39261.33  0.006257 08 Producer Durables              0830 Scientific Instruments & Services                0830465 Scientific Instruments: Electrical               
20110429 00752J108 US00752J1088 AATI     NASDAQ       ADVANCED ANALOGIC TECH        34187     145634.87  0.023211 01 Technology                     0120 Electronics                                      0120476 Semiconductors & Components                      
20110429 00767E102 US00767E1029 AEGR     NASDAQ       AEGERION PHARM INC              690      13613.70  0.002170 02 Health Care                    0230 Pharmaceuticals & Biotech                        0230412 Biotechnology                                    
20110429 007973100 US0079731008 AEIS     NASDAQ       ADVANCED ENERGY INDS INC      13465     190540.79  0.030368 08 Producer Durables              0820 Manufacturing & Production                       0820734 Power Transmission Equip                         
20110429 00826T108 US00826T1088 AFFX     NASDAQ       AFFYMETRIX INC                63540     343115.42  0.054686 02 Health Care                    0220 Medical Equipment & Services                     0220471 Medical Equipment                                
20110429 00847J105 US00847J1051 AGYS     NASDAQ       AGILYSYS INC                  16797      87680.02  0.013974 01 Technology                     0120 Electronics                                      0120475 Electronics                                      
20110429 008492100 US0084921008 ADC      NYSE         AGREE REALTY CORP              8710     203726.90  0.032470 10 Financial Services             1050 Real Estate                                      1050806 Real Estate Investment Trusts (REITs)            
20110429 00922R105 US00922R1059 ATSG     NASDAQ       AIR TRANSPORT SERVICES        54145     442906.10  0.070590 08 Producer Durables              0840 Transportation & Freight                         0840310 Air Transport                                    
20110429 00949P108 US00949P1084 AAI      NYSE         AIRTRAN HOLDINGS INC         135256    1015772.56  0.161893 08 Producer Durables              0840 Transportation & Freight                         0840310 Air Transport                                    
20110429 011311107 US0113111076 ALG      NYSE         ALAMO GROUP INC                6035     172649.16  0.027517 08 Producer Durables              0810 Machinery                                        0810570 Machinery: Agricultural                          
20110429 011659109 US0116591092 ALK      NYSE         ALASKA AIR GROUP INC          33765    2224037.84  0.354466 08 Producer Durables              0840 Transportation & Freight                         0840310 Air Transport                                    
20110429 012348108 US0123481089 AIN      NYSE         ALBANY INTERNATIONAL          22193     561699.06  0.089523 08 Producer Durables              0810 Machinery                                        0810610 Machinery: Specialty                             
20110429 012423109 US0124231095 AMRI     NASDAQ       ALBANY MOLECULAR RESRCH       23601     115408.89  0.018394 02 Health Care                    0230 Pharmaceuticals & Biotech                        0230412 Biotechnology                                    
20110429 014752109 US0147521092 ALX      NYSE         ALEXANDERS INC                  719     316266.84  0.050406 10 Financial Services             1050 Real Estate                                      1050806 Real Estate Investment Trusts (REITs)            
20110429 016230104 US0162301040 ALCO     NASDAQ       ALICO INC                      2331      60105.07  0.009580 04 Consumer Staples               0410 Food/Beverage & Tobacco                          0410305 Agriculture Fishing & Ranching                   
20110429 01642T108 US01642T1088 ALKS     NASDAQ       ALKERMES INC                  68501     987776.81  0.157431 02 Health Care                    0230 Pharmaceuticals & Biotech                        0230460 Pharmaceuticals                                  
20110429 018522300 US0185223007 ALE      NYSE         ALLETE INC                    31090    1258834.10  0.200632 11 Utilities                      1110 Utilities                                        1110870 Utilities: Electrical                            
20110429 018772103 US0187721032 AOI      NYSE         ALLIANCE ONE INTL INC         89088     355461.12  0.056653 04 Consumer Staples               0410 Food/Beverage & Tobacco                          0410856 Tobacco                                          
20110429 019205103 US0192051037 ALNC     NASDAQ       ALLIANCE FINANCIAL CORP        4663     150335.12  0.023960 10 Financial Services             1010 Banks                                            1010400 Banks: Diversified                               
20110429 01923A109 US01923A1097 AHCI     NASDAQ       ALLIED HEALTHCARE INTL        41989     109588.94  0.017466 02 Health Care                    0210 Health Care Services                             0210499 Health Care Services                             
20110429 020520102 US0205201025 ALJ      NYSE         ALON USA ENERGY INC            7638     105022.50  0.016738 06 Energy                         0620 Non-Renewable Energy                             0620605 Oil: Refining & Marketing                        
20110429 02081G102 US02081G1022 ATEC     NASDAQ       ALPHATEC HOLDINGS             11328      36023.60  0.005741 02 Health Care                    0220 Medical Equipment & Services                     0220507 Medical & Dental Instruments & Supplies          
20110429 023586100 US0235861004 UHAL     NASDAQ       AMERCO                         8549     869604.28  0.138597 03 Consumer Discretionary         0330 Consumer Services                                0330809 Rental & Leasing Services: Consumer              
20110429 02361E108 US02361E1082 AMRC     NYSE         AMERESCO INC                   4235      68232.92  0.010875 06 Energy                         0630 Alternative Energy                               0630478 Alternative Energy                               
20110429 023850100 US0238501003 APP      NYSE AMEX    AMERICAN APPAREL INC          28750      41687.45  0.006644 03 Consumer Discretionary         0320 Consumer Products                                0320850 Textiles Apparel & Shoes                         
20110429 024013104 US0240131047 AAT      NYSE         AMERICAN ASSETS TRST INC      29110     642743.94  0.102440 10 Financial Services             1050 Real Estate                                      1050806 Real Estate Investment Trusts (REITs)            
20110429 024835100 US0248351001 ACC      NYSE         AMERICAN CAMPUS COMMUN        65271    2294275.65  0.365661 10 Financial Services             1050 Real Estate                                      1050806 Real Estate Investment Trusts (REITs)            
20110429 02503X105 US02503X1054 AGNC     NASDAQ       AMERICAN CAPITAL AGENCY      124629    3627950.19  0.578221 10 Financial Services             1050 Real Estate                                      1050806 Real Estate Investment Trusts (REITs)            
20110429 02503Y103 US02503Y1038 ACAS     NASDAQ       AMERICAN CAPITAL LTD         339631    3488010.37  0.555918 10 Financial Services             1040 Investment Banking & Brokerage Services          1040544 Asset Management & Custodian                     
20110429 025353103 US0253531034 ADPI     NASDAQ       AMERICAN DENTAL PARTNERS      14801     195212.63  0.031113 02 Health Care                    0210 Health Care Services                             0210503 Health Care Management Services                  
20110429 025398108 US0253981080 ADGE     NYSE AMEX    AMERICAN DG ENERGY INC         4627       9764.56  0.001556 11 Utilities                      1110 Utilities                                        1110870 Utilities: Electrical                            
20110429 025676206 US0256762065 AEL      NYSE         AMERICAN EQUITY INVST         58485     752117.10  0.119872 10 Financial Services             1030 Insurance                                        1030528 Insurance: Life                                  
20110429 026375105 US0263751051 AM       NYSE         AMERICAN GREETINGS            37078     912100.69  0.145370 03 Consumer Discretionary         0320 Consumer Products                                0320521 Household Equip & Products                       
20110429 027745108 US0277451086 AMNB     NASDAQ       AMERICAN NATL BANKSHARES       6123     141686.22  0.022582 10 Financial Services             1010 Banks                                            1010400 Banks: Diversified                               
20110429 02916P103 US02916P1030 ARII     NASDAQ       AMERICAN RAILCAR IND           9415     266726.95  0.042511 08 Producer Durables              0840 Transportation & Freight                         0840770 Railroad Equipment                               
20110429 029263100 US0292631001 ARC      NYSE         AMERICAN REPROGRAPHICS        31564     282491.05  0.045023 01 Technology                     0130 Information Technology                           0130439 Computer Services Software & Systems             
20110429 029899101 US0298991011 AWR      NYSE         AMERICAN STATES WATER CO      18569     648243.79  0.103317 11 Utilities                      1110 Utilities                                        1110882 Utilities: Water                                 
20110429 030371108 US0303711081 AVD      NYSE         AMERICAN VANGUARD CORP        20336     181397.12  0.028911 07 Materials & Processing         0720 Chemicals and Synthetics                         0720433 Chemicals: Diversified                           
20110429 030506109 US0305061097 AMWD     NASDAQ       AMERICAN WOODMARK CORP         8387     170326.48  0.027147 03 Consumer Discretionary         0320 Consumer Products                                0320523 Household Furnishings                            
20110429 03062T105 US03062T1051 CRMT     NASDAQ       AMERICAS CAR-MART INC          4633     113433.47  0.018079 03 Consumer Discretionary         0360 Retail                                           0360834 Specialty Retail                                 
20110429 030710107 US0307101073 AMN      NYSE         AMERON INTERNATIONAL INC       9221     648605.14  0.103374 07 Materials & Processing         0710 Building Materials & Services                    0710430 Building Materials                               
20110429 03071H100 US03071H1005 AMSF     NASDAQ       AMERISAFE INC                 18840     420697.20  0.067051 10 Financial Services             1030 Insurance                                        1030542 Insurance: Property-Casualty                     
20110429 03073T102 US03073T1025 AGP      NYSE         AMERIGROUP CORP               44983    3072303.38  0.489662 02 Health Care                    0210 Health Care Services                             0210503 Health Care Management Services                  
20110429 03076K108 US03076K1088 ABCB     NASDAQ       AMERIS BANCORP                23627     234852.38  0.037431 10 Financial Services             1010 Banks                                            1010400 Banks: Diversified                               
20110429 031001100 US0310011004 ATLO     NASDAQ       AMES NATL CORP                 8150     150449.00  0.023979 10 Financial Services             1010 Banks                                            1010400 Banks: Diversified                               
20110429 032037103 US0320371034 AP       NYSE         AMPCO-PITTSBURGH CORP          7716     207305.41  0.033040 07 Materials & Processing         0740 Metals & Minerals                                0740630 Metal Fabricating                                
20110429 03232P405 US03232P4054 AMSG     NASDAQ       AMSURG CORP                   30922     830564.92  0.132375 02 Health Care                    0210 Health Care Services                             0210504 Health Care Facilities                           
20110429 032359309 US0323593097 AFSI     NASDAQ       AMTRUST FINL SVCS             22316     430698.80  0.068645 10 Financial Services             1030 Insurance                                        1030542 Insurance: Property-Casualty                     
20110429 03236M101 US03236M1018 AMRS     NASDAQ       AMYRIS INC                     2968      78451.24  0.012504 06 Energy                         0630 Alternative Energy                               0630478 Alternative Energy                               
20110429 032420101 US0324201013 ANAC     NASDAQ       ANACOR PHARM INC               1514      10027.71  0.001598 02 Health Care                    0230 Pharmaceuticals & Biotech                        0230412 Biotechnology                                    
20110429 032515108 US0325151084 ANAD     NASDAQ       ANADIGICS INC                 17282      67575.63  0.010770 01 Technology                     0120 Electronics                                      0120476 Semiconductors & Components                      
20110429 032657207 US0326572072 ALOG     NASDAQ       ANALOGIC CORP                  3660     211116.03  0.033648 02 Health Care                    0220 Medical Equipment & Services                     0220471 Medical Equipment                                
20110429 032744104 US0327441046 ANEN     NASDAQ       ANAREN INC                    13066     216758.85  0.034547 01 Technology                     0140 Telecommunication                                0140448 Communications Technology                        
20110429 034164103 US0341641035 ANDE     NASDAQ       ANDERSONS INC                 18400     913560.00  0.145603 04 Consumer Staples               0410 Food/Beverage & Tobacco                          0410305 Agriculture Fishing & Ranching                   
20110429 03475V101 US03475V1017 ANGO     NASDAQ       ANGIODYNAMICS INC             24727     403050.10  0.064238 02 Health Care                    0220 Medical Equipment & Services                     0220507 Medical & Dental Instruments & Supplies          
20110429 035290105 US0352901054 AXE      NYSE         ANIXTER INTERNATIONAL         14043    1055153.45  0.168170 01 Technology                     0140 Telecommunication                                0140448 Communications Technology                        
20110429 037347101 US0373471012 ANH      NYSE         ANWORTH MORTGAGE ASSET       118799     852976.82  0.135947 10 Financial Services             1050 Real Estate                                      1050806 Real Estate Investment Trusts (REITs)            
20110429 037598109 US0375981091 APOG     NASDAQ       APOGEE ENTERPRISES INC        28079     400968.12  0.063906 07 Materials & Processing         0730 Industrial Materials & Processes                 0730502 Glass                                            
20110429 03761U106 US03761U1060 AINV     NASDAQ       APOLLO INVESTMENT CORP       193845    2297063.25  0.366105 10 Financial Services             1040 Investment Banking & Brokerage Services          1040544 Asset Management & Custodian                     
20110429 03762U105 US03762U1051 ARI      NYSE         APOLLO COMMERCIAL RE          17552     286799.68  0.045710 10 Financial Services             1050 Real Estate                                      1050806 Real Estate Investment Trusts (REITs)            
20110429 03834A103 US03834A1034 AREX     NASDAQ       APPROACH RESOURCES INC        17392     512020.48  0.081606 06 Energy                         0620 Non-Renewable Energy                             0620670 Oil: Crude Producers                             
20110429 03937R102 US03937R1023 ARJ      NYSE         ARCH CHEMICALS INC             8927     345237.64  0.055024 07 Materials & Processing         0720 Chemicals and Synthetics                         0720433 Chemicals: Diversified                           
20110429 039670104 US0396701049 ACAT     NASDAQ       ARCTIC CAT INC                12121     203511.59  0.032436 03 Consumer Discretionary         0340 Leisure                                          0340804 Recreational Vehicles & Boats                    
20110429 04010E109 US04010E1091 AGX      NYSE AMEX    ARGAN INC                      6372      59896.72  0.009546 08 Producer Durables              0850 Commercial Services                              0850479 Engineering & Contracting Services               
20110429 040790107 US0407901075 ABFS     NASDAQ       ARKANSAS BEST CORP            25305     582268.05  0.092802 08 Producer Durables              0840 Transportation & Freight                         0840865 Truckers                                         
20110429 041356205 US0413562051 AI       NYSE         ARLINGTON ASSET INVT           6741     205600.50  0.032769 10 Financial Services             1040 Investment Banking & Brokerage Services          1040544 Asset Management & Custodian                     
20110429 04269Q100 US04269Q1004 ARRS     NASDAQ       ARRIS GROUP INC              102465    1229578.85  0.195970 01 Technology                     0140 Telecommunication                                0140849 Telecommunications Equipment                     
20110429 042744102 US0427441029 AROW     NASDAQ       ARROW FINANCIAL CORP           9189     228327.64  0.036391 10 Financial Services             1010 Banks                                            1010400 Banks: Diversified                               
20110429 043113208 US0431132085 ARTNA    NASDAQ       ARTESIAN RESOURCES CORP        6316     123414.64  0.019670 11 Utilities                      1110 Utilities                                        1110882 Utilities: Water                                 
20110429 04315B107 US04315B1070 ART      NYSE         ARTIO GLOBAL INVESTORS         2665      43786.87  0.006979 10 Financial Services             1040 Investment Banking & Brokerage Services          1040544 Asset Management & Custodian                     
20110429 04351G101 US04351G1013 ASNA     NASDAQ       ASCENA RETAIL GROUP INC        3562     111464.99  0.017765 03 Consumer Discretionary         0360 Retail                                           0360834 Specialty Retail                                 
20110429 043632108 US0436321089 ASCMA    NASDAQ       ASCENT MEDIA CORP             14295     686588.85  0.109428 03 Consumer Discretionary         0350 Media                                            0350480 Entertainment                                    
20110429 044103109 US0441031095 AHT      NYSE         ASHFORD HOSPITALITY           45428     566487.16  0.090286 10 Financial Services             1050 Real Estate                                      1050806 Real Estate Investment Trusts (REITs)            
20110429 04543P100 US04543P1003 AACC     NASDAQ       ASSET ACCEPTANCE CAPITAL      15026      85347.68  0.013603 10 Financial Services             1020 Consumer Finance & Credit Services               1020492 Consumer Lending                                 
20110429 04544X300 US04544X3008 ALC      NYSE         ASSISTED LIVING CONCPT         9828     354397.68  0.056484 02 Health Care                    0210 Health Care Services                             0210504 Health Care Facilities                           
20110429 045604105 US0456041054 AEC      NYSE         ASSOCIATED ESTATES RLTY       18575     309090.16  0.049263 10 Financial Services             1050 Real Estate                                      1050806 Real Estate Investment Trusts (REITs)            
20110429 046220109 US0462201098 ASFI     NASDAQ       ASTA FDG INC                  10568      85706.48  0.013660 10 Financial Services             1020 Consumer Finance & Credit Services               1020487 Commercial Finance & Mortgage Co                 
20110429 046224101 US0462241011 ASTE     NASDAQ       ASTEC INDUSTRIES INC          19843     769511.54  0.122644 08 Producer Durables              0810 Machinery                                        0810577 Machinery: Construction & Handling               
20110429 046265104 US0462651045 AF       NYSE         ASTORIA FINANCIAL CORP        86344    1249397.68  0.199128 10 Financial Services             1010 Banks                                            1010820 Banks: Savings/Thrifts & Mortgage Lend           
20110429 046433108 US0464331083 ATRO     NASDAQ       ASTRONICS CORP                  635      16523.73  0.002634 08 Producer Durables              0840 Transportation & Freight                         0840300 Aerospace                                        
20110429 049079205 US0490792050 ATNI     NASDAQ       ATLANTIC TELE-NETWORK           531      19516.63  0.003111 11 Utilities                      1110 Utilities                                        1110880 Utilities: Telecommunications                    
20110429 049164205 US0491642056 AAWW     NASDAQ       ATLAS AIR WORLDWIDE HLDG      25826    1779669.66  0.283643 08 Producer Durables              0840 Transportation & Freight                         0840310 Air Transport                                    
20110429 050757103 US0507571034 VOXX     NASDAQ       AUDIOVOX CORP                 17323     127843.74  0.020376 03 Consumer Discretionary         0320 Consumer Products                                0320451 Consumer Electronics                             
20110429 053494100 US0534941002 AVTR     NASDAQ       AVATAR HOLDINGS INC            8879     159822.00  0.025472 10 Financial Services             1050 Real Estate                                      1050805 Real Estate                                      
20110429 05366Y102 US05366Y1029 AVNW     NASDAQ       AVIAT NETWORKS INC            59679     305556.48  0.048699 01 Technology                     0140 Telecommunication                                0140448 Communications Technology                        
20110429 05367P100 US05367P1003 AVID     NASDAQ       AVID TECHNOLOGY INC           29057     539879.06  0.086046 01 Technology                     0130 Information Technology                           0130439 Computer Services Software & Systems             
20110429 05379B107 US05379B1070 AVA      NYSE         AVISTA CORP                   54902    1336863.70  0.213069 11 Utilities                      1110 Utilities                                        1110870 Utilities: Electrical                            
20110429 054540109 US0545401095 ACLS     NASDAQ       AXCELIS TECHNOLOGIES INC      95101     177838.53  0.028344 01 Technology                     0120 Electronics                                      0120738 Production Technology Equipment                  
20110429 05508R106 US05508R1068 BGS      NYSE         B & G FOODS INC               21238     383984.38  0.061199 04 Consumer Staples               0410 Food/Beverage & Tobacco                          0410494 Foods                                            
20110429 055639108 US0556391086 BPZ      NYSE         BPZ RESOURCES INC             74289     353614.36  0.056359 06 Energy                         0620 Non-Renewable Energy                             0620670 Oil: Crude Producers                             
20110429 05566U108 US05566U1088 BOFI     NASDAQ       BOFI HLDG INC                  7036     118204.80  0.018839 10 Financial Services             1010 Banks                                            1010820 Banks: Savings/Thrifts & Mortgage Lend           
20110429 057149106 US0571491069 BKR      NYSE AMEX    BAKER MICHAEL CORP             6937     170907.80  0.027239 08 Producer Durables              0850 Commercial Services                              0850479 Engineering & Contracting Services               
20110429 057755209 US0577552096 BWINB    NASDAQ       BALDWIN & LYONS INC            8216     189707.44  0.030235 10 Financial Services             1030 Insurance                                        1030542 Insurance: Property-Casualty                     
20110429 05945F103 US05945F1030 BANF     NASDAQ       BANCFIRST CORP                 7013     282413.51  0.045011 10 Financial Services             1010 Banks                                            1010400 Banks: Diversified                               
20110429 059690107 US0596901076 BARI     NASDAQ       BANCORP RHODE ISLAND INC       3690     163688.40  0.026089 10 Financial Services             1010 Banks                                            1010400 Banks: Diversified                               
20110429 05969A105 US05969A1051 TBBK     NASDAQ       BANCORP INC                   28581     279807.99  0.044596 10 Financial Services             1010 Banks                                            1010400 Banks: Diversified                               
20110429 063425102 US0634251021 BMRC     NASDAQ       BANK OF MARIN BANCORP          5253     197722.92  0.031513 10 Financial Services             1010 Banks                                            1010400 Banks: Diversified                               
20110429 063750103 US0637501034 BKMU     NASDAQ       BANK MUTUAL CORP              45479     186009.11  0.029646 10 Financial Services             1010 Banks                                            1010820 Banks: Savings/Thrifts & Mortgage Lend           
20110429 063904106 US0639041062 OZRK     NASDAQ       BANK OF THE OZARKS INC        11290     502700.24  0.080120 10 Financial Services             1010 Banks                                            1010400 Banks: Diversified                               
20110429 06643P104 US06643P1049 BFIN     NASDAQ       BANKFINANCIAL CORP            19111     174674.54  0.027840 10 Financial Services             1010 Banks                                            1010820 Banks: Savings/Thrifts & Mortgage Lend           
20110429 067774109 US0677741094 BKS      NYSE         BARNES & NOBLE INC            38563     423807.37  0.067546 03 Consumer Discretionary         0360 Retail                                           0360834 Specialty Retail                                 
20110429 067806109 US0678061096 B        NYSE         BARNES GROUP INC               6226     154041.85  0.024551 08 Producer Durables              0820 Manufacturing & Production                       0820453 Diversified Manufacturing Operations             
20110429 068463108 US0684631080 BBSI     NASDAQ       BARRETT BUSINESS SERVICE       2418      38983.19  0.006213 08 Producer Durables              0850 Commercial Services                              0850365 Back Office Support HR & Consutling              
20110429 06846N104 US06846N1046 BBG      NYSE         BILL BARRETT CORP             45931    1916700.63  0.305483 06 Energy                         0620 Non-Renewable Energy                             0620670 Oil: Crude Producers                             
20110429 06985P100 US06985P1003 BAS      NYSE         BASIC ENERGY SERVICES         23196     713045.04  0.113645 06 Energy                         0610 Energy Equipment & Services                      0610600 Oil Well Equipment & Services                    
20110429 074014101 US0740141017 BBGI     NASDAQ       BEASLEY BROADCAST GROUP        1130       7619.95  0.001214 03 Consumer Discretionary         0350 Media                                            0350760 Radio & TV Broadcasters                          
20110429 07556Q105 US07556Q1058 BZH      NYSE         BEAZER HOMES USA INC          74689     348050.74  0.055472 03 Consumer Discretionary         0320 Consumer Products                                0320501 Homebuilding                                     
20110429 075571109 US0755711092 BEBE     NASDAQ       BEBE STORES INC               26498     178063.40  0.028380 03 Consumer Discretionary         0360 Retail                                           0360834 Specialty Retail                                 
20110429 077347300 US0773473006 BELFB    NASDAQ       BEL FUSE INC                   9886     199000.03  0.031717 01 Technology                     0140 Telecommunication                                0140448 Communications Technology                        
20110429 08160H101 US08160H1014 BHE      NYSE         BENCHMARK ELECTRONICS         57495     971653.74  0.154862 01 Technology                     0120 Electronics                                      0120643 Technology: Misc                                 
20110429 08173R104 US08173R1041 BNCL     NASDAQ       BENEFICIAL MUTUAL INC         34706     299512.78  0.047736 10 Financial Services             1010 Banks                                            1010820 Banks: Savings/Thrifts & Mortgage Lend           
20110429 084680107 US0846801076 BHLB     NASDAQ       BERKSHIRE HILLS BANCORP       14032     312913.60  0.049872 10 Financial Services             1010 Banks                                            1010820 Banks: Savings/Thrifts & Mortgage Lend           
20110429 085789105 US0857891057 BRY      NYSE         BERRY PETROLEUM CO            51130    2716536.90  0.432961 06 Energy                         0620 Non-Renewable Energy                             0620670 Oil: Crude Producers                             
20110429 08861T107 US08861T1079 BGMD     NASDAQ       BG MEDICINE INC                 690       5257.80  0.000838 02 Health Care                    0230 Pharmaceuticals & Biotech                        0230412 Biotechnology                                    
20110429 08915P101 US08915P1012 BGFV     NASDAQ       BIG 5 SPORTING GOODS           1306      15614.11  0.002489 03 Consumer Discretionary         0360 Retail                                           0360834 Specialty Retail                                 
20110429 089750509 US0897505097 BBND     NASDAQ       BIGBAND NETWORKS INC          26752      68484.51  0.010915 01 Technology                     0140 Telecommunication                                0140448 Communications Technology                        
20110429 08986R101 US08986R1014 BH       NYSE         BIGLARI HOLDINGS INC           1298     567436.95  0.090438 03 Consumer Discretionary         0340 Leisure                                          0340810 Restaurants                                      
20110429 09063H107 US09063H1077 BMR      NYSE         BIOMED REALTY TRUST INC      130831    2595687.04  0.413700 10 Financial Services             1050 Real Estate                                      1050806 Real Estate Investment Trusts (REITs)            
20110429 09069N108 US09069N1081 BIOS     NASDAQ       BIOSCRIP INC                  10444      48150.40  0.007674 02 Health Care                    0210 Health Care Services                             0210503 Health Care Management Services                  
20110429 091826107 US0918261076 BBOX     NASDAQ       BLACK BOX CORP                17549     613162.06  0.097726 01 Technology                     0140 Telecommunication                                0140448 Communications Technology                        
20110429 092113109 US0921131092 BKH      NYSE         BLACK HILLS CORP              39175    1361331.25  0.216968 11 Utilities                      1110 Utilities                                        1110870 Utilities: Electrical                            
20110429 092533108 US0925331086 BKCC     NASDAQ       BLACKROCK KELSO CAP CORP      71511     752295.72  0.119901 10 Financial Services             1040 Investment Banking & Brokerage Services          1040544 Asset Management & Custodian                     
20110429 096231105 US0962311058 BXG      NYSE         BLUEGREEN CORP                14367      55887.63  0.008907 03 Consumer Discretionary         0340 Leisure                                          0340556 Leisure Time                                     
20110429 09643P207 US09643P2074 BTH      NYSE         BLYTH INC                      3842     181097.50  0.028863 03 Consumer Discretionary         0320 Consumer Products                                0320521 Household Equip & Products                       
20110429 096761101 US0967611015 BOBE     NASDAQ       BOB EVANS FARMS INC           30478     955790.08  0.152333 03 Consumer Discretionary         0340 Leisure                                          0340810 Restaurants                                      
20110429 09689U102 US09689U1025 BODY     NASDAQ       BODY CENTRAL CORP              2271      54918.83  0.008753 03 Consumer Discretionary         0360 Retail                                           0360834 Specialty Retail                                 
20110429 09746Y105 US09746Y1055 BZ       NYSE         BOISE INC                     70096     688342.72  0.109708 07 Materials & Processing         0730 Industrial Materials & Processes                 0730720 Paper                                            
20110429 09776J101 US09776J1016 BONT     NASDAQ       BON-TON STORES INC             7627     105854.42  0.016871 03 Consumer Discretionary         0360 Retail                                           0360815 Diversified Retail                               
20110429 098570104 US0985701046 BAMM     NASDAQ       BOOKS-A-MILLION INC            7044      32543.28  0.005187 03 Consumer Discretionary         0360 Retail                                           0360834 Specialty Retail                                 
20110429 101119105 US1011191053 BPFH     NASDAQ       BOSTON PRIVATE FINANCIAL      74829     523054.71  0.083364 10 Financial Services             1010 Banks                                            1010400 Banks: Diversified                               
20110429 103304101 US1033041013 BYD      NYSE         BOYD GAMING CORP              53929     482125.26  0.076841 03 Consumer Discretionary         0340 Leisure                                          0340434 Casinos & Gambling                               
20110429 104674106 US1046741062 BRC      NYSE         BRADY CORP                    48839    1841718.69  0.293532 08 Producer Durables              0830 Scientific Instruments & Services                0830524 Scientific Instruments: Control & Filter         
20110429 10567B109 US10567B1098 BBRG     NASDAQ       BRAVO BRIO RESTAURANT GR       2827      58349.69  0.009300 03 Consumer Discretionary         0340 Leisure                                          0340810 Restaurants                                      
20110429 108035106 US1080351067 BDGE     NASDAQ       BRIDGE BANCORP INC             4197      89810.75  0.014314 10 Financial Services             1010 Banks                                            1010400 Banks: Diversified                               
20110429 109043109 US1090431099 BGG      NYSE         BRIGGS & STRATTON CO          18922     446386.02  0.071145 08 Producer Durables              0810 Machinery                                        0810579 Machinery: Engines                               
20110429 109696104 US1096961040 BCO      NYSE         BRINKS CO                      7519     248234.74  0.039564 08 Producer Durables              0850 Commercial Services                              0850484 Environmental Maint & Security Service           
20110429 110394103 US1103941035 BRS      NYSE         BRISTOW GROUP INC             35940    1667616.00  0.265784 08 Producer Durables              0840 Transportation & Freight                         0840310 Air Transport                                    
20110429 11133B409 US11133B4095 BSFT     NASDAQ       BROADSOFT INC                  1871      85048.04  0.013555 01 Technology                     0130 Information Technology                           0130439 Computer Services Software & Systems             
20110429 11161T108 US11161T1088 BWEN     NASDAQ       BROADWIND ENERGY INC          69050     113932.10  0.018158 08 Producer Durables              0830 Scientific Instruments & Services                0830465 Scientific Instruments: Electrical               
20110429 11373M107 US11373M1071 BRKL     NASDAQ       BROOKLINE BANCORP INC         59038     544330.36  0.086755 10 Financial Services             1010 Banks                                            1010820 Banks: Savings/Thrifts & Mortgage Lend           
20110429 114340102 US1143401024 BRKS     NASDAQ       BROOKS AUTOMATION INC         26842     328278.99  0.052321 01 Technology                     0120 Electronics                                      0120738 Production Technology Equipment                  
20110429 115736100 US1157361007 BWS      NYSE         BROWN SHOE INC                13764     174120.38  0.027751 03 Consumer Discretionary         0360 Retail                                           0360834 Specialty Retail                                 
20110429 117665109 US1176651099 BMTC     NASDAQ       BRYN MAWR BANK CORP            9670     194850.50  0.031055 10 Financial Services             1010 Banks                                            1010400 Banks: Diversified                               
20110429 118255108 US1182551085 BKI      NYSE         BUCKEYE TECHNOLOGIES INC      39241    1105026.56  0.176119 07 Materials & Processing         0730 Industrial Materials & Processes                 0730720 Paper                                            
20110429 118440106 US1184401065 BKE      NYSE         BUCKLE INC                     1332      60595.82  0.009658 03 Consumer Discretionary         0360 Retail                                           0360834 Specialty Retail                                 
20110429 120076104 US1200761047 BBW      NYSE         BUILD A BEAR WORKSHOP         16212      99379.56  0.015839 03 Consumer Discretionary         0360 Retail                                           0360834 Specialty Retail                                 
20110429 12008R107 US12008R1077 BLDR     NASDAQ       BUILDERS FIRSTSOURCE INC      38139     101067.05  0.016108 07 Materials & Processing         0710 Building Materials & Services                    0710430 Building Materials                               
20110429 12477X106 US12477X1063 CAP      NYSE         CAI INTERNATIONAL INC          6759     170047.41  0.027102 08 Producer Durables              0840 Transportation & Freight                         0840808 Commercial Services: Rental & Leasing            
20110429 124805102 US1248051021 CBZ      NYSE         CBIZ INC                      15852     116200.82  0.018520 08 Producer Durables              0850 Commercial Services                              0850365 Back Office Support HR & Consutling              
20110429 124830100 US1248301004 CBL      NYSE         CBL & ASSOC PPTYS INC        138062    2563811.34  0.408619 10 Financial Services             1050 Real Estate                                      1050806 Real Estate Investment Trusts (REITs)            
20110429 125071100 US1250711009 CDI      NYSE         CDI CORP                      10825     160420.71  0.025568 08 Producer Durables              0850 Commercial Services                              0850365 Back Office Support HR & Consutling              
20110429 12541M102 US12541M1027 CHG      NYSE         CH ENERGY GROUP INC           15813     847893.06  0.135137 11 Utilities                      1110 Utilities                                        1110870 Utilities: Electrical                            
20110429 12561W105 US12561W1053 CNL      NYSE         CLECO CORP                    60686    2130078.60  0.339491 11 Utilities                      1110 Utilities                                        1110870 Utilities: Electrical                            
20110429 12562M106 US12562M1062 CKXE     NASDAQ       CKX INC                       46059     210486.94  0.033547 03 Consumer Discretionary         0350 Media                                            0350480 Entertainment                                    
20110429 125906107 US1259061075 CSS      NYSE         CSS INDUSTRIES INC             7444     143520.32  0.022874 03 Consumer Discretionary         0320 Consumer Products                                0320521 Household Equip & Products                       
20110429 126128107 US1261281075 CCNE     NASDAQ       CNB FINL CORP PA              12175     168867.25  0.026914 10 Financial Services             1010 Banks                                            1010400 Banks: Diversified                               
20110429 12612L108 US12612L1089 SUR      NYSE         CNA SURETY CORP               17676     468237.24  0.074627 10 Financial Services             1030 Insurance                                        1030542 Insurance: Property-Casualty                     
20110429 12618T105 US12618T1051 CRAI     NASDAQ       CRA INTERNATIONAL INC          9131     259774.30  0.041403 08 Producer Durables              0850 Commercial Services                              0850365 Back Office Support HR & Consutling              
20110429 12621E103 US12621E1038 CNO      NYSE         CNO FINANCIAL GROUP          203864    1643135.89  0.261882 10 Financial Services             1030 Insurance                                        1030528 Insurance: Life                                  
20110429 126349109 US1263491094 CSGS     NASDAQ       CSG SYSTEMS INTL INC          18151     385522.61  0.061444 01 Technology                     0130 Information Technology                           0130439 Computer Services Software & Systems             
20110429 126501105 US1265011056 CTS      NYSE         CTS CORP                      24092     264769.10  0.042199 01 Technology                     0120 Electronics                                      0120643 Technology: Misc                                 
20110429 126600105 US1266001056 CVBF     NASDAQ       CVB FINANCIAL CORP            89821     874856.54  0.139434 10 Financial Services             1010 Banks                                            1010400 Banks: Diversified                               
20110429 12662P108 US12662P1084 CVI      NYSE         CVR ENERGY INC                30301     673591.23  0.107357 06 Energy                         0620 Non-Renewable Energy                             0620605 Oil: Refining & Marketing                        
20110429 126804301 US1268043015 CAB      NYSE         CABELAS INC                   40206    1026861.24  0.163661 03 Consumer Discretionary         0360 Retail                                           0360834 Specialty Retail                                 
20110429 12709P103 US12709P1030 CCMP     NASDAQ       CABOT MICROELECTRONICS        18317     894753.70  0.142605 07 Materials & Processing         0730 Industrial Materials & Processes                 0730452 Diversified Materials & Processing               
20110429 127190304 US1271903049 CACI     NYSE         CACI INTERNATIONAL INC        28060    1714685.98  0.273286 01 Technology                     0130 Information Technology                           0130439 Computer Services Software & Systems             
20110429 12802T101 US12802T1016 DVR      NYSE         CAL DIVE INTL INC             94199     740404.14  0.118005 06 Energy                         0610 Energy Equipment & Services                      0610600 Oil Well Equipment & Services                    
20110429 128030202 US1280302027 CALM     NASDAQ       CAL MAINE FOODS INC            1351      39050.04  0.006224 04 Consumer Staples               0410 Food/Beverage & Tobacco                          0410305 Agriculture Fishing & Ranching                   
20110429 12811R104 US12811R1041 CLMS     NASDAQ       CALAMOS ASSET MGMT INC        19258     313327.66  0.049938 10 Financial Services             1040 Investment Banking & Brokerage Services          1040544 Asset Management & Custodian                     
20110429 130222102 US1302221023 CFNB     NASDAQ       CALIFORNIA FIRST NATL          1881      28572.39  0.004554 10 Financial Services             1010 Banks                                            1010400 Banks: Diversified                               
20110429 130788102 US1307881029 CWT      NYSE         CALIFORNIA WTR SVC GRP        19701     743121.72  0.118438 11 Utilities                      1110 Utilities                                        1110882 Utilities: Water                                 
20110429 13100M509 US13100M5094 CALX     NYSE         CALIX INC                       932      20387.77  0.003249 01 Technology                     0140 Telecommunication                                0140448 Communications Technology                        
20110429 131193104 US1311931042 ELY      NYSE         CALLAWAY GOLF CO              64391     455888.28  0.072659 03 Consumer Discretionary         0340 Leisure                                          0340556 Leisure Time                                     
20110429 132011107 US1320111073 CBM      NYSE         CAMBREX CORP                  29333     154291.58  0.024591 02 Health Care                    0230 Pharmaceuticals & Biotech                        0230460 Pharmaceuticals                                  
20110429 13201A107 US13201A1079 ABCD     NASDAQ       CAMBIUM LEARNING GRP INC       2370       8156.03  0.001300 03 Consumer Discretionary         0330 Consumer Services                                0330461 Education Services                               
20110429 133034108 US1330341082 CAC      NASDAQ       CAMDEN NATIONAL CORP           7657     264549.35  0.042164 10 Financial Services             1010 Banks                                            1010400 Banks: Diversified                               
20110429 13466Y105 US13466Y1055 CCG      NYSE         CAMPUS CREST CMNTYS INC       27708     327500.19  0.052197 10 Financial Services             1050 Real Estate                                      1050806 Real Estate Investment Trusts (REITs)            
20110429 138098108 US1380981084 CMN      NYSE         CANTEL MEDICAL CORP           12871     333745.03  0.053192 02 Health Care                    0220 Medical Equipment & Services                     0220507 Medical & Dental Instruments & Supplies          
20110429 139674105 US1396741050 CCBG     NASDAQ       CAPITAL CITY BANK GROUP       11875     133000.00  0.021197 10 Financial Services             1010 Banks                                            1010400 Banks: Diversified                               
20110429 140288101 US1402881015 LSE      NYSE         CAPLEASE INC                  57185     320236.00  0.051039 10 Financial Services             1050 Real Estate                                      1050806 Real Estate Investment Trusts (REITs)            
20110429 140475104 US1404751042 CSU      NYSE         CAPITAL SENIOR LIVING         27028     250549.56  0.039932 02 Health Care                    0210 Health Care Services                             0210504 Health Care Facilities                           
20110429 140501107 US1405011073 CSWC     NASDAQ       CAPITAL SOUTHWEST CORP         2847     273995.28  0.043669 10 Financial Services             1040 Investment Banking & Brokerage Services          1040544 Asset Management & Custodian                     
20110429 14067E506 US14067E5069 CMO      NYSE         CAPSTEAD MORTGAGE CORP        70116     928335.84  0.147958 10 Financial Services             1050 Real Estate                                      1050806 Real Estate Investment Trusts (REITs)            
20110429 14075T107 US14075T1079 CPD      NYSE AMEX    CARACO PHARMACEUTICAL          7877      41195.06  0.006566 02 Health Care                    0230 Pharmaceuticals & Biotech                        0230460 Pharmaceuticals                                  
20110429 14149F109 US14149F1093 CFNL     NASDAQ       CARDINAL FINANCIAL CORP       28725     322869.00  0.051459 10 Financial Services             1010 Banks                                            1010400 Banks: Diversified                               
20110429 14159L103 US14159L1035 BEAT     NASDAQ       CARDIONET INC                 18093      82504.08  0.013149 02 Health Care                    0210 Health Care Services                             0210499 Health Care Services                             
20110429 143436400 US1434364006 CKEC     NASDAQ       CARMIKE CINEMAS INC            4513      32768.16  0.005223 03 Consumer Discretionary         0350 Media                                            0350480 Entertainment                                    
20110429 147195101 US1471951012 CASC     NYSE         CASCADE CORP                   9079     415818.20  0.066273 08 Producer Durables              0810 Machinery                                        0810610 Machinery: Specialty                             
20110429 147528103 US1475281036 CASY     NASDAQ       CASEYS GENERAL STORES         23353     911436.99  0.145264 04 Consumer Staples               0420 Personal Care/Drug & Grocery Stores              0420459 Drug & Grocery Store Chains                      
20110429 14754D100 US14754D1000 CSH      NYSE         CASH AMERICA INTL INC         19883     943421.73  0.150362 10 Financial Services             1020 Consumer Finance & Credit Services               1020492 Consumer Lending                                 
20110429 148411101 US1484111018 CAS      NYSE         CASTLE A M & CO               16698     315258.24  0.050246 08 Producer Durables              0820 Manufacturing & Production                       0820453 Diversified Manufacturing Operations             
20110429 148711302 US1487113029 CMRG     NASDAQ       CASUAL MALE RETAIL GROUP       4668      19700.11  0.003140 03 Consumer Discretionary         0360 Retail                                           0360834 Specialty Retail                                 
20110429 149150104 US1491501045 CATY     NASDAQ       CATHAY GENERAL BANCORP        78513    1338646.65  0.213353 10 Financial Services             1010 Banks                                            1010400 Banks: Diversified                               
20110429 149568107 US1495681074 CVCO     NASDAQ       CAVCO INDUSTRIES INC           5254     244169.94  0.038916 03 Consumer Discretionary         0320 Consumer Products                                0320640 Manufactured Housing                             
20110429 150602209 US1506022094 CDR      NYSE         CEDAR SHOPPING CTRS INC       54588     322069.20  0.051331 10 Financial Services             1050 Real Estate                                      1050806 Real Estate Investment Trusts (REITs)            
20110429 150838100 US1508381001 CGI      NYSE         CELADON GROUP INC              7865     116166.46  0.018515 08 Producer Durables              0840 Transportation & Freight                         0840865 Truckers                                         
20110429 15100E106 US15100E1064 CRA      NASDAQ       CELERA CORPORATION            75429     596643.07  0.095093 02 Health Care                    0230 Pharmaceuticals & Biotech                        0230412 Biotechnology                                    
20110429 15135B101 US15135B1017 CNC      NYSE         CENTENE CORP                  49063    1777552.49  0.283306 02 Health Care                    0210 Health Care Services                             0210503 Health Care Management Services                  
20110429 15146E102 US15146E1029 CLFC     NASDAQ       CENTER FINANCIAL CORP         35507     258846.03  0.041255 10 Financial Services             1010 Banks                                            1010400 Banks: Diversified                               
20110429 15201P109 US15201P1093 CSFL     NASDAQ       CENTERSTATE BANKS INC         25670     159667.40  0.025448 10 Financial Services             1010 Banks                                            1010400 Banks: Diversified                               
20110429 153527205 US1535272058 CENTA    NASDAQ       CENTRAL GARDEN & PET CO       53100     532062.00  0.084800 03 Consumer Discretionary         0320 Consumer Products                                0320521 Household Equip & Products                       
20110429 155771108 US1557711082 CV       NYSE         CENTRAL VERMONT PUB SVC       13111     306928.51  0.048918 11 Utilities                      1110 Utilities                                        1110870 Utilities: Electrical                            
20110429 156431108 US1564311082 CENX     NASDAQ       CENTURY ALUMINUM CO           63750    1273725.00  0.203006 07 Materials & Processing         0740 Metals & Minerals                                0740320 Aluminum                                         
20110429 156432106 US1564321065 CNBKA    NASDAQ       CENTURY BANCORP INC            3389      93468.62  0.014897 10 Financial Services             1010 Banks                                            1010400 Banks: Diversified                               
20110429 156710105 US1567101050 CRDN     NASDAQ       CERADYNE INC                  25434    1191837.24  0.189955 08 Producer Durables              0840 Transportation & Freight                         0840300 Aerospace                                        
20110429 157210105 US1572101053 CEVA     NASDAQ       CEVA INC                       1504      46018.80  0.007334 01 Technology                     0120 Electronics                                      0120476 Semiconductors & Components                      
20110429 161133103 US1611331034 CHRS     NASDAQ       CHARMING SHOPPES INC         115863     524859.39  0.083652 03 Consumer Discretionary         0360 Retail                                           0360834 Specialty Retail                                 
20110429 16115Q308 US16115Q3083 GTLS     NASDAQ       CHART INDUSTRIES INC          28681    1394183.41  0.222204 08 Producer Durables              0810 Machinery                                        0810584 Machinery: Industrial                            
20110429 16208T102 US16208T1025 CLDT     NYSE         CHATHAM LODGING TR            12388     200066.20  0.031886 10 Financial Services             1050 Real Estate                                      1050806 Real Estate Investment Trusts (REITs)            
20110429 162825103 US1628251035 CKP      NYSE         CHECKPOINT SYSTEMS INC        23886     503026.52  0.080172 01 Technology                     0120 Electronics                                      0120463 Electronic Components                            
20110429 163731102 US1637311028 CHFC     NASDAQ       CHEMICAL FINANCIAL CORP       24416     491494.08  0.078334 10 Financial Services             1010 Banks                                            1010400 Banks: Diversified                               
20110429 16411R208 US16411R2085 LNG      NYSE AMEX    CHENIERE ENERGY INC           36534     331726.85  0.052870 06 Energy                         0620 Non-Renewable Energy                             0620670 Oil: Crude Producers                             
20110429 165240102 US1652401027 CHSP     NYSE         CHESAPEAKE LODGING TRUST      25260     454174.80  0.072386 10 Financial Services             1050 Real Estate                                      1050806 Real Estate Investment Trusts (REITs)            
20110429 165303108 US1653031088 CPK      NYSE         CHESAPEAKE UTILITIES           9458     404707.82  0.064502 11 Utilities                      1110 Utilities                                        1110875 Utilities: Gas Distributors                      
20110429 168905107 US1689051076 PLCE     NASDAQ       CHILDRENS PLACE RETAIL         2546     135372.95  0.021576 03 Consumer Discretionary         0360 Retail                                           0360834 Specialty Retail                                 
20110429 169467107 US1694671074 CHDX     NASDAQ       CHINDEX INTERNATIONAL          7936     136406.00  0.021740 02 Health Care                    0210 Health Care Services                             0210499 Health Care Services                             
20110429 170032809 US1700328099 CQB      NYSE         CHIQUITA BRANDS INTL INC      44881     714505.52  0.113878 04 Consumer Staples               0410 Food/Beverage & Tobacco                          0410494 Foods                                            
20110429 171046105 US1710461054 CBK      NYSE         CHRISTOPHER & BANKS CORP      15716      96657.33  0.015405 03 Consumer Discretionary         0360 Retail                                           0360834 Specialty Retail                                 
20110429 171484108 US1714841087 CHDN     NASDAQ       CHURCHILL DOWNS INC            9577     399452.83  0.063665 03 Consumer Discretionary         0340 Leisure                                          0340556 Leisure Time                                     
20110429 17163B102 US17163B1026 CBR      NYSE         CIBER INC                     62305     356384.60  0.056800 01 Technology                     0130 Information Technology                           0130439 Computer Services Software & Systems             
20110429 171871106 US1718711062 CBB      NYSE         CINCINNATI BELL INC          144217     431207.82  0.068726 11 Utilities                      1110 Utilities                                        1110880 Utilities: Telecommunications                    
20110429 17243V102 US17243V1026 CNK      NYSE         CINEMARK HOLDINGS INC         56915    1157081.95  0.184415 03 Consumer Discretionary         0350 Media                                            0350480 Entertainment                                    
20110429 17273K109 US17273K1097 CIR      NYSE         CIRCOR INTERNATIONAL INC      16095     731158.64  0.116532 08 Producer Durables              0830 Scientific Instruments & Services                0830524 Scientific Instruments: Control & Filter         
20110429 172922106 US1729221069 CZNC     NASDAQ       CITIZENS & NORTHERN CORP      12120     208100.40  0.033167 10 Financial Services             1010 Banks                                            1010400 Banks: Diversified                               
20110429 174420109 US1744201096 CRBC     NASDAQ       CITIZENS REPUBLIC            394388     362048.18  0.057703 10 Financial Services             1010 Banks                                            1010400 Banks: Diversified                               
20110429 174740100 US1747401008 CIA      NYSE         CITIZENS INC                  36422     271343.90  0.043247 10 Financial Services             1030 Insurance                                        1030528 Insurance: Life                                  
20110429 177835105 US1778351056 CHCO     NASDAQ       CITY HOLDING CO               15783     538200.30  0.085778 10 Financial Services             1010 Banks                                            1010400 Banks: Diversified                               
20110429 179895107 US1798951075 CLC      NYSE         CLARCOR INC                    3227     145863.20  0.023248 07 Materials & Processing         0730 Industrial Materials & Processes                 0730452 Diversified Materials & Processing               
20110429 18538R103 US18538R1032 CLW      NYSE         CLEARWATER PAPER CORP          2995     235107.09  0.037471 07 Materials & Processing         0730 Industrial Materials & Processes                 0730720 Paper                                            
20110429 18712Q103 US18712Q1031 CSBK     NASDAQ       CLIFTON SVGS BANCORP INC       9978     114347.88  0.018225 10 Financial Services             1010 Banks                                            1010820 Banks: Savings/Thrifts & Mortgage Lend           
20110429 18911Q102 US18911Q1022 CLD      NYSE         CLOUD PEAK ENERGY INC         25142     523452.03  0.083428 06 Energy                         0620 Non-Renewable Energy                             0620435 Coal                                             
20110429 190897108 US1908971088 COBZ     NASDAQ       COBIZ FINANCIAL INC           32281     219187.99  0.034934 10 Financial Services             1010 Banks                                            1010400 Banks: Diversified                               
20110429 192108504 US1921085049 CDE      NYSE         COEUR D ALENE MINES CORP      82322    2610403.35  0.416045 07 Materials & Processing         0740 Metals & Minerals                                0740498 Gold                                             
20110429 19238U107 US19238U1079 CSA      NYSE         COGDELL SPENCER INC           42993     260107.65  0.041456 10 Financial Services             1050 Real Estate                                      1050806 Real Estate Investment Trusts (REITs)            
20110429 192422103 US1924221039 CGNX     NASDAQ       COGNEX CORP                    8251     258115.55  0.041138 01 Technology                     0120 Electronics                                      0120738 Production Technology Equipment                  
20110429 192479103 US1924791031 COHR     NASDAQ       COHERENT INC                   7858     491244.77  0.078294 01 Technology                     0120 Electronics                                      0120475 Electronics                                      
20110429 19247A100 US19247A1007 CNS      NYSE         COHEN & STEERS INC             3404     107105.73  0.017070 10 Financial Services             1040 Investment Banking & Brokerage Services          1040544 Asset Management & Custodian                     
20110429 192576106 US1925761066 COHU     NASDAQ       COHU INC                      19061     274666.83  0.043776 01 Technology                     0120 Electronics                                      0120738 Production Technology Equipment                  
20110429 193294105 US1932941057 KCP      NYSE         COLE KENNETH PRODTNS           5204      70085.68  0.011170 03 Consumer Discretionary         0320 Consumer Products                                0320850 Textiles Apparel & Shoes                         
20110429 193459302 US1934593021 CCIX     NASDAQ       COLEMAN CABLE INC               451       4526.86  0.000721 08 Producer Durables              0830 Scientific Instruments & Services                0830465 Scientific Instruments: Electrical               
20110429 19421W100 US19421W1009 PSS      NYSE         COLLECTIVE BRANDS INC         19441     408273.26  0.065070 03 Consumer Discretionary         0360 Retail                                           0360834 Specialty Retail                                 
20110429 195872106 US1958721060 CLP      NYSE         COLONIAL PROPERTIES TR        77648    1643031.68  0.261866 10 Financial Services             1050 Real Estate                                      1050806 Real Estate Investment Trusts (REITs)            
20110429 19624R106 US19624R1068 CLNY     NYSE         COLONY FINANCIAL INC          17384     324733.12  0.051756 10 Financial Services             1050 Real Estate                                      1050806 Real Estate Investment Trusts (REITs)            
20110429 197236102 US1972361026 COLB     NASDAQ       COLUMBIA BKG SYSTEM INC       39282     740858.52  0.118078 10 Financial Services             1010 Banks                                            1010400 Banks: Diversified                               
20110429 198516106 US1985161066 COLM     NASDAQ       COLUMBIA SPORTSWEAR CO        11416     776173.84  0.123706 03 Consumer Discretionary         0320 Consumer Products                                0320850 Textiles Apparel & Shoes                         
20110429 199333105 US1993331057 CMCO     NASDAQ       COLUMBUS MCKINNON CORP        19122     382440.00  0.060953 08 Producer Durables              0810 Machinery                                        0810584 Machinery: Industrial                            
20110429 199908104 US1999081045 FIX      NYSE         COMFORT SYSTEMS USA INC       38017     464187.57  0.073982 07 Materials & Processing         0710 Building Materials & Services                    0710415 Building: Climate Control                        
20110429 202608105 US2026081057 CVGI     NASDAQ       COMMERCIAL VEH GROUP INC      24487     422645.62  0.067361 08 Producer Durables              0840 Transportation & Freight                         0840350 Commercial Vehicles & Parts                      
20110429 203607106 US2036071064 CBU      NYSE         COMMUNITY BANK SYSTEMS        34976     875099.52  0.139473 10 Financial Services             1010 Banks                                            1010400 Banks: Diversified                               
20110429 204149108 US2041491083 CTBI     NASDAQ       COMMUNITY TRUST BANCORP       13674     386974.20  0.061676 10 Financial Services             1010 Banks                                            1010400 Banks: Diversified                               
20110429 20451Q104 US20451Q1040 CODI     NYSE         COMPASS DIVERSIFIED HLDG      32721     548400.04  0.087404 08 Producer Durables              0850 Commercial Services                              0850365 Back Office Support HR & Consutling              
20110429 20453E109 US20453E1091 CPX      NYSE         COMPLETE PRODUCTION SERV      77742    2638563.48  0.420533 06 Energy                         0610 Energy Equipment & Services                      0610600 Oil Well Equipment & Services                    
20110429 20454K104 US20454K1043 GNOM     NASDAQ       COMPLETE GENOMICS INC           720      11865.60  0.001891 02 Health Care                    0230 Pharmaceuticals & Biotech                        0230412 Biotechnology                                    
20110429 20478T107 US20478T1079 CCRT     NASDAQ       COMPUCREDIT HOLDINGS          10122      43118.91  0.006872 10 Financial Services             1020 Consumer Finance & Credit Services               1020489 Financial Data & Systems                         
20110429 205477102 US2054771025 CTGX     NASDAQ       COMPUTER TASK GROUP INC        4808      71399.54  0.011380 01 Technology                     0130 Information Technology                           0130439 Computer Services Software & Systems             
20110429 20563P101 US20563P1012 CIX      NYSE AMEX    COMPX INTERNATIONAL             244       3441.55  0.000549 07 Materials & Processing         0740 Metals & Minerals                                0740630 Metal Fabricating                                
20110429 205826209 US2058262096 CMTL     NASDAQ       COMTECH TELECOMM              16919     478805.55  0.076312 01 Technology                     0140 Telecommunication                                0140448 Communications Technology                        
20110429 207410101 US2074101013 CNMD     NASDAQ       CONMED CORP                   29181     819402.48  0.130596 02 Health Care                    0220 Medical Equipment & Services                     0220507 Medical & Dental Instruments & Supplies          
20110429 207797101 US2077971016 CTWS     NASDAQ       CONNECTICUT WATER SVC          8513     219124.62  0.034924 11 Utilities                      1110 Utilities                                        1110882 Utilities: Water                                 
20110429 208242107 US2082421072 CONN     NASDAQ       CONNS INC                     13575      88912.75  0.014171 03 Consumer Discretionary         0360 Retail                                           0360834 Specialty Retail                                 
20110429 209034107 US2090341072 CNSL     NASDAQ       CONSOLIDATED COMM              5652     103954.15  0.016568 11 Utilities                      1110 Utilities                                        1110880 Utilities: Telecommunications                    
20110429 210226106 US2102261060 CTO      NYSE AMEX    CONSOLIDATED TOMOKA LAND       5414     167455.02  0.026689 10 Financial Services             1050 Real Estate                                      1050805 Real Estate                                      
20110429 21075N204 US21075N2045 MCF      NYSE AMEX    CONTANGO OIL & GAS CO          4076     252418.12  0.040230 06 Energy                         0620 Non-Renewable Energy                             0620670 Oil: Crude Producers                             
20110429 212172100 US2121721003 CNU      NYSE         CONTINUCARE CORP               7167      38416.19  0.006123 02 Health Care                    0210 Health Care Services                             0210504 Health Care Facilities                           
20110429 218681104 US2186811046 CORE     NASDAQ       CORE MARK HOLDING CO INC       9771     327399.80  0.052181 03 Consumer Discretionary         0330 Consumer Services                                0330638 Consumer Services: Misc                          
20110429 21870Q105 US21870Q1058 COR      NYSE         CORESITE REALTY CORP          17807     281165.01  0.044812 10 Financial Services             1050 Real Estate                                      1050806 Real Estate Investment Trusts (REITs)            
20110429 21924P103 US21924P1030 CRTX     NASDAQ       CORNERSTONE THERAPEUTICS       7859      54934.41  0.008755 02 Health Care                    0230 Pharmaceuticals & Biotech                        0230412 Biotechnology                                    
20110429 222660102 US2226601027 CRRC     NASDAQ       COURIER CORP                  10212     139904.40  0.022298 03 Consumer Discretionary         0350 Media                                            0350740 Publishing                                       
20110429 222795106 US2227951066 CUZ      NYSE         COUSINS PROPERTIES INC        90991     818919.00  0.130519 10 Financial Services             1050 Real Estate                                      1050806 Real Estate Investment Trusts (REITs)            
20110429 223622101 US2236221014 COWN     NASDAQ       COWEN GROUP INC               36208     150625.28  0.024007 10 Financial Services             1040 Investment Banking & Brokerage Services          1040544 Asset Management & Custodian                     
20110429 22410J106 US22410J1060 CBRL     NASDAQ       CRACKER BARREL STORE           1691      86666.66  0.013813 03 Consumer Discretionary         0340 Leisure                                          0340810 Restaurants                                      
20110429 225223304 US2252233042 CRAY     NASDAQ       CRAY INC                      20264     136167.88  0.021702 01 Technology                     0130 Information Technology                           0130449 Computer Technology                              
20110429 226553105 US2265531051 CXS      NYSE         CREXUS INVESTMENT CORP        13535     157818.10  0.025153 10 Financial Services             1050 Real Estate                                      1050806 Real Estate Investment Trusts (REITs)            
20110429 227483104 US2274831047 CCRN     NASDAQ       CROSS COUNTRY HEALTHCARE      31009     230086.78  0.036671 02 Health Care                    0210 Health Care Services                             0210499 Health Care Services                             
20110429 22765Y104 US22765Y1047 XTXI     NASDAQ       CROSSTEX ENERGY INC           40240     424532.00  0.067662 06 Energy                         0620 Non-Renewable Energy                             0620877 Gas Pipeline                                     
20110429 228411104 US2284111042 CRWN     NASDAQ       CROWN MEDIA HOLDINGS INC      20184      44202.45  0.007045 03 Consumer Discretionary         0350 Media                                            0350760 Radio & TV Broadcasters                          
20110429 228903100 US2289031005 CRY      NYSE         CRYOLIFE INC                  25902     151264.22  0.024108 02 Health Care                    0220 Medical Equipment & Services                     0220507 Medical & Dental Instruments & Supplies          
20110429 229669106 US2296691064 CUB      NYSE         CUBIC CORP                     8992     486262.32  0.077500 08 Producer Durables              0840 Transportation & Freight                         0840300 Aerospace                                        
20110429 231082108 US2310821085 CMLS     NASDAQ       CUMULUS MEDIA INC             17553      81617.82  0.013008 03 Consumer Discretionary         0350 Media                                            0350760 Radio & TV Broadcasters                          
20110429 231561101 US2315611010 CW       NYSE         CURTISS WRIGHT CORP           45862    1524911.50  0.243040 08 Producer Durables              0840 Transportation & Freight                         0840300 Aerospace                                        
20110429 232109108 US2321091082 CUTR     NASDAQ       CUTERA INC                    12633     111667.29  0.017797 02 Health Care                    0220 Medical Equipment & Services                     0220507 Medical & Dental Instruments & Supplies          
20110429 232572107 US2325721072 CYMI     NASDAQ       CYMER INC                     22776    1095746.58  0.174640 01 Technology                     0120 Electronics                                      0120738 Production Technology Equipment                  
20110429 232577205 US2325772059 CYNO     NASDAQ       CYNOSURE INC                   9721     143190.33  0.022822 02 Health Care                    0220 Medical Equipment & Services                     0220471 Medical Equipment                                
20110429 23281A307 US23281A3077 CYS      NYSE         CYPRESS SHARPRIDGE INV        69365     856657.75  0.136534 10 Financial Services             1050 Real Estate                                      1050806 Real Estate Investment Trusts (REITs)            
20110429 23282W100 US23282W1009 CYTK     NASDAQ       CYTOKINETICS INC               3667       5464.57  0.000871 02 Health Care                    0230 Pharmaceuticals & Biotech                        0230412 Biotechnology                                    
20110429 233153105 US2331531051 DCT      NYSE         DCT INDUSTRIAL TRUST INC     245352    1425495.12  0.227195 10 Financial Services             1050 Real Estate                                      1050806 Real Estate Investment Trusts (REITs)            
20110429 23332B106 US23332B1061 DSPG     NASDAQ       DSP GROUP INC                 23147     187027.76  0.029808 01 Technology                     0120 Electronics                                      0120476 Semiconductors & Components                      
20110429 234264109 US2342641097 DAKT     NASDAQ       DAKTRONICS INC                27272     292617.94  0.046637 01 Technology                     0120 Electronics                                      0120475 Electronics                                      
20110429 235825205 US2358252052 DAN      NYSE         DANA HOLDING CORP             10497     190748.21  0.030401 03 Consumer Discretionary         0310 Auto & Auto Parts                                0310340 Auto Parts                                       
20110429 236442109 US2364421097 DNBK     NASDAQ       DANVERS BANCORP INC           18839     424819.45  0.067708 10 Financial Services             1010 Banks                                            1010400 Banks: Diversified                               
20110429 237266101 US2372661015 DAR      NYSE         DARLING INTERNATIONAL         27329     441914.46  0.070432 08 Producer Durables              0830 Scientific Instruments & Services                0830735 Scientific Instruments: Pollution Control        
20110429 239359102 US2393591027 DWSN     NASDAQ       DAWSON GEOPHYSICAL CO          7818     348682.80  0.055573 06 Energy                         0610 Energy Equipment & Services                      0610600 Oil Well Equipment & Services                    
20110429 242309102 US2423091022 TRAK     NASDAQ       DEALERTRACK HOLDINGS INC       6448     144836.45  0.023084 01 Technology                     0130 Information Technology                           0130439 Computer Services Software & Systems             
20110429 246647101 US2466471016 DK       NYSE         DELEK US HLDGS INC            13584     182433.12  0.029076 06 Energy                         0620 Non-Renewable Energy                             0620605 Oil: Refining & Marketing                        
20110429 247131105 US2471311058 DFG      NYSE         DELPHI FINANCIAL GRP INC      47531    1518615.45  0.242036 10 Financial Services             1030 Insurance                                        1030528 Insurance: Life                                  
20110429 247368103 US2473681037 DLA      NYSE AMEX    DELTA APPAREL INC              5387      95281.49  0.015186 03 Consumer Discretionary         0320 Consumer Products                                0320850 Textiles Apparel & Shoes                         
20110429 24784L105 US24784L1052 PROJ     NASDAQ       DELTEK INC                     1243       9327.15  0.001487 01 Technology                     0130 Information Technology                           0130439 Computer Services Software & Systems             
20110429 247907207 US2479072074 DPTR     NASDAQ       DELTA PETROLEUM CORP         184940     154813.27  0.024674 06 Energy                         0620 Non-Renewable Energy                             0620670 Oil: Crude Producers                             
20110429 248019101 US2480191012 DLX      NYSE         DELUXE CORP                    3183      86196.13  0.013738 08 Producer Durables              0850 Commercial Services                              0850486 Forms and Bulk Printing Services                 
20110429 24802N109 US24802N1090 DMD      NYSE         DEMAND MEDIA INC               1845      30572.45  0.004873 01 Technology                     0130 Information Technology                           0130439 Computer Services Software & Systems             
20110429 25212W100 US25212W1009 DEXO     NYSE         DEX ONE CORP                  46865     196832.97  0.031371 03 Consumer Discretionary         0350 Media                                            0350301 Advertising Agencies                             
20110429 25264R207 US25264R2076 DHIL     NASDAQ       DIAMOND HILL INVESTMENT         185      15223.05  0.002426 10 Financial Services             1040 Investment Banking & Brokerage Services          1040544 Asset Management & Custodian                     
20110429 252784301 US2527843013 DRH      NYSE         DIAMONDROCK HOSPITALITY      165571    1993474.84  0.317719 10 Financial Services             1050 Real Estate                                      1050806 Real Estate Investment Trusts (REITs)            
20110429 253798102 US2537981027 DGII     NASDAQ       DIGI INTL INC                 20864     246402.65  0.039272 01 Technology                     0140 Telecommunication                                0140448 Communications Technology                        
20110429 25388B104 US25388B1044 DRIV     NASDAQ       DIGITAL RIVER INC             34670    1128137.40  0.179802 01 Technology                     0130 Information Technology                           0130439 Computer Services Software & Systems             
20110429 253922108 US2539221083 DCOM     NASDAQ       DIME CMNTY BANCSHARES         26700     412782.00  0.065789 10 Financial Services             1010 Banks                                            1010820 Banks: Savings/Thrifts & Mortgage Lend           
20110429 254067101 US2540671011 DDS      NYSE         DILLARDS INC                  40324    1936358.48  0.308616 03 Consumer Discretionary         0360 Retail                                           0360815 Diversified Retail                               
20110429 25659P402 US25659P4028 DM       NYSE         DOLAN COMPANY                 17155     201906.44  0.032180 03 Consumer Discretionary         0350 Media                                            0350740 Publishing                                       
20110429 256603101 US2566031017 DOLE     NYSE         DOLE FOOD CO INC              35908     495889.48  0.079035 04 Consumer Staples               0410 Food/Beverage & Tobacco                          0410494 Foods                                            
20110429 25754A201 US25754A2015 DPZ      NYSE         DOMINOS PIZZA INC             23263     431992.72  0.068851 03 Consumer Discretionary         0340 Leisure                                          0340810 Restaurants                                      
20110429 257701201 US2577012014 DGICA    NASDAQ       DONEGAL GROUP INC             11169     152345.16  0.024281 10 Financial Services             1030 Insurance                                        1030542 Insurance: Property-Casualty                     
20110429 25811P886 PR25811P8869 DRL      NYSE         DORAL FINANCIAL CORP          22283      33424.50  0.005327 10 Financial Services             1010 Banks                                            1010820 Banks: Savings/Thrifts & Mortgage Lend           
20110429 25960R105 US25960R1059 PLOW     NYSE         DOUGLAS DYNAMICS INC          10761     166687.89  0.026567 08 Producer Durables              0810 Machinery                                        0810577 Machinery: Construction & Handling               
20110429 26168L205 US26168L2051 DW       NYSE         DREW INDUSTRIES INC           11957     287792.76  0.045868 03 Consumer Discretionary         0340 Leisure                                          0340804 Recreational Vehicles & Boats                    
20110429 264147109 US2641471097 DCO      NYSE         DUCOMMUN INC                  10477     238351.75  0.037988 08 Producer Durables              0840 Transportation & Freight                         0840300 Aerospace                                        
20110429 26613Q106 US26613Q1067 DFT      NYSE         DUPONT FABROS TECHNOLOGY      25763     630152.76  0.100433 10 Financial Services             1050 Real Estate                                      1050806 Real Estate Investment Trusts (REITs)            
20110429 267475101 US2674751019 DY       NYSE         DYCOM INDUSTRIES INC          35132     522061.52  0.083206 08 Producer Durables              0850 Commercial Services                              0850479 Engineering & Contracting Services               
20110429 267888105 US2678881051 BOOM     NASDAQ       DYNAMIC MATERIALS CORP         7634     198622.11  0.031656 07 Materials & Processing         0740 Metals & Minerals                                0740630 Metal Fabricating                                
20110429 26817F104 US26817F1049 DVOX     NASDAQ       DYNAVOX INC                    8262      48330.91  0.007703 01 Technology                     0130 Information Technology                           0130439 Computer Services Software & Systems             
20110429 26817G300 US26817G3002 DYN      NYSE         DYNEGY INC                   102530     650040.20  0.103603 11 Utilities                      1110 Utilities                                        1110870 Utilities: Electrical                            
20110429 26817Q506 US26817Q5062 DX       NYSE         DYNEX CAPITAL INC             35674     352459.12  0.056175 10 Financial Services             1050 Real Estate                                      1050806 Real Estate Investment Trusts (REITs)            
20110429 268664109 US2686641091 EMCI     NASDAQ       EMC INS GROUP INC              4793     104535.33  0.016661 10 Financial Services             1030 Insurance                                        1030542 Insurance: Property-Casualty                     
20110429 26873N108 US26873N1081 ELMG     NASDAQ       EMS TECHNOLOGIES INC          14512     366548.77  0.058420 01 Technology                     0140 Telecommunication                                0140448 Communications Technology                        
20110429 26882D109 US26882D1090 EPIQ     NASDAQ       EPIQ SYSTEMS INC              30451     433304.35  0.069060 01 Technology                     0130 Information Technology                           0130439 Computer Services Software & Systems             
20110429 26884F102 US26884F1021 ESBF     NASDAQ       ESB FINANCIAL CORP             8878     150659.66  0.024012 10 Financial Services             1010 Banks                                            1010820 Banks: Savings/Thrifts & Mortgage Lend           
20110429 268948106 US2689481065 EGBN     NASDAQ       EAGLE BANCORP INC             16433     228090.04  0.036353 10 Financial Services             1010 Banks                                            1010400 Banks: Diversified                               
20110429 270321102 US2703211027 ELNK     NASDAQ       EARTHLINK INC                107918     887085.96  0.141383 01 Technology                     0130 Information Technology                           0130439 Computer Services Software & Systems             
20110429 277276101 US2772761019 EGP      NYSE         EASTGROUP PROPERTIES INC      14925     687434.45  0.109563 10 Financial Services             1050 Real Estate                                      1050806 Real Estate Investment Trusts (REITs)            
20110429 28140H104 US28140H1041 EDR      NYSE         EDUCATION REALTY TRUST        72170     614166.70  0.097886 10 Financial Services             1050 Real Estate                                      1050806 Real Estate Investment Trusts (REITs)            
20110429 283677854 US2836778546 EE       NYSE         EL PASO ELECTRIC CO           43762    1355746.76  0.216078 11 Utilities                      1110 Utilities                                        1110870 Utilities: Electrical                            
20110429 285218103 US2852181039 ELRC     NASDAQ       ELECTRO RENT CORP             16498     259843.50  0.041414 08 Producer Durables              0840 Transportation & Freight                         0840808 Commercial Services: Rental & Leasing            
20110429 285229100 US2852291002 ESIO     NASDAQ       ELECTRO SCIENTIFIC INDS       25120     413221.04  0.065859 01 Technology                     0120 Electronics                                      0120738 Production Technology Equipment                  
20110429 286082102 US2860821022 EFII     NASDAQ       ELECTRONICS FOR IMAGING       45278     813192.88  0.129606 08 Producer Durables              0820 Manufacturing & Production                       0820650 Office Supplies Equipment                        
20110429 28660G106 US28660G1067 RDEN     NASDAQ       ELIZABETH ARDEN INC           24284     729977.04  0.116343 03 Consumer Discretionary         0320 Consumer Products                                0320450 Cosmetics                                        
20110429 288853104 US2888531041 PERY     NASDAQ       ELLIS PERRY INTL INC          10812     304655.39  0.048556 03 Consumer Discretionary         0320 Consumer Products                                0320850 Textiles Apparel & Shoes                         
20110429 29084Q100 US29084Q1004 EME      NYSE         EMCOR GROUP INC               66310    2053620.70  0.327305 08 Producer Durables              0820 Manufacturing & Production                       0820443 Construction                                     
20110429 29089Q105 US29089Q1058 EBS      NYSE         EMERGENT BIOSOLUTIONS          1559      36201.75  0.005770 02 Health Care                    0230 Pharmaceuticals & Biotech                        0230412 Biotechnology                                    
20110429 291641108 US2916411083 EDE      NYSE         EMPIRE DISTRICT ELECTRIC      40142     900786.48  0.143567 11 Utilities                      1110 Utilities                                        1110870 Utilities: Electrical                            
20110429 292218104 US2922181043 EIG      NYSE         EMPLOYERS HOLDINGS INC        39831     802992.96  0.127981 10 Financial Services             1030 Insurance                                        1030542 Insurance: Property-Casualty                     
20110429 292475209 US2924752098 ELX      NYSE         EMULEX CORP                   86864     841712.16  0.134152 01 Technology                     0140 Telecommunication                                0140448 Communications Technology                        
20110429 292554102 US2925541029 ECPG     NASDAQ       ENCORE CAPITAL GROUP INC       4305     128919.10  0.020547 10 Financial Services             1020 Consumer Finance & Credit Services               1020492 Consumer Lending                                 
20110429 29255V201 US29255V2016 EBTX     NASDAQ       ENCORE BANCSHARES INC          8025      97102.50  0.015476 10 Financial Services             1010 Banks                                            1010400 Banks: Diversified                               
20110429 292562105 US2925621052 WIRE     NASDAQ       ENCORE WIRE CORP              18509     516586.19  0.082333 07 Materials & Processing         0730 Industrial Materials & Processes                 0730452 Diversified Materials & Processing               
20110429 292659109 US2926591098 ENER     NASDAQ       ENERGY CONVERSION DEVICE      41743      83485.02  0.013306 06 Energy                         0610 Energy Equipment & Services                      0610477 Energy Equipment                                 
20110429 29269A102 US29269A1025 ECYT     NASDAQ       ENDOCYTE INC                   2749      33408.03  0.005325 02 Health Care                    0230 Pharmaceuticals & Biotech                        0230460 Pharmaceuticals                                  
20110429 29270J100 US29270J1007 ERII     NASDAQ       ENERGY RECOVERY INC            4555      14077.00  0.002244 08 Producer Durables              0830 Scientific Instruments & Services                0830524 Scientific Instruments: Control & Filter         
20110429 29270U303 US29270U3032 EPL      NYSE         ENERGY PARTNERS LTD           28926     526742.46  0.083952 06 Energy                         0620 Non-Renewable Energy                             0620670 Oil: Crude Producers                             
20110429 292756202 US2927562023 ES       NYSE         ENERGYSOLUTIONS INC           88500     500025.00  0.079694 08 Producer Durables              0830 Scientific Instruments & Services                0830735 Scientific Instruments: Pollution Control        
20110429 29275Y102 US29275Y1029 ENS      NYSE         ENERSYS INC                   34466    1305897.57  0.208133 08 Producer Durables              0830 Scientific Instruments & Services                0830465 Scientific Instruments: Electrical               
20110429 293389102 US2933891028 EBF      NYSE         ENNIS INC                     20537     383618.48  0.061141 08 Producer Durables              0850 Commercial Services                              0850486 Forms and Bulk Printing Services                 
20110429 29355X107 US29355X1072 NPO      NYSE         ENPRO INDUSTRIES INC          11946     478770.03  0.076306 08 Producer Durables              0810 Machinery                                        0810584 Machinery: Industrial                            
20110429 29358P101 US29358P1012 ENSG     NASDAQ       ENSIGN GROUP INC                729      20182.31  0.003217 02 Health Care                    0210 Health Care Services                             0210504 Health Care Facilities                           
20110429 29362U104 US29362U1043 ENTG     NASDAQ       ENTEGRIS INC                  89704     774138.37  0.123382 01 Technology                     0120 Electronics                                      0120738 Production Technology Equipment                  
20110429 293639100 US2936391000 ETM      NYSE         ENTERCOM COMMUNICATIONS        3951      41767.65  0.006657 03 Consumer Discretionary         0350 Media                                            0350760 Radio & TV Broadcasters                          
20110429 293712105 US2937121059 EFSC     NASDAQ       ENTERPRISE FINL SERVICES      14854     221324.60  0.035275 10 Financial Services             1010 Banks                                            1010400 Banks: Diversified                               
20110429 29380T105 US29380T1051 EPR      NYSE         ENTERTAINMENT PPTYS TR        46485    2213150.85  0.352731 10 Financial Services             1050 Real Estate                                      1050806 Real Estate Investment Trusts (REITs)            
20110429 293904108 US2939041081 ENZN     NASDAQ       ENZON PHARMACEUTICALS         17670     202851.60  0.032330 02 Health Care                    0230 Pharmaceuticals & Biotech                        0230412 Biotechnology                                    
20110429 29404K106 US29404K1060 ENV      NYSE         ENVESTNET INC                  1818      24093.54  0.003840 01 Technology                     0130 Information Technology                           0130439 Computer Services Software & Systems             
20110429 294100102 US2941001024 ENZ      NYSE         ENZO BIOCHEM INC               3531      14088.98  0.002245 02 Health Care                    0230 Pharmaceuticals & Biotech                        0230412 Biotechnology                                    
20110429 294268107 US2942681071 PLUS     NASDAQ       EPLUS INC                      3621     100102.46  0.015954 01 Technology                     0130 Information Technology                           0130439 Computer Services Software & Systems             
20110429 29426L108 US29426L1089 EPIC     NASDAQ       EPICOR SOFTWARE CORP          18834     235432.31  0.037523 01 Technology                     0130 Information Technology                           0130439 Computer Services Software & Systems             
20110429 29428R103 US29428R1032 EPHC     NASDAQ       EPOCH HOLDING CORP             1041      18065.71  0.002879 10 Financial Services             1040 Investment Banking & Brokerage Services          1040544 Asset Management & Custodian                     
20110429 29429D103 US29429D1037 EPOC     NASDAQ       EPOCRATES INC                  1339      31350.15  0.004997 02 Health Care                    0210 Health Care Services                             0210499 Health Care Services                             
20110429 29472R108 US29472R1086 ELS      NYSE         EQUITY LIFESTYLE PROP          8891     531900.30  0.084774 10 Financial Services             1050 Real Estate                                      1050806 Real Estate Investment Trusts (REITs)            
20110429 294752100 US2947521009 EQY      NYSE         EQUITY ONE INC                34665     687059.98  0.109503 10 Financial Services             1050 Real Estate                                      1050806 Real Estate Investment Trusts (REITs)            
20110429 296315104 US2963151046 ESE      NYSE         ESCO TECHNOLOGIES INC         26446     970039.28  0.154604 08 Producer Durables              0830 Scientific Instruments & Services                0830524 Scientific Instruments: Control & Filter         
20110429 29667D104 US29667D1046 ESSA     NASDAQ       ESSA BANCORP INC              13250     166287.50  0.026503 10 Financial Services             1010 Banks                                            1010820 Banks: Savings/Thrifts & Mortgage Lend           
20110429 297425100 US2974251009 ESL      NYSE         ESTERLINE TECHNOLOGIES        29828    2141650.40  0.341335 08 Producer Durables              0840 Transportation & Freight                         0840300 Aerospace                                        
20110429 297602104 US2976021046 ETH      NYSE         ETHAN ALLEN INTERIORS         16201     390281.20  0.062203 03 Consumer Discretionary         0320 Consumer Products                                0320523 Household Furnishings                            
20110429 298736109 US2987361092 EEFT     NASDAQ       EURONET WORLDWIDE INC         49029     919293.75  0.146517 10 Financial Services             1020 Consumer Finance & Credit Services               1020489 Financial Data & Systems                         
20110429 29977A105 US29977A1051 EVR      NYSE         EVERCORE PARTNERS               845      29487.42  0.004700 10 Financial Services             1040 Investment Banking & Brokerage Services          1040457 Diversified Financial Services                   
20110429 30033R306 US30033R3066 ESLR     NASDAQ       EVERGREEN SOLAR INC           35754      51843.30  0.008263 06 Energy                         0610 Energy Equipment & Services                      0610477 Energy Equipment                                 
20110429 300645108 US3006451088 EXAR     NASDAQ       EXAR CORP                     32076     195978.98  0.031235 01 Technology                     0120 Electronics                                      0120476 Semiconductors & Components                      
20110429 30064E109 US30064E1091 EXAC     NASDAQ       EXACTECH INC                   2619      46915.96  0.007477 02 Health Care                    0220 Medical Equipment & Services                     0220507 Medical & Dental Instruments & Supplies          
20110429 30066A105 US30066A1051 EXAM     NYSE         EXAMWORKS GROUP INC            2961      65734.20  0.010477 02 Health Care                    0210 Health Care Services                             0210499 Health Care Services                             
20110429 30068C109 US30068C1099 EXL      NYSE         EXCEL TR INC                  14996     178452.40  0.028442 10 Financial Services             1050 Real Estate                                      1050806 Real Estate Investment Trusts (REITs)            
20110429 30161Q104 US30161Q1040 EXEL     NASDAQ       EXELIXIS INC                  58713     719823.44  0.114725 02 Health Care                    0230 Pharmaceuticals & Biotech                        0230412 Biotechnology                                    
20110429 302051206 US3020512063 XIDE     NASDAQ       EXIDE TECHNOLOGIES            57144     573715.88  0.091439 03 Consumer Discretionary         0310 Auto & Auto Parts                                0310340 Auto Parts                                       
20110429 30214U102 US30214U1025 EXPO     NASDAQ       EXPONENT INC                    803      34492.00  0.005497 08 Producer Durables              0850 Commercial Services                              0850479 Engineering & Contracting Services               
20110429 30225T102 US30225T1025 EXR      NYSE         EXTRA SPACE STORAGE INC       87204    1887966.60  0.300903 10 Financial Services             1050 Real Estate                                      1050806 Real Estate Investment Trusts (REITs)            
20110429 30226D106 US30226D1063 EXTR     NASDAQ       EXTREME NETWORKS INC          65248     204225.69  0.032549 01 Technology                     0140 Telecommunication                                0140448 Communications Technology                        
20110429 302301106 US3023011063 EZPW     NASDAQ       EZCORP INC                     3369     106120.42  0.016913 10 Financial Services             1020 Consumer Finance & Credit Services               1020492 Consumer Lending                                 
20110429 30239F106 US30239F1066 FFG      NYSE         FBL FINANCIAL GROUP INC       13419     409279.50  0.065231 10 Financial Services             1030 Insurance                                        1030528 Insurance: Life                                  
20110429 30241L109 US30241L1098 FEIC     NASDAQ       FEI CO                        27697     899041.28  0.143289 01 Technology                     0120 Electronics                                      0120738 Production Technology Equipment                  
20110429 30247C301 US30247C3016 FBCM     NASDAQ       FBR CAPITAL MARKETS CORP      52569     189248.40  0.030162 10 Financial Services             1040 Investment Banking & Brokerage Services          1040457 Diversified Financial Services                   
20110429 302520101 US3025201019 FNB      NYSE         FNB CORP                     120593    1320493.35  0.210460 10 Financial Services             1010 Banks                                            1010400 Banks: Diversified                               
20110429 302563101 US3025631017 FPIC     NASDAQ       FPIC INSURANCE GROUP INC       8574     316552.08  0.050452 10 Financial Services             1030 Insurance                                        1030542 Insurance: Property-Casualty                     
20110429 302693106 US3026931069 FXCM     NYSE         FXCM INC                      13991     186207.22  0.029678 10 Financial Services             1040 Investment Banking & Brokerage Services          1040823 Securities Brokerage & Services                  
20110429 303250104 US3032501047 FICO     NYSE         FAIR ISAAC CORP               41711    1246324.68  0.198639 10 Financial Services             1020 Consumer Finance & Credit Services               1020489 Financial Data & Systems                         
20110429 306137100 US3061371007 FALC     NASDAQ       FALCONSTOR SOFTWARE           16240      69178.45  0.011026 01 Technology                     0130 Information Technology                           0130439 Computer Services Software & Systems             
20110429 307675108 US3076751086 FARM     NASDAQ       FARMER BROS CO                 6364      76549.42  0.012200 04 Consumer Staples               0410 Food/Beverage & Tobacco                          0410410 Beverage: Soft Drinks                            
20110429 313148306 US3131483063 AGM      NYSE         FEDERAL AGRIC MTG CO           9648     182829.60  0.029139 10 Financial Services             1020 Consumer Finance & Credit Services               1020487 Commercial Finance & Mortgage Co                 
20110429 313855108 US3138551086 FSS      NYSE         FEDERAL SIGNAL CORP           62248     420174.00  0.066967 08 Producer Durables              0820 Manufacturing & Production                       0820453 Diversified Manufacturing Operations             
20110429 31430F101 US31430F1012 FCH      NYSE         FELCOR LODGING TRUST INC      49885     317266.87  0.050566 10 Financial Services             1050 Real Estate                                      1050806 Real Estate Investment Trusts (REITs)            
20110429 315405100 US3154051003 FOE      NYSE         FERRO CORP                    48405     726067.47  0.115720 07 Materials & Processing         0730 Industrial Materials & Processes                 0730714 Paints & Coatings                                
20110429 31567R209 US31567R2094 FTWR     NASDAQ       FIBERTOWER CORP               49964      67451.40  0.010750 11 Utilities                      1110 Utilities                                        1110880 Utilities: Telecommunications                    
20110429 31678A103 US31678A1034 FSC      NYSE         FIFTH STREET FINANCE          66559     887231.47  0.141407 10 Financial Services             1040 Investment Banking & Brokerage Services          1040544 Asset Management & Custodian                     
20110429 317585404 US3175854047 FISI     NASDAQ       FINANCIAL INSTNS INC          13793     234481.00  0.037371 10 Financial Services             1010 Banks                                            1010400 Banks: Diversified                               
20110429 317923100 US3179231002 FINL     NASDAQ       FINISH LINE INC               35680     766760.02  0.122206 03 Consumer Discretionary         0360 Retail                                           0360834 Specialty Retail                                 
20110429 31847R102 US31847R1023 FAF      NYSE         FIRST AMERICAN FINL CORP      97668    1523618.93  0.242834 10 Financial Services             1030 Insurance                                        1030542 Insurance: Property-Casualty                     
20110429 31866P102 US31866P1021 FNLC     NASDAQ       FIRST BANCORP INC              8737     129744.45  0.020679 10 Financial Services             1010 Banks                                            1010400 Banks: Diversified                               
20110429 318672706 PR3186727065 FBP      NYSE         FIRST BANCORP PR              21303     106301.97  0.016942 10 Financial Services             1010 Banks                                            1010400 Banks: Diversified                               
20110429 318910106 US3189101062 FBNC     NASDAQ       FIRST BANCORP NC              14966     208925.36  0.033298 10 Financial Services             1010 Banks                                            1010400 Banks: Diversified                               
20110429 319383105 US3193831050 BUSE     NASDAQ       FIRST BUSEY CORP              68238     358249.50  0.057098 10 Financial Services             1010 Banks                                            1010400 Banks: Diversified                               
20110429 319829107 US3198291078 FCF      NYSE         FIRST COMMONWLTH FINL        104786     649673.20  0.103545 10 Financial Services             1010 Banks                                            1010400 Banks: Diversified                               
20110429 31983A103 US31983A1034 FCBC     NASDAQ       FIRST CMNTY BANCSHAR          15773     234386.78  0.037356 10 Financial Services             1010 Banks                                            1010400 Banks: Diversified                               
20110429 320209109 US3202091092 FFBC     NASDAQ       FIRST FINANCIAL BANCORP       57850     953368.00  0.151947 10 Financial Services             1010 Banks                                            1010400 Banks: Diversified                               
20110429 32020R109 US32020R1095 FFIN     NASDAQ       FIRST FINL BANKSHARES         11696     648177.25  0.103306 10 Financial Services             1010 Banks                                            1010400 Banks: Diversified                               
20110429 320218100 US3202181000 THFF     NASDAQ       FIRST FINANCIAL CORP          11093     356750.88  0.056859 10 Financial Services             1010 Banks                                            1010400 Banks: Diversified                               
20110429 320239106 US3202391062 FFCH     NASDAQ       FIRST FINANCIAL HOLDINGS      16527     181466.46  0.028922 10 Financial Services             1010 Banks                                            1010820 Banks: Savings/Thrifts & Mortgage Lend           
20110429 32054K103 US32054K1034 FR       NYSE         FIRST INDUSTRIAL RLTY TR      77980     976309.60  0.155604 10 Financial Services             1050 Real Estate                                      1050806 Real Estate Investment Trusts (REITs)            
20110429 32055Y201 US32055Y2019 FIBK     NASDAQ       FIRST INTST BANCSYSTEM        12405     169700.40  0.027047 10 Financial Services             1010 Banks                                            1010400 Banks: Diversified                               
20110429 320734106 US3207341062 FLIC     NASDAQ       FIRST LONG ISLAND CORP         6944     187835.20  0.029937 10 Financial Services             1010 Banks                                            1010400 Banks: Diversified                               
20110429 320771108 US3207711082 FMD      NYSE         FIRST MARBLEHEAD CORP         55364     119032.60  0.018971 10 Financial Services             1020 Consumer Finance & Credit Services               1020492 Consumer Lending                                 
20110429 320817109 US3208171096 FRME     NASDAQ       FIRST MERCHANTS CORP          25522     236588.94  0.037707 10 Financial Services             1010 Banks                                            1010400 Banks: Diversified                               
20110429 320867104 US3208671046 FMBI     NASDAQ       FIRST MIDWEST BANCORP         74049     970041.90  0.154605 10 Financial Services             1010 Banks                                            1010400 Banks: Diversified                               
20110429 33610F109 US33610F1093 FPO      NYSE         FIRST POTOMAC REALTY TR       49934     810428.82  0.129166 10 Financial Services             1050 Real Estate                                      1050806 Real Estate Investment Trusts (REITs)            
20110429 33646W100 US33646W1009 FSBK     NASDAQ       FIRST SOUTH BANCORP INC        8262      37013.76  0.005899 10 Financial Services             1010 Banks                                            1010400 Banks: Diversified                               
20110429 336901103 US3369011032 SRCE     NASDAQ       1ST SOURCE CORP               15276     324156.72  0.051664 10 Financial Services             1010 Banks                                            1010400 Banks: Diversified                               
20110429 33740N105 US33740N1054 FUBC     NASDAQ       1ST UNITED BANCORP INC        26350     183659.50  0.029272 10 Financial Services             1010 Banks                                            1010400 Banks: Diversified                               
20110429 337756209 US3377562091 FSCI     NASDAQ       FISHER COMMUNICATIONS          6516     197109.00  0.031415 03 Consumer Discretionary         0350 Media                                            0350760 Radio & TV Broadcasters                          
20110429 337915102 US3379151026 FMER     NASDAQ       FIRSTMERIT CORP              107764    1882637.08  0.300054 10 Financial Services             1010 Banks                                            1010400 Banks: Diversified                               
20110429 337930507 US3379305077 FBC      NYSE         FLAGSTAR BANCORP INC          67880     105892.80  0.016877 10 Financial Services             1010 Banks                                            1010820 Banks: Savings/Thrifts & Mortgage Lend           
20110429 33832D106 US33832D1063 FVE      NYSE         FIVE STAR QUALITY CARE        31567     264531.46  0.042161 02 Health Care                    0210 Health Care Services                             0210504 Health Care Facilities                           
20110429 343468104 US3434681041 FLOW     NASDAQ       FLOW INTL CORP                 6656      28691.50  0.004573 08 Producer Durables              0810 Machinery                                        0810584 Machinery: Industrial                            
20110429 34385P108 US34385P1084 FLDM     NASDAQ       FLUIDIGM CORP                  1246      20625.35  0.003287 02 Health Care                    0220 Medical Equipment & Services                     0220471 Medical Equipment                                
20110429 343873105 US3438731057 FFIC     NASDAQ       FLUSHING FINANCIAL CORP       31157     458631.04  0.073096 10 Financial Services             1010 Banks                                            1010820 Banks: Savings/Thrifts & Mortgage Lend           
20110429 345203202 US3452032028 FRPT     NASDAQ       FORCE PROTECTION INC          70274     315530.26  0.050289 08 Producer Durables              0840 Transportation & Freight                         0840350 Commercial Vehicles & Parts                      
20110429 346233109 US3462331097 FOR      NYSE         FORESTAR GROUP INC            36416     716302.72  0.114164 10 Financial Services             1050 Real Estate                                      1050805 Real Estate                                      
20110429 346375108 US3463751087 FORM     NASDAQ       FORMFACTOR INC                50003     518531.11  0.082643 01 Technology                     0120 Electronics                                      0120476 Semiconductors & Components                      
20110429 34954W104 US34954W1045 FRF      NYSE         FORTEGRA FINANCIAL CORP        4794      52485.55  0.008365 10 Financial Services             1030 Insurance                                        1030535 Insurance: Multi-Line                            
20110429 350060109 US3500601097 FSTR     NASDAQ       FOSTER L B CO                 10184     433431.04  0.069080 07 Materials & Processing         0740 Metals & Minerals                                0740630 Metal Fabricating                                
20110429 35137T108 US35137T1088 FXCB     NASDAQ       FOX CHASE BANCORP              5397      73669.05  0.011741 10 Financial Services             1010 Banks                                            1010820 Banks: Savings/Thrifts & Mortgage Lend           
20110429 353514102 US3535141028 FELE     NASDAQ       FRANKLIN ELECTRIC CO           1883      84986.29  0.013545 08 Producer Durables              0830 Scientific Instruments & Services                0830465 Scientific Instruments: Electrical               
20110429 35471R106 US35471R1068 FSP      NYSE AMEX    FRANKLIN STREET PPTYS CO      69163     977964.82  0.155868 10 Financial Services             1050 Real Estate                                      1050806 Real Estate Investment Trusts (REITs)            
20110429 356108100 US3561081007 FRED     NASDAQ       FREDS INC                     39305     548697.80  0.087451 03 Consumer Discretionary         0360 Retail                                           0360815 Diversified Retail                               
20110429 357023100 US3570231007 RAIL     NASDAQ       FREIGHTCAR AMERICA INC        11933     357751.34  0.057018 08 Producer Durables              0840 Transportation & Freight                         0840770 Railroad Equipment                               
20110429 35804H106 US35804H1068 TFM      NASDAQ       FRESH MARKET INC              10060     420692.47  0.067050 04 Consumer Staples               0420 Personal Care/Drug & Grocery Stores              0420459 Drug & Grocery Store Chains                      
20110429 359523107 US3595231073 FTEK     NASDAQ       FUEL TECH INC                 17869     144917.59  0.023097 08 Producer Durables              0830 Scientific Instruments & Services                0830735 Scientific Instruments: Pollution Control        
20110429 35952W103 US35952W1036 FSYS     NASDAQ       FUEL SYSTEMS SOLUTIONS          839      24941.42  0.003975 03 Consumer Discretionary         0310 Auto & Auto Parts                                0310340 Auto Parts                                       
20110429 359694106 US3596941068 FUL      NYSE         FULLER H B CO                 45535     994924.00  0.158571 07 Materials & Processing         0730 Industrial Materials & Processes                 0730714 Paints & Coatings                                
20110429 360921100 US3609211004 FBN      NYSE         FURNITURE BRANDS INTL         46811     226565.24  0.036110 03 Consumer Discretionary         0320 Consumer Products                                0320523 Household Furnishings                            
20110429 36106P101 US36106P1012 FURX     NASDAQ       FURIEX PHARMACEUTICALS         1054      15640.90  0.002493 02 Health Care                    0230 Pharmaceuticals & Biotech                        0230412 Biotechnology                                    
20110429 361086101 US3610861011 FRM      NYSE         FURMANITE  CORP                4040      33861.40  0.005397 08 Producer Durables              0850 Commercial Services                              0850479 Engineering & Contracting Services               
20110429 361268105 US3612681052 GKSR     NASDAQ       G&K SERVICES INC              18567     614567.70  0.097950 08 Producer Durables              0850 Commercial Services                              0850484 Environmental Maint & Security Service           
20110429 361438104 US3614381040 GBL      NYSE         GAMCO INVESTORS INC            2723     140123.56  0.022333 10 Financial Services             1040 Investment Banking & Brokerage Services          1040544 Asset Management & Custodian                     
20110429 36159R103 US36159R1032 GEO      NYSE         GEO GROUP INC                 27356     729876.01  0.116327 08 Producer Durables              0850 Commercial Services                              0850484 Environmental Maint & Security Service           
20110429 361652209 US3616522096 GFIG     NYSE         GFI GROUP INC                 27680     141449.28  0.022544 10 Financial Services             1040 Investment Banking & Brokerage Services          1040823 Securities Brokerage & Services                  
20110429 36225V104 US36225V1044 GPX      NYSE         GP STRATEGIES CORP            10500     137442.05  0.021905 08 Producer Durables              0850 Commercial Services                              0850365 Back Office Support HR & Consutling              
20110429 36241U106 US36241U1060 GSIT     NASDAQ       GSI TECHNOLOGY                 5572      49650.96  0.007913 01 Technology                     0140 Telecommunication                                0140448 Communications Technology                        
20110429 36268Q103 US36268Q1031 GAIA     NASDAQ       GAIAM INC                     15894      94569.30  0.015072 03 Consumer Discretionary         0360 Retail                                           0360815 Diversified Retail                               
20110429 36268W100 US36268W1009 GCAP     NYSE         GAIN CAPITAL HLDNGS INC        5648      36198.15  0.005769 10 Financial Services             1040 Investment Banking & Brokerage Services          1040823 Securities Brokerage & Services                  
20110429 367299203 CA3672992037 GST      NYSE AMEX    GASTAR EXPL LTD               55513     249808.50  0.039814 06 Energy                         0620 Non-Renewable Energy                             0620670 Oil: Crude Producers                             
20110429 367905106 US3679051066 GET      NYSE         GAYLORD ENTMT CO              34664    1243397.68  0.198172 03 Consumer Discretionary         0340 Leisure                                          0340514 Hotel/Motel                                      
20110429 368682100 US3686821006 GY       NYSE         GENCORP INC                   54756     357556.68  0.056987 08 Producer Durables              0840 Transportation & Freight                         0840300 Aerospace                                        
20110429 368736104 US3687361044 GNRC     NYSE         GENERAC HOLDINGS INC          12361     257355.19  0.041017 08 Producer Durables              0820 Manufacturing & Production                       0820734 Power Transmission Equip                         
20110429 369385109 US3693851095 GNCMA    NASDAQ       GENERAL COMMUNICATION         41008     471592.00  0.075162 11 Utilities                      1110 Utilities                                        1110880 Utilities: Telecommunications                    
20110429 371532102 US3715321028 GCO      NYSE         GENESCO INC                   21621     873053.96  0.139147 03 Consumer Discretionary         0360 Retail                                           0360834 Specialty Retail                                 
20110429 372476101 US3724761016 GEOI     NASDAQ       GEORESOURCES INC              16410     476218.20  0.075899 06 Energy                         0620 Non-Renewable Energy                             0620670 Oil: Crude Producers                             
20110429 37247A102 US37247A1025 GTIV     NASDAQ       GENTIVA HEALTH SERVICES       20061     561701.95  0.089524 02 Health Care                    0210 Health Care Services                             0210499 Health Care Services                             
20110429 373200302 US3732003021 GGC      NYSE         GEORGIA GULF CORP             33722    1327972.36  0.211652 07 Materials & Processing         0720 Chemicals and Synthetics                         0720433 Chemicals: Diversified                           
20110429 373730100 US3737301008 GRB      NYSE         GERBER SCIENTIFIC INC         25158     240510.48  0.038332 08 Producer Durables              0810 Machinery                                        0810584 Machinery: Industrial                            
20110429 373865104 US3738651047 GABC     NASDAQ       GERMAN AMERICAN BANCORP       12554     219067.30  0.034915 10 Financial Services             1010 Banks                                            1010400 Banks: Diversified                               
20110429 374297109 US3742971092 GTY      NYSE         GETTY REALTY CORP             12839     326216.12  0.051992 10 Financial Services             1050 Real Estate                                      1050806 Real Estate Investment Trusts (REITs)            
20110429 374396109 US3743961092 GEVO     NASDAQ       GEVO INC                       2376      45986.44  0.007329 06 Energy                         0630 Alternative Energy                               0630478 Alternative Energy                               
20110429 374689107 US3746891072 ROCK     NASDAQ       GIBRALTAR INDUSTRIES INC      30258     353413.44  0.056327 07 Materials & Processing         0710 Building Materials & Services                    0710430 Building Materials                               
20110429 37637Q105 US37637Q1058 GBCI     NASDAQ       GLACIER BANCORP INC           71913    1080852.39  0.172266 10 Financial Services             1010 Banks                                            1010400 Banks: Diversified                               
20110429 376535100 US3765351008 GLAD     NASDAQ       GLADSTONE CAPITAL CORP        21039     239003.04  0.038092 10 Financial Services             1040 Investment Banking & Brokerage Services          1040544 Asset Management & Custodian                     
20110429 376536108 US3765361080 GOOD     NASDAQ       GLADSTONE COMMERCIAL           9463     172605.12  0.027510 10 Financial Services             1050 Real Estate                                      1050806 Real Estate Investment Trusts (REITs)            
20110429 376546107 US3765461070 GAIN     NASDAQ       GLADSTONE INVESTMENT          22080     170899.20  0.027238 10 Financial Services             1040 Investment Banking & Brokerage Services          1040823 Securities Brokerage & Services                  
20110429 377316104 US3773161043 GLT      NYSE         GLATFELTER                    45783     622648.80  0.099238 07 Materials & Processing         0730 Industrial Materials & Processes                 0730720 Paper                                            
20110429 377341102 US3773411026 GLCH     NASDAQ       GLEACHER & COMPANY INC        39457      74572.33  0.011885 10 Financial Services             1040 Investment Banking & Brokerage Services          1040457 Diversified Financial Services                   
20110429 378967103 US3789671035 GCA      NYSE         GLOBAL CASH ACCESS INC         5698      18803.86  0.002997 10 Financial Services             1020 Consumer Finance & Credit Services               1020489 Financial Data & Systems                         
20110429 378973408 US3789734080 GSAT     NASDAQ       GLOBALSTAR INC                69771      90004.59  0.014345 11 Utilities                      1110 Utilities                                        1110880 Utilities: Telecommunications                    
20110429 379302102 US3793021029 GRT      NYSE         GLIMCHER REALTY TRUST         99875     953806.25  0.152017 10 Financial Services             1050 Real Estate                                      1050806 Real Estate Investment Trusts (REITs)            
20110429 379336100 US3793361003 GLBL     NASDAQ       GLOBAL INDUSTRIES LTD        101343     999241.98  0.159259 06 Energy                         0610 Energy Equipment & Services                      0610600 Oil Well Equipment & Services                    
20110429 37946S107 US37946S1078 GGS      NYSE         GLOBAL GEOPHYSICAL SVCS        7498     142387.02  0.022694 06 Energy                         0610 Energy Equipment & Services                      0610600 Oil Well Equipment & Services                    
20110429 37956X103 US37956X1037 GCOM     NASDAQ       GLOBECOMM SYSTEMS INC         20222     289574.63  0.046152 01 Technology                     0140 Telecommunication                                0140448 Communications Technology                        
20110429 38011M108 US38011M1080 GMXR     NYSE         GMX RESOURCES INC             56416     331726.08  0.052870 06 Energy                         0620 Non-Renewable Energy                             0620670 Oil: Crude Producers                             
20110429 38173M102 US38173M1027 GBDC     NASDAQ       GOLUB CAP BDC INC              7403     118744.12  0.018925 10 Financial Services             1040 Investment Banking & Brokerage Services          1040544 Asset Management & Custodian                     
20110429 382410405 US3824104059 GDP      NYSE         GOODRICH PETROLEUM CORP       24449     549369.03  0.087558 06 Energy                         0620 Non-Renewable Energy                             0620670 Oil: Crude Producers                             
20110429 38269P100 US38269P1003 GMAN     NASDAQ       GORDMANS STORES INC            2576      48416.51  0.007717 03 Consumer Discretionary         0360 Retail                                           0360815 Diversified Retail                               
20110429 38376A103 US38376A1034 GOV      NYSE         GOVERNMENT PPTY INCOME        27555     755558.10  0.120421 10 Financial Services             1050 Real Estate                                      1050806 Real Estate Investment Trusts (REITs)            
20110429 38388F108 US38388F1084 GRA      NYSE         GRACE W R & CO                61203    2776143.31  0.442461 07 Materials & Processing         0720 Chemicals and Synthetics                         0720433 Chemicals: Diversified                           
20110429 384701108 US3847011083 GRM      NYSE         GRAHAM PACKAGING CO INC       15838     364259.28  0.058055 07 Materials & Processing         0730 Industrial Materials & Processes                 0730442 Containers & Packaging                           
20110429 387328107 US3873281071 GVA      NYSE         GRANITE CONSTR INC            34883     948119.94  0.151111 08 Producer Durables              0820 Manufacturing & Production                       0820443 Construction                                     
20110429 388689101 US3886891015 GPK      NYSE         GRAPHIC PACKAGING HLDG       112246     616230.54  0.098215 07 Materials & Processing         0730 Industrial Materials & Processes                 0730442 Containers & Packaging                           
20110429 389375106 US3893751061 GTN      NYSE         GRAY TELEVISION INC           48449     135172.71  0.021544 03 Consumer Discretionary         0350 Media                                            0350760 Radio & TV Broadcasters                          
20110429 390607109 US3906071093 GLDD     NASDAQ       GREAT LAKES DREDGE & DOC      38006     283140.53  0.045127 08 Producer Durables              0820 Manufacturing & Production                       0820443 Construction                                     
20110429 390905107 US3909051076 GSBC     NASDAQ       GREAT SOUTHERN BANCORP        10126     209608.20  0.033407 10 Financial Services             1010 Banks                                            1010820 Banks: Savings/Thrifts & Mortgage Lend           
20110429 39153L106 US39153L1061 GB       NYSE         GREATBATCH INC                23225     628700.75  0.100202 02 Health Care                    0220 Medical Equipment & Services                     0220471 Medical Equipment                                
20110429 393222104 US3932221043 GPRE     NASDAQ       GREEN PLAINS RENEWABLE        18284     228915.68  0.036484 06 Energy                         0630 Alternative Energy                               0630478 Alternative Energy                               
20110429 393657101 US3936571013 GBX      NYSE         GREENBRIER COMPANIES INC      21422     579893.54  0.092423 08 Producer Durables              0840 Transportation & Freight                         0840770 Railroad Equipment                               
20110429 394361208 US3943612081 GRNB     NASDAQ       GREEN BANKSHARES INC          11820      23994.60  0.003824 10 Financial Services             1010 Banks                                            1010400 Banks: Diversified                               
20110429 398231100 US3982311009 GRIF     NASDAQ       GRIFFIN LAND & NURSERIES       2387      63923.86  0.010188 10 Financial Services             1050 Real Estate                                      1050805 Real Estate                                      
20110429 398433102 US3984331021 GFF      NYSE         GRIFFON CORP                  44780     570497.20  0.090926 07 Materials & Processing         0710 Building Materials & Services                    0710430 Building Materials                               
20110429 398905109 US3989051095 GPI      NYSE         GROUP 1 AUTOMOTIVE INC        19139     823736.53  0.131287 03 Consumer Discretionary         0360 Retail                                           0360834 Specialty Retail                                 
20110429 402307102 US4023071024 GIFI     NASDAQ       GULF ISLAND FABRICATION       14315     505892.10  0.080629 06 Energy                         0610 Energy Equipment & Services                      0610600 Oil Well Equipment & Services                    
20110429 402629208 US4026292080 GLF      NYSE         GULFMARK OFFSHORE INC         23277     990901.89  0.157930 08 Producer Durables              0840 Transportation & Freight                         0840830 Shipping                                         
20110429 404030108 US4040301081 HEES     NASDAQ       H&E EQUIPMENT SERVICES        27674     550712.60  0.087772 08 Producer Durables              0840 Transportation & Freight                         0840808 Commercial Services: Rental & Leasing            
20110429 40418F108 US40418F1084 HF       NYSE         HFF INC                        6481      97031.77  0.015465 10 Financial Services             1050 Real Estate                                      1050805 Real Estate                                      
20110429 404609109 US4046091090 HCKT     NASDAQ       HACKETT GROUP INC             10668      46300.64  0.007379 08 Producer Durables              0850 Commercial Services                              0850365 Back Office Support HR & Consutling              
20110429 405217100 US4052171000 HAIN     NASDAQ       HAIN CELESTIAL GROUP          43017    1463008.17  0.233174 04 Consumer Staples               0410 Food/Beverage & Tobacco                          0410494 Foods                                            
20110429 40609P105 US40609P1057 HNRG     NASDAQ       HALLADOR ENERGY CO              376       4227.63  0.000674 06 Energy                         0620 Non-Renewable Energy                             0620435 Coal                                             
20110429 40624Q203 US40624Q2030 HALL     NASDAQ       HALLMARK FINL SVCS INC        11610      99265.50  0.015821 10 Financial Services             1030 Insurance                                        1030542 Insurance: Property-Casualty                     
20110429 410120109 US4101201097 HBHC     NASDAQ       HANCOCK HOLDING CO            35011    1143459.26  0.182244 10 Financial Services             1010 Banks                                            1010400 Banks: Diversified                               
20110429 41043F208 US41043F2083 HGR      NYSE         HANGER ORTHOPEDIC GROUP       12822     348387.43  0.055526 02 Health Care                    0210 Health Care Services                             0210504 Health Care Facilities                           
20110429 410495105 US4104951052 HAFC     NASDAQ       HANMI FINANCIAL CORP         102364     135120.48  0.021535 10 Financial Services             1010 Banks                                            1010400 Banks: Diversified                               
20110429 41146A106 US41146A1060 HRG      NYSE         HARBINGER GROUP INC            9063      55012.41  0.008768 07 Materials & Processing         0730 Industrial Materials & Processes                 0730452 Diversified Materials & Processing               
20110429 412824104 US4128241043 HGIC     NASDAQ       HARLEYSVILLE GROUP INC        11598     372063.84  0.059299 10 Financial Services             1030 Insurance                                        1030542 Insurance: Property-Casualty                     
20110429 413160102 US4131601027 HLIT     NASDAQ       HARMONIC INC                  88769     735002.52  0.117144 01 Technology                     0140 Telecommunication                                0140448 Communications Technology                        
20110429 413833104 US4138331040 TINY     NASDAQ       HARRIS & HARRIS GROUP         30865     161115.30  0.025678 10 Financial Services             1040 Investment Banking & Brokerage Services          1040544 Asset Management & Custodian                     
20110429 41754V103 US41754V1035 HNR      NYSE         HARVEST NATURAL RES           33261     459667.02  0.073262 06 Energy                         0620 Non-Renewable Energy                             0620670 Oil: Crude Producers                             
20110429 41902R103 US41902R1032 HTS      NYSE         HATTERAS FINL CORP            72572    2061770.52  0.328604 10 Financial Services             1050 Real Estate                                      1050806 Real Estate Investment Trusts (REITs)            
20110429 419596101 US4195961010 HVT      NYSE         HAVERTY FURNITURE INC         15948     208913.30  0.033297 03 Consumer Discretionary         0360 Retail                                           0360834 Specialty Retail                                 
20110429 419879101 US4198791018 HA       NASDAQ       HAWAIIAN HOLDINGS INC         39445     230748.38  0.036777 08 Producer Durables              0840 Transportation & Freight                         0840310 Air Transport                                    
20110429 420261109 US4202611095 HWKN     NASDAQ       HAWKINS INC                    1464      68900.57  0.010981 07 Materials & Processing         0720 Chemicals and Synthetics                         0720433 Chemicals: Diversified                           
20110429 420877201 US4208772016 HAYN     NASDAQ       HAYNES INTERNATIONAL INC      10590     572260.25  0.091207 07 Materials & Processing         0740 Metals & Minerals                                0740630 Metal Fabricating                                
20110429 421924309 US4219243098 HLS      NYSE         HEALTHSOUTH CORP               5334     136719.26  0.021790 02 Health Care                    0210 Health Care Services                             0210504 Health Care Facilities                           
20110429 421946104 US4219461047 HR       NYSE         HEALTHCARE REALTY TRUST       67205    1534962.20  0.244642 10 Financial Services             1050 Real Estate                                      1050806 Real Estate Investment Trusts (REITs)            
20110429 42210P102 US42210P1021 HW       NYSE         HEADWATERS INC                60367     329603.82  0.052532 07 Materials & Processing         0710 Building Materials & Services                    0710430 Building Materials                               
20110429 422245100 US4222451001 HWAY     NASDAQ       HEALTHWAYS INC                34107     577090.44  0.091976 02 Health Care                    0210 Health Care Services                             0210499 Health Care Services                             
20110429 42224N101 US42224N1019 HS       NYSE         HEALTHSPRING INC              57943    2404055.07  0.383157 02 Health Care                    0210 Health Care Services                             0210503 Health Care Management Services                  
20110429 42234Q102 US42234Q1022 HTLF     NASDAQ       HEARTLAND FINANCIAL USA       13070     205460.40  0.032746 10 Financial Services             1010 Banks                                            1010400 Banks: Diversified                               
20110429 422704106 US4227041062 HL       NYSE         HECLA MINING CO              278000    2615980.00  0.416934 07 Materials & Processing         0740 Metals & Minerals                                0740635 Metals & Minerals: Diversified                   
20110429 422819102 US4228191023 HSII     NASDAQ       HEIDRICK & STRUGGLES          16001     374416.10  0.059674 08 Producer Durables              0850 Commercial Services                              0850365 Back Office Support HR & Consutling              
20110429 42330P107 US42330P1075 HLX      NYSE         HELIX ENERGY SOLUTIONS       104561    1979339.73  0.315466 06 Energy                         0610 Energy Equipment & Services                      0610600 Oil Well Equipment & Services                    
20110429 427093109 US4270931094 HERO     NASDAQ       HERCULES OFFSHORE INC        114757     720100.18  0.114769 06 Energy                         0620 Non-Renewable Energy                             0620660 Offshore Drilling & Other Services               
20110429 427096508 US4270965084 HTGC     NASDAQ       HERCULES TECHNOLOGY GR        43444     467023.00  0.074434 10 Financial Services             1040 Investment Banking & Brokerage Services          1040544 Asset Management & Custodian                     
20110429 42722X106 US42722X1063 HFWA     NASDAQ       HERITAGE FINANCIAL CORP       13795     203338.30  0.032408 10 Financial Services             1010 Banks                                            1010820 Banks: Savings/Thrifts & Mortgage Lend           
20110429 42726X102 US42726X1028 HBOS     NASDAQ       HERITAGE FINANCIAL GROUP       1491      18006.87  0.002870 10 Financial Services             1010 Banks                                            1010820 Banks: Savings/Thrifts & Mortgage Lend           
20110429 427825104 US4278251040 HT       NYSE         HERSHA HOSPITALITY TRUST     134628     799690.32  0.127454 10 Financial Services             1050 Real Estate                                      1050806 Real Estate Investment Trusts (REITs)            
20110429 428291108 US4282911084 HXL      NYSE         HEXCEL CORP                   17271     371859.61  0.059267 07 Materials & Processing         0730 Industrial Materials & Processes                 0730452 Diversified Materials & Processing               
20110429 42840B101 US42840B1017 HITK     NASDAQ       HI-TECH PHARMACAL CO INC        913      25279.25  0.004029 02 Health Care                    0230 Pharmaceuticals & Biotech                        0230460 Pharmaceuticals                                  
20110429 42983D104 US42983D1046 ONE      NYSE         HIGHER ONE HLDGS INC           3259      45932.48  0.007321 10 Financial Services             1020 Consumer Finance & Credit Services               1020489 Financial Data & Systems                         
20110429 431284108 US4312841087 HIW      NYSE         HIGHWOODS PROPERTIES INC      71592    2641744.80  0.421040 10 Financial Services             1050 Real Estate                                      1050806 Real Estate Investment Trusts (REITs)            
20110429 431466101 US4314661012 HIL      NYSE         HILL INTERNATIONAL INC        18678      94694.81  0.015092 08 Producer Durables              0850 Commercial Services                              0850479 Engineering & Contracting Services               
20110429 432748101 US4327481010 HTH      NYSE         HILLTOP HOLDINGS INC          39657     384672.90  0.061309 10 Financial Services             1030 Insurance                                        1030542 Insurance: Property-Casualty                     
20110429 434711107 US4347111076 HOKU     NASDAQ       HOKU CORPORATION              15557      31735.52  0.005058 06 Energy                         0630 Alternative Energy                               0630478 Alternative Energy                               
20110429 436893200 US4368932004 HOMB     NASDAQ       HOME BANCSHARES INC           21958     526333.26  0.083887 10 Financial Services             1010 Banks                                            1010400 Banks: Diversified                               
20110429 43689E107 US43689E1073 HBCP     NASDAQ       HOME BANCORP INC               7229     115447.13  0.018400 10 Financial Services             1010 Banks                                            1010820 Banks: Savings/Thrifts & Mortgage Lend           
20110429 43710G105 US43710G1058 HOME     NASDAQ       HOME FEDERAL BANCORP          16688     202759.20  0.032316 10 Financial Services             1010 Banks                                            1010820 Banks: Savings/Thrifts & Mortgage Lend           
20110429 437306103 US4373061039 HME      NYSE         HOME PROPERTIES INC           25196    1597424.37  0.254597 10 Financial Services             1050 Real Estate                                      1050806 Real Estate Investment Trusts (REITs)            
20110429 439038100 US4390381006 HOFT     NASDAQ       HOOKER FURNITURE CORP         10775     134041.00  0.021363 03 Consumer Discretionary         0320 Consumer Products                                0320523 Household Furnishings                            
20110429 440327104 US4403271046 HMN      NYSE         HORACE MANN EDUCATORS         39223     701307.24  0.111774 10 Financial Services             1030 Insurance                                        1030535 Insurance: Multi-Line                            
20110429 44044K101 US44044K1016 HRZ      NYSE         HORIZON LINES INC             30446      53889.42  0.008589 08 Producer Durables              0840 Transportation & Freight                         0840830 Shipping                                         
20110429 440543106 US4405431069 HOS      NYSE         HORNBECK OFFSHORE SVCS        23246     679480.58  0.108295 06 Energy                         0610 Energy Equipment & Services                      0610600 Oil Well Equipment & Services                    
20110429 440694305 US4406943054 ZINC     NASDAQ       HORSEHEAD HOLDING CORP        41125     648539.91  0.103364 07 Materials & Processing         0740 Metals & Minerals                                0740549 Precious Metals & Minerals                       
20110429 441339108 US4413391081 HOTT     NASDAQ       HOT TOPIC INC                 25814     173208.45  0.027606 03 Consumer Discretionary         0360 Retail                                           0360834 Specialty Retail                                 
20110429 442487203 US4424872038 HOV      NYSE         HOVNANIAN ENTERPRISES         61536     197530.56  0.031482 03 Consumer Discretionary         0320 Consumer Products                                0320501 Homebuilding                                     
20110429 444097109 US4440971095 HPP      NYSE         HUDSON PAC PPTYS INC          13332     199710.21  0.031830 10 Financial Services             1050 Real Estate                                      1050806 Real Estate Investment Trusts (REITs)            
20110429 444172100 US4441721002 HUVL     NASDAQ       HUDSON VALLEY HOLDING         13099     296168.39  0.047203 10 Financial Services             1010 Banks                                            1010400 Banks: Diversified                               
20110429 444398101 US4443981018 HUGH     NASDAQ       HUGHES COMMUNICATIONS          3377     202129.55  0.032215 01 Technology                     0140 Telecommunication                                0140448 Communications Technology                        
20110429 447462102 US4474621020 HURN     NASDAQ       HURON CONSULTING GROUP        15104     434985.47  0.069328 08 Producer Durables              0850 Commercial Services                              0850365 Back Office Support HR & Consutling              
20110429 448407106 US4484071067 HTCH     NASDAQ       HUTCHINSON TECHNOLOGY         23362      62376.54  0.009942 01 Technology                     0130 Information Technology                           0130449 Computer Technology                              
20110429 448947507 US4489475073 IDT      NYSE         IDT CORP                      14145     410063.55  0.065356 11 Utilities                      1110 Utilities                                        1110880 Utilities: Telecommunications                    
20110429 44925C103 US44925C1036 ICFI     NASDAQ       ICF INTERNATIONAL INC         11239     273773.32  0.043634 08 Producer Durables              0850 Commercial Services                              0850365 Back Office Support HR & Consutling              
20110429 44930G107 US44930G1076 ICUI     NASDAQ       ICU MEDICAL INC                8921     402426.13  0.064139 02 Health Care                    0220 Medical Equipment & Services                     0220507 Medical & Dental Instruments & Supplies          
20110429 44930K108 US44930K1088 ICOG     NASDAQ       ICO GLOBAL COMM HLDGS         36395     105182.75  0.016764 11 Utilities                      1110 Utilities                                        1110880 Utilities: Telecommunications                    
20110429 45031U101 US45031U1016 SFI      NYSE         ISTAR FINANCIAL INC           93382     898334.84  0.143176 10 Financial Services             1050 Real Estate                                      1050806 Real Estate Investment Trusts (REITs)            
20110429 450828108 US4508281080 IBKC     NASDAQ       IBERIABANK CORP               26753    1605447.53  0.255876 10 Financial Services             1010 Banks                                            1010400 Banks: Diversified                               
20110429 451055107 US4510551074 ICON     NASDAQ       ICONIX BRAND GROUP INC        72185    1767810.65  0.281753 03 Consumer Discretionary         0320 Consumer Products                                0320850 Textiles Apparel & Shoes                         
20110429 451107106 US4511071064 IDA      NYSE         IDACORP INC                   48098    1885922.58  0.300578 11 Utilities                      1110 Utilities                                        1110870 Utilities: Electrical                            
20110429 45173E105 US45173E1055 IKAN     NASDAQ       IKANOS COMMUNICATIONS         31923      40221.94  0.006411 01 Technology                     0120 Electronics                                      0120476 Semiconductors & Components                      
20110429 45245A107 US45245A1079 IMN      NYSE         IMATION CORP                  29773     305768.71  0.048733 01 Technology                     0130 Information Technology                           0130449 Computer Technology                              
20110429 45256B101 US45256B1017 IPXL     NASDAQ       IMPAX LABORATORIES INC         6636     181720.46  0.028963 02 Health Care                    0230 Pharmaceuticals & Biotech                        0230460 Pharmaceuticals                                  
20110429 452834104 US4528341047 IFT      NYSE         IMPERIAL HOLDINGS INC          8695      86437.07  0.013776 10 Financial Services             1020 Consumer Finance & Credit Services               1020492 Consumer Lending                                 
20110429 453096208 US4530962087 IPSU     NASDAQ       IMPERIAL SUGAR CO             12163     166389.84  0.026519 04 Consumer Staples               0410 Food/Beverage & Tobacco                          0410840 Sugar                                            
20110429 453836108 US4538361084 INDB     NASDAQ       INDEPENDENT BANK MA           21180     620785.80  0.098941 10 Financial Services             1010 Banks                                            1010400 Banks: Diversified                               
20110429 45665G303 US45665G3039 INFI     NASDAQ       INFINITY PHARMACEUTICALS       4241      25362.97  0.004042 02 Health Care                    0230 Pharmaceuticals & Biotech                        0230460 Pharmaceuticals                                  
20110429 45665Q103 US45665Q1031 IPCC     NASDAQ       INFINITY PPTY & CAS CORP      12517     739754.70  0.117902 10 Financial Services             1030 Insurance                                        1030542 Insurance: Property-Casualty                     
20110429 45667G103 US45667G1031 INFN     NASDAQ       INFINERA CORP                  7041      55063.75  0.008776 01 Technology                     0140 Telecommunication                                0140448 Communications Technology                        
20110429 45678T300 US45678T3005 INSP     NASDAQ       INFOSPACE INC                 31252     281264.47  0.044828 01 Technology                     0130 Information Technology                           0130439 Computer Services Software & Systems             
20110429 457030104 US4570301048 IMKTA    NASDAQ       INGLES MARKETS INC            12550     238575.50  0.038024 04 Consumer Staples               0420 Personal Care/Drug & Grocery Stores              0420459 Drug & Grocery Store Chains                      
20110429 457461200 US4574612002 IRC      NYSE         INLAND REAL ESTATE CORP       74363     726526.51  0.115793 10 Financial Services             1050 Real Estate                                      1050806 Real Estate Investment Trusts (REITs)            
20110429 45765U103 US45765U1034 NSIT     NASDAQ       INSIGHT ENTERPRISES INC       35363     606827.19  0.096716 01 Technology                     0130 Information Technology                           0130449 Computer Technology                              
20110429 457667103 US4576671030 INSU     NASDAQ       INSITUFORM TECHNOLOGIES        5493     139035.93  0.022159 08 Producer Durables              0820 Manufacturing & Production                       0820443 Construction                                     
20110429 45772F107 US45772F1075 IPHI     NYSE         INPHI CORP                     2146      46315.47  0.007382 01 Technology                     0120 Electronics                                      0120476 Semiconductors & Components                      
20110429 45773H102 US45773H1023 INO      NYSE AMEX    INOVIO PHARMACEUTICALS        39802      37872.04  0.006036 02 Health Care                    0230 Pharmaceuticals & Biotech                        0230412 Biotechnology                                    
20110429 45774N108 US45774N1081 IPHS     NASDAQ       INNOPHOS HOLDINGS INC         15974     740205.13  0.117974 07 Materials & Processing         0720 Chemicals and Synthetics                         0720433 Chemicals: Diversified                           
20110429 45774W108 US45774W1080 IIIN     NASDAQ       INSTEEL INDUSTRIES INC        16628     248253.68  0.039567 07 Materials & Processing         0730 Industrial Materials & Processes                 0730452 Diversified Materials & Processing               
20110429 45810H107 US45810H1077 ISYS     NASDAQ       INTEGRAL SYSTEMS INC          16440     205324.02  0.032724 01 Technology                     0130 Information Technology                           0130439 Computer Services Software & Systems             
20110429 458118106 US4581181066 IDTI     NASDAQ       INTEGRATED DEVICE TECH        58953     479587.54  0.076436 01 Technology                     0120 Electronics                                      0120476 Semiconductors & Components                      
20110429 45812P107 US45812P1075 ISSI     NASDAQ       INTEGRATED SILICON S           2694      26026.20  0.004148 01 Technology                     0120 Electronics                                      0120476 Semiconductors & Components                      
20110429 458743101 US4587431010 IBI      NYSE         INTERLINE BRANDS INC          30046     634564.99  0.101137 07 Materials & Processing         0710 Building Materials & Services                    0710415 Building: Climate Control                        
20110429 458786100 US4587861000 IN       NYSE         INTERMEC INC                  19790     227192.93  0.036210 01 Technology                     0130 Information Technology                           0130449 Computer Technology                              
20110429 45885A300 US45885A3005 INAP     NASDAQ       INTERNAP NETWORK SVCS CO      51815     419183.35  0.066809 01 Technology                     0130 Information Technology                           0130439 Computer Services Software & Systems             
20110429 459044103 US4590441030 IBOC     NASDAQ       INTERNATIONAL BANCSHARES      53053     934793.86  0.148987 10 Financial Services             1010 Banks                                            1010400 Banks: Diversified                               
20110429 45928H106 US45928H1068 ICO      NYSE         INTERNATIONAL COAL GRP       131217    1447323.51  0.230674 06 Energy                         0620 Non-Renewable Energy                             0620435 Coal                                             
20110429 460321201 US4603212014 ISH      NYSE         INTL SHIPHOLDING CORP          5624     134919.76  0.021503 08 Producer Durables              0840 Transportation & Freight                         0840830 Shipping                                         
20110429 46059C205 US46059C2052 ICGE     NASDAQ       INTERNET CAPITAL GROUP        33820     469747.35  0.074868 01 Technology                     0130 Information Technology                           0130439 Computer Services Software & Systems             
20110429 461148108 US4611481080 IVAC     NASDAQ       INTEVAC INC                   13678     167275.38  0.026660 01 Technology                     0120 Electronics                                      0120738 Production Technology Equipment                  
20110429 46116V105 US46116V1052 INTL     NASDAQ       INTL FCSTONE INC              12723     336905.04  0.053696 10 Financial Services             1040 Investment Banking & Brokerage Services          1040823 Securities Brokerage & Services                  
20110429 46118H104 US46118H1041 IL       NYSE         INTRALINKS HLDGS INC           2752      87418.38  0.013933 01 Technology                     0130 Information Technology                           0130439 Computer Services Software & Systems             
20110429 461203101 US4612031017 IVC      NYSE         INVACARE CORP                 27366     900315.77  0.143492 02 Health Care                    0220 Medical Equipment & Services                     0220507 Medical & Dental Instruments & Supplies          
20110429 46131B100 US46131B1008 IVR      NYSE         INVESCO MORTGAGE CAP          71704    1630548.96  0.259876 10 Financial Services             1050 Real Estate                                      1050806 Real Estate Investment Trusts (REITs)            
20110429 46145F105 US46145F1057 ITG      NYSE         INVESTMENT TECHNOLOGY         43576     745585.36  0.118831 10 Financial Services             1040 Investment Banking & Brokerage Services          1040823 Securities Brokerage & Services                  
20110429 46146P102 US46146P1021 ISBC     NASDAQ       INVESTORS BANCORP INC         41446     623341.45  0.099348 10 Financial Services             1010 Banks                                            1010400 Banks: Diversified                               
20110429 461730103 US4617301035 IRET     NASDAQ       INVESTORS REAL ESTATE TR      75038     706107.58  0.112539 10 Financial Services             1050 Real Estate                                      1050806 Real Estate Investment Trusts (REITs)            
20110429 46269C102 US46269C1027 IRDM     NASDAQ       IRIDIUM COMMUNICATIONS        34070     266768.10  0.042517 11 Utilities                      1110 Utilities                                        1110880 Utilities: Telecommunications                    
20110429 464592104 US4645921044 ISLE     NASDAQ       ISLE OF CAPRI CASINOS         17166     163756.16  0.026099 03 Consumer Discretionary         0340 Leisure                                          0340434 Casinos & Gambling                               
20110429 46600W106 US46600W1062 IXYS     NASDAQ       IXYS CORP                      8843     140250.61  0.022353 01 Technology                     0120 Electronics                                      0120476 Semiconductors & Components                      
20110429 466032109 US4660321096 JJSF     NASDAQ       J & J SNACK FOODS CO            766      38960.54  0.006210 04 Consumer Staples               0410 Food/Beverage & Tobacco                          0410494 Foods                                            
20110429 46612K108 US46612K1088 JDAS     NASDAQ       JDA SOFTWARE GROUP INC        35757    1171724.28  0.186749 01 Technology                     0130 Information Technology                           0130439 Computer Services Software & Systems             
20110429 46626E205 US46626E2054 JCOM     NASDAQ       J2 GLOBAL COMMUNICATIONS      13869     408581.68  0.065120 11 Utilities                      1110 Utilities                                        1110880 Utilities: Telecommunications                    
20110429 46629U107 US46629U1079 JMP      NYSE         JMP GROUP INC                 13706     117863.40  0.018785 10 Financial Services             1040 Investment Banking & Brokerage Services          1040544 Asset Management & Custodian                     
20110429 466367109 US4663671091 JACK     NASDAQ       JACK IN THE BOX INC            3769      77841.70  0.012406 03 Consumer Discretionary         0340 Leisure                                          0340810 Restaurants                                      
20110429 47012E106 US47012E1064 JAKK     NASDAQ       JAKKS PACIFIC INC             27901     587037.04  0.093562 03 Consumer Discretionary         0320 Consumer Products                                0320858 Toys                                             
20110429 470355207 US4703552079 JRCC     NASDAQ       JAMES RIVER COAL CO            6837     159448.42  0.025413 06 Energy                         0620 Non-Renewable Energy                             0620435 Coal                                             
20110429 472147107 US4721471070 JAZZ     NASDAQ       JAZZ PHARMACEUTICALS INC        820      26174.82  0.004172 02 Health Care                    0230 Pharmaceuticals & Biotech                        0230460 Pharmaceuticals                                  
20110429 477143101 US4771431016 JBLU     NASDAQ       JETBLUE AIRWAYS CORP         243976    1380904.16  0.220088 08 Producer Durables              0840 Transportation & Freight                         0840310 Air Transport                                    
20110429 479167108 US4791671088 JOUT     NASDAQ       JOHNSON OUTDOORS INC           4361      72348.99  0.011531 03 Consumer Discretionary         0340 Leisure                                          0340556 Leisure Time                                     
20110429 48020T101 US48020T1016 JNY      NYSE         THE JONES GROUP INC           87133    1187622.79  0.189283 03 Consumer Discretionary         0320 Consumer Products                                0320850 Textiles Apparel & Shoes                         
20110429 481130102 US4811301021 JRN      NYSE         JOURNAL COMMUNICATIONS        36384     198290.92  0.031604 03 Consumer Discretionary         0350 Media                                            0350740 Publishing                                       
20110429 482423100 US4824231009 KBW      NYSE         KBW INC                       11421     259507.48  0.041360 10 Financial Services             1040 Investment Banking & Brokerage Services          1040823 Securities Brokerage & Services                  
20110429 482564101 US4825641016 KMGB     NASDAQ       KMG CHEMICALS INC               886      18262.61  0.002911 07 Materials & Processing         0720 Chemicals and Synthetics                         0720433 Chemicals: Diversified                           
20110429 482686102 US4826861027 KSWS     NASDAQ       K-SWISS INC                   12861     158322.04  0.025233 03 Consumer Discretionary         0320 Consumer Products                                0320850 Textiles Apparel & Shoes                         
20110429 48282T104 US48282T1043 KAI      NYSE         KADANT INC                     9121     281373.10  0.044845 08 Producer Durables              0810 Machinery                                        0810584 Machinery: Industrial                            
20110429 483007704 US4830077040 KALU     NASDAQ       KAISER ALUMINUM CORP          15190     761170.90  0.121315 07 Materials & Processing         0740 Metals & Minerals                                0740320 Aluminum                                         
20110429 483056107 US4830561076 KFFG     NASDAQ       KAISER FEDERAL FIN GRP         2772      34816.32  0.005549 10 Financial Services             1010 Banks                                            1010820 Banks: Savings/Thrifts & Mortgage Lend           
20110429 483548103 US4835481031 KAMN     NASDAQ       KAMAN CORP                    12055     448450.65  0.071474 08 Producer Durables              0840 Transportation & Freight                         0840300 Aerospace                                        
20110429 484836101 US4848361014 KCLI     NASDAQ       KANSAS CITY LIFE INS CO        4173     133661.19  0.021303 10 Financial Services             1030 Insurance                                        1030528 Insurance: Life                                  
20110429 48562P103 US48562P1030 KS       NYSE         KAPSTONE PAPER & PACKAGI      38206     664020.28  0.105831 07 Materials & Processing         0730 Industrial Materials & Processes                 0730720 Paper                                            
20110429 48660Q102 US48660Q1022 KED      NYSE         KAYNE ANDERSON ENERGY         10216     200233.60  0.031913 10 Financial Services             1040 Investment Banking & Brokerage Services          1040544 Asset Management & Custodian                     
20110429 487169104 US4871691048 KRNY     NASDAQ       KEARNY FINANCIAL CORP         15136     144851.52  0.023086 10 Financial Services             1010 Banks                                            1010820 Banks: Savings/Thrifts & Mortgage Lend           
20110429 488152208 US4881522084 KELYA    NASDAQ       KELLY SERVICES INC            23618     451324.14  0.071932 08 Producer Durables              0850 Commercial Services                              0850365 Back Office Support HR & Consutling              
20110429 48880L107 US48880L1070 KNDL     NASDAQ       KENDLE INTERNATIONAL INC      14034     141040.86  0.022479 02 Health Care                    0220 Medical Equipment & Services                     0220622 Medical Services                                 
20110429 489398107 US4893981070 KW       NYSE         KENNEDY-WILSON HLDGS INC       1287      14741.78  0.002350 10 Financial Services             1050 Real Estate                                      1050805 Real Estate                                      
20110429 492914106 US4929141061 KEG      NYSE         KEY ENERGY SERVICES INC      118156    2150422.09  0.342733 06 Energy                         0610 Energy Equipment & Services                      0610600 Oil Well Equipment & Services                    
20110429 493308100 US4933081006 KEYN     NASDAQ       KEYNOTE SYSTEMS INC           11065     236117.63  0.037632 01 Technology                     0130 Information Technology                           0130439 Computer Services Software & Systems             
20110429 493723100 US4937231003 KEYW     NASDAQ       KEYW HOLDING CORP              2476      27715.62  0.004417 01 Technology                     0130 Information Technology                           0130439 Computer Services Software & Systems             
20110429 49375T100 US49375T1007 KID      NYSE         KID BRANDS INC                10099      73818.13  0.011765 03 Consumer Discretionary         0320 Consumer Products                                0320523 Household Furnishings                            
20110429 494274103 US4942741038 KBALB    NASDAQ       KIMBALL INTERNATIONAL         31328     234333.44  0.037348 08 Producer Durables              0820 Manufacturing & Production                       0820650 Office Supplies Equipment                        
20110429 49427F108 US49427F1084 KRC      NYSE         KILROY REALTY CORP            54316    2278013.04  0.363069 10 Financial Services             1050 Real Estate                                      1050806 Real Estate Investment Trusts (REITs)            
20110429 494580103 US4945801037 KND      NYSE         KINDRED HEALTHCARE INC        39482     995736.04  0.158700 02 Health Care                    0210 Health Care Services                             0210504 Health Care Facilities                           
20110429 49803T102 US49803T1025 KRG      NYSE         KITE REALTY GROUP TRUST       54232     282006.40  0.044946 10 Financial Services             1050 Real Estate                                      1050806 Real Estate Investment Trusts (REITs)            
20110429 499005106 US4990051066 KCG      NYSE         KNIGHT CAPITAL GROUP INC     101322    1390137.84  0.221560 10 Financial Services             1040 Investment Banking & Brokerage Services          1040823 Securities Brokerage & Services                  
20110429 499183804 US4991838040 KNOL     NASDAQ       KNOLOGY INC                    2593      39543.40  0.006302 03 Consumer Discretionary         0350 Media                                            0350432 Cable Television Services                        
20110429 499184109 US4991841093 KNOT     NASDAQ       KNOT INC                      13039     133137.71  0.021219 03 Consumer Discretionary         0330 Consumer Services                                0330638 Consumer Services: Misc                          
20110429 50015Q100 CA50015Q1000 KOG      NYSE AMEX    KODIAK OIL & GAS CORP          9051      63539.96  0.010127 06 Energy                         0620 Non-Renewable Energy                             0620670 Oil: Crude Producers                             
20110429 500600101 US5006001011 KOPN     NASDAQ       KOPIN CORP                    41561     199904.91  0.031861 01 Technology                     0120 Electronics                                      0120476 Semiconductors & Components                      
20110429 500643200 US5006432000 KFY      NYSE         KORN FERRY INTERNATIONAL      43383     898456.03  0.143196 08 Producer Durables              0850 Commercial Services                              0850365 Back Office Support HR & Consutling              
20110429 50077B207 US50077B2079 KTOS     NASDAQ       KRATOS DEFENSE & SEC SOL      22926     313398.42  0.049949 08 Producer Durables              0840 Transportation & Freight                         0840300 Aerospace                                        
20110429 50077C106 US50077C1062 KRA      NYSE         KRATON PERF POLYMERS           1684      77763.44  0.012394 07 Materials & Processing         0720 Chemicals and Synthetics                         0720833 Chemicals: Specialty                             
20110429 502079106 US5020791068 LMIA     NASDAQ       LMI AEROSPACE INC              8826     176961.30  0.028204 08 Producer Durables              0840 Transportation & Freight                         0840300 Aerospace                                        
20110429 50212A106 US50212A1060 ID       NYSE         L-1 IDENTITY SOLUTIONS        76802     900887.46  0.143583 08 Producer Durables              0830 Scientific Instruments & Services                0830524 Scientific Instruments: Control & Filter         
20110429 50216C108 US50216C1080 LYTS     NASDAQ       LSI INDUSTRIES INC            18925     156888.25  0.025005 07 Materials & Processing         0710 Building Materials & Services                    0710430 Building Materials                               
20110429 502175102 US5021751020 LTC      NYSE         LTC PROPERTIES INC            24966     734491.04  0.117063 10 Financial Services             1050 Real Estate                                      1050806 Real Estate Investment Trusts (REITs)            
20110429 502470107 US5024701071 LB       NYSE AMEX    LABARGE INC                    2064      39512.16  0.006297 01 Technology                     0120 Electronics                                      0120643 Technology: Misc                                 
20110429 505336107 US5053361078 LZB      NYSE         LA Z BOY INC                  45928     540107.24  0.086082 03 Consumer Discretionary         0320 Consumer Products                                0320523 Household Furnishings                            
20110429 505447102 US5054471025 LAB      NYSE         LABRANCHE & CO INC            37167     149783.01  0.023872 10 Financial Services             1040 Investment Banking & Brokerage Services          1040823 Securities Brokerage & Services                  
20110429 505597104 US5055971049 LG       NYSE         LACLEDE GROUP INC             22281     854921.97  0.136257 11 Utilities                      1110 Utilities                                        1110875 Utilities: Gas Distributors                      
20110429 505754200 US5057542004 LDSH     NASDAQ       LADISH INC                    15703     890360.10  0.141905 08 Producer Durables              0840 Transportation & Freight                         0840300 Aerospace                                        
20110429 511637100 US5116371007 LBAI     NASDAQ       LAKELAND BANCORP INC          21576     230647.44  0.036760 10 Financial Services             1010 Banks                                            1010400 Banks: Diversified                               
20110429 511656100 US5116561003 LKFN     NASDAQ       LAKELAND FINANCIAL CORP       16108     352926.28  0.056249 10 Financial Services             1010 Banks                                            1010400 Banks: Diversified                               
20110429 514766104 US5147661046 LNDC     NASDAQ       LANDEC CORP                   22055     142910.05  0.022777 07 Materials & Processing         0720 Chemicals and Synthetics                         0720433 Chemicals: Diversified                           
20110429 516012101 US5160121019 LCI      NYSE AMEX    LANNETT CO INC                 8179      47188.79  0.007521 02 Health Care                    0230 Pharmaceuticals & Biotech                        0230460 Pharmaceuticals                                  
20110429 517942108 US5179421087 LHO      NYSE         LASALLE HOTEL PROPERTIES      75748    2131548.72  0.339725 10 Financial Services             1050 Real Estate                                      1050806 Real Estate Investment Trusts (REITs)            
20110429 520776105 US5207761058 LAWS     NASDAQ       LAWSON PRODUCTS INC            4056      89353.68  0.014241 07 Materials & Processing         0740 Metals & Minerals                                0740630 Metal Fabricating                                
20110429 521050104 US5210501046 LAYN     NASDAQ       LAYNE CHRISTENSEN CO          19560     582105.60  0.092776 08 Producer Durables              0850 Commercial Services                              0850479 Engineering & Contracting Services               
20110429 52186N106 US52186N1063 LF       NYSE         LEAPFROG ENTERPRISES INC       5610      23956.70  0.003818 03 Consumer Discretionary         0320 Consumer Products                                0320858 Toys                                             
20110429 528872104 US5288721047 LXRX     NASDAQ       LEXICON PHARMACEUTICALS      130890     219894.05  0.035047 02 Health Care                    0230 Pharmaceuticals & Biotech                        0230412 Biotechnology                                    
20110429 529043101 US5290431015 LXP      NYSE         LEXINGTON REALTY TRUST       105670    1054586.60  0.168080 10 Financial Services             1050 Real Estate                                      1050806 Real Estate Investment Trusts (REITs)            
20110429 529898108 US5298981086 LBY      NYSE AMEX    LIBBEY INC                    19679     335526.95  0.053476 03 Consumer Discretionary         0320 Consumer Products                                0320521 Household Equip & Products                       
20110429 53215T106 US53215T1060 LPHI     NASDAQ       LIFE PARTNERS HOLDINGS          995       6981.49  0.001113 10 Financial Services             1030 Insurance                                        1030528 Insurance: Life                                  
20110429 53217R207 US53217R2076 LTM      NYSE         LIFE TIME FITNESS INC          4718     184571.64  0.029417 03 Consumer Discretionary         0340 Leisure                                          0340556 Leisure Time                                     
20110429 53222Q103 US53222Q1031 LCUT     NASDAQ       LIFETIME BRANDS INC            9252     147291.84  0.023475 03 Consumer Discretionary         0320 Consumer Products                                0320523 Household Furnishings                            
20110429 53261M104 US53261M1045 LLNW     NASDAQ       LIMELIGHT NETWORKS INC         9268      59038.96  0.009410 01 Technology                     0130 Information Technology                           0130439 Computer Services Software & Systems             
20110429 532774106 US5327741063 TVL      NYSE         LIN TV CORP                   27985     149716.91  0.023862 03 Consumer Discretionary         0350 Media                                            0350760 Radio & TV Broadcasters                          
20110429 535919203 CA5359192039 LGF      NYSE         LIONS GATE ENTMNT CORP        19430     123189.71  0.019634 03 Consumer Discretionary         0350 Media                                            0350480 Entertainment                                    
20110429 536797103 US5367971034 LAD      NYSE         LITHIA MOTORS INC             19411     353085.07  0.056275 03 Consumer Discretionary         0360 Retail                                           0360834 Specialty Retail                                 
20110429 537008104 US5370081045 LFUS     NASDAQ       LITTELFUSE INC                 3134     194983.19  0.031076 08 Producer Durables              0830 Scientific Instruments & Services                0830465 Scientific Instruments: Electrical               
20110429 538034109 US5380341090 LYV      NYSE         LIVE NATION ENT INC          140698    1560340.82  0.248686 03 Consumer Discretionary         0350 Media                                            0350480 Entertainment                                    
20110429 540211109 US5402111091 LNET     NASDAQ       LODGENET INTERACTIVE          17311      60761.37  0.009684 03 Consumer Discretionary         0350 Media                                            0350480 Entertainment                                    
20110429 546347105 US5463471053 LPX      NYSE         LOUISIANA PACIFIC CORP       126808    1179314.40  0.187959 07 Materials & Processing         0710 Building Materials & Services                    0710430 Building Materials                               
20110429 550819106 US5508191062 LDL      NYSE         LYDALL INC                    17056     166296.00  0.026504 08 Producer Durables              0820 Manufacturing & Production                       0820453 Diversified Manufacturing Operations             
20110429 552541104 US5525411048 MFW      NYSE         M & F WORLDWIDE CORP          10052     252191.08  0.040194 08 Producer Durables              0850 Commercial Services                              0850486 Forms and Bulk Printing Services                 
20110429 55264U108 US55264U1088 MBFI     NASDAQ       MB FINANCIAL INC              52951    1095556.19  0.174609 10 Financial Services             1010 Banks                                            1010400 Banks: Diversified                               
20110429 55272X102 US55272X1028 MFA      NYSE         MFA FINANCIAL INC            346307    2763529.86  0.440450 10 Financial Services             1050 Real Estate                                      1050806 Real Estate Investment Trusts (REITs)            
20110429 55277J108 US55277J1088 MF       NYSE         MF GLOBAL HOLDINGS LTD       115810     973962.10  0.155230 10 Financial Services             1040 Investment Banking & Brokerage Services          1040823 Securities Brokerage & Services                  
20110429 55277P104 US55277P1049 MGEE     NASDAQ       MGE ENERGY INC                23114     971019.14  0.154761 11 Utilities                      1110 Utilities                                        1110870 Utilities: Electrical                            
20110429 552848103 US5528481030 MTG      NYSE         MGIC INVESTMENT CORP         200445    1735853.70  0.276660 10 Financial Services             1020 Consumer Finance & Credit Services               1020492 Consumer Lending                                 
20110429 55302G103 US55302G1031 MGPI     NASDAQ       MGP INGREDIENTS INC            9976      87085.43  0.013880 04 Consumer Staples               0410 Food/Beverage & Tobacco                          0410646 Fruit & Grain Processing                         
20110429 55305B101 US55305B1017 MHO      NYSE         M/I HOMES INC                 18523     246170.67  0.039235 03 Consumer Discretionary         0320 Consumer Products                                0320501 Homebuilding                                     
20110429 55306N104 US55306N1046 MKSI     NASDAQ       MKS INSTRUMENTS INC           29207     828881.92  0.132107 01 Technology                     0120 Electronics                                      0120738 Production Technology Equipment                  
20110429 553274101 US5532741015 MPG      NYSE         MPG OFFICE TRUST INC          48011     159876.63  0.025481 10 Financial Services             1050 Real Estate                                      1050806 Real Estate Investment Trusts (REITs)            
20110429 553829102 US5538291023 MVC      NYSE         MVC CAPITAL INC               22791     315193.80  0.050235 10 Financial Services             1040 Investment Banking & Brokerage Services          1040544 Asset Management & Custodian                     
20110429 55405W104 US55405W1045 MYRG     NASDAQ       MYR GROUP INC DEL             17004     423894.39  0.067560 08 Producer Durables              0850 Commercial Services                              0850479 Engineering & Contracting Services               
20110429 554153106 US5541531068 TUC      NYSE         MAC-GRAY CORP                 11680     197859.20  0.031535 08 Producer Durables              0850 Commercial Services                              0850484 Environmental Maint & Security Service           
20110429 559079207 US5590792074 MGLN     NASDAQ       MAGELLAN HEALTH SVCS INC      33337    1734190.74  0.276395 02 Health Care                    0210 Health Care Services                             0210503 Health Care Management Services                  
20110429 55973B102 US55973B1026 MHR      NYSE         MAGNUM HUNTER RES CORP         6010      49049.04  0.007817 06 Energy                         0620 Non-Renewable Energy                             0620670 Oil: Crude Producers                             
20110429 56035L104 US56035L1044 MAIN     NYSE         MAIN STREET CAPITAL CORP      18794     353515.14  0.056343 10 Financial Services             1040 Investment Banking & Brokerage Services          1040457 Diversified Financial Services                   
20110429 56062Y102 US56062Y1029 MSFG     NASDAQ       MAINSOURCE FINANCIAL GRP      20136     193909.68  0.030905 10 Financial Services             1010 Banks                                            1010400 Banks: Diversified                               
20110429 564563104 US5645631046 MANT     NASDAQ       MANTECH INTERNATIONAL          1888      82880.12  0.013209 01 Technology                     0130 Information Technology                           0130439 Computer Services Software & Systems             
20110429 56624R108 US56624R1086 MCHX     NASDAQ       MARCHEX INC                   19306     136300.36  0.021723 03 Consumer Discretionary         0350 Media                                            0350301 Advertising Agencies                             
20110429 566330106 US5663301068 MCS      NYSE         MARCUS CORP                   20367     225870.03  0.035999 03 Consumer Discretionary         0340 Leisure                                          0340514 Hotel/Motel                                      
20110429 567908108 US5679081084 HZO      NYSE         MARINEMAX INC                 22060     210893.60  0.033612 03 Consumer Discretionary         0360 Retail                                           0360834 Specialty Retail                                 
20110429 571157106 US5711571068 MRLN     NASDAQ       MARLIN BUSINESS SVCS           8566     104419.54  0.016642 08 Producer Durables              0840 Transportation & Freight                         0840808 Commercial Services: Rental & Leasing            
20110429 573075108 US5730751089 MRTN     NASDAQ       MARTEN TRANS LTD              13019     291088.03  0.046393 08 Producer Durables              0840 Transportation & Freight                         0840865 Truckers                                         
20110429 576323109 US5763231090 MTZ      NYSE         MASTEC INC                    53003    1202108.04  0.191591 08 Producer Durables              0850 Commercial Services                              0850479 Engineering & Contracting Services               
20110429 576690101 US5766901012 MTRN     NYSE         MATERION CORPORATION          18697     780758.16  0.124437 07 Materials & Processing         0740 Metals & Minerals                                0740635 Metals & Minerals: Diversified                   
20110429 576853105 US5768531056 MTRX     NASDAQ       MATRIX SERVICE CO             22210     321154.58  0.051185 06 Energy                         0610 Energy Equipment & Services                      0610600 Oil Well Equipment & Services                    
20110429 577776107 US5777761074 MAXY     NASDAQ       MAXYGEN INC                   28151     145255.68  0.023151 02 Health Care                    0230 Pharmaceuticals & Biotech                        0230412 Biotechnology                                    
20110429 579793100 US5797931004 MSSR     NASDAQ       MCCORMICK & SCHMICKS           8863      80914.31  0.012896 03 Consumer Discretionary         0340 Leisure                                          0340810 Restaurants                                      
20110429 58047P107 US58047P1075 MCGC     NASDAQ       MCG CAPITAL CORP              76554     505256.40  0.080528 10 Financial Services             1040 Investment Banking & Brokerage Services          1040544 Asset Management & Custodian                     
20110429 580589109 US5805891091 MGRC     NASDAQ       MCGRATH RENTCORP              14112     400612.14  0.063849 08 Producer Durables              0840 Transportation & Freight                         0840808 Commercial Services: Rental & Leasing            
20110429 58319P108 US58319P1084 MIG      NYSE         MEADOWBROOK INS GROUP         54212     555130.88  0.088477 10 Financial Services             1030 Insurance                                        1030542 Insurance: Property-Casualty                     
20110429 583421102 US5834211022 MEAS     NASDAQ       MEASUREMENT SPECIALTIES       14514     504796.92  0.080454 08 Producer Durables              0830 Scientific Instruments & Services                0830474 Scientific Instruments: Gauges & Meters          
20110429 583928106 US5839281061 TAXI     NASDAQ       MEDALLION FINANCIAL CORP      14851     137074.73  0.021847 10 Financial Services             1020 Consumer Finance & Credit Services               1020487 Commercial Finance & Mortgage Co                 
20110429 58404W109 US58404W1099 MDTH     NASDAQ       MEDCATH CORP                  20523     277265.73  0.044190 02 Health Care                    0210 Health Care Services                             0210504 Health Care Facilities                           
20110429 584404107 US5844041070 MEG      NYSE         MEDIA GENERAL INC             17434      93967.32  0.014976 03 Consumer Discretionary         0350 Media                                            0350740 Publishing                                       
20110429 58449C100 US58449C1009 MDMD     NASDAQ       MEDIAMIND TECH INC             1277      17734.53  0.002827 01 Technology                     0130 Information Technology                           0130439 Computer Services Software & Systems             
20110429 58449L100 US58449L1008 MDCI     NASDAQ       MEDICAL ACTION INDS INC       14327     124644.90  0.019866 02 Health Care                    0220 Medical Equipment & Services                     0220507 Medical & Dental Instruments & Supplies          
20110429 58463J304 US58463J3041 MPW      NYSE         MEDICAL PROPERTIES TRUST     111215    1372393.10  0.218731 10 Financial Services             1050 Real Estate                                      1050806 Real Estate Investment Trusts (REITs)            
20110429 584688105 US5846881051 MDCO     NASDAQ       MEDICINES CO                  23904     375304.73  0.059816 02 Health Care                    0230 Pharmaceuticals & Biotech                        0230460 Pharmaceuticals                                  
20110429 584690309 US5846903095 MRX      NYSE         MEDICIS PHARMACEUTICAL        60284    2137670.64  0.340701 02 Health Care                    0230 Pharmaceuticals & Biotech                        0230460 Pharmaceuticals                                  
20110429 58503F106 US58503F1066 MCC      NYSE         MEDLEY CAPITAL CORP            8356      97759.02  0.015581 10 Financial Services             1040 Investment Banking & Brokerage Services          1040544 Asset Management & Custodian                     
20110429 587118100 US5871181005 MW       NYSE         MENS WEARHOUSE INC            52628    1467794.92  0.233937 03 Consumer Discretionary         0360 Retail                                           0360834 Specialty Retail                                 
20110429 587200106 US5872001061 MENT     NASDAQ       MENTOR GRAPHICS CORP          63820     941335.32  0.150030 01 Technology                     0130 Information Technology                           0130439 Computer Services Software & Systems             
20110429 588448100 US5884481004 MBVT     NASDAQ       MERCHANTS BANCSHARES           4789     128824.10  0.020532 10 Financial Services             1010 Banks                                            1010400 Banks: Diversified                               
20110429 589378108 US5893781089 MRCY     NASDAQ       MERCURY COMPUTER SYSTEMS      25494     492275.82  0.078459 01 Technology                     0130 Information Technology                           0130439 Computer Services Software & Systems             
20110429 58964Q104 US58964Q1040 EBSB     NASDAQ       MERIDIAN INTERSTATE            9091     126910.36  0.020227 10 Financial Services             1010 Banks                                            1010400 Banks: Diversified                               
20110429 589889104 US5898891040 MMSI     NASDAQ       MERIT MED SYSTEMS INC          2649      61788.16  0.009848 02 Health Care                    0220 Medical Equipment & Services                     0220507 Medical & Dental Instruments & Supplies          
20110429 59001A102 US59001A1025 MTH      NYSE         MERITAGE HOMES CORP           32082     767080.62  0.122257 03 Consumer Discretionary         0320 Consumer Products                                0320501 Homebuilding                                     
20110429 590876306 US5908763064 MPR      NYSE         MET-PRO CORP                  13638     162151.79  0.025844 08 Producer Durables              0830 Scientific Instruments & Services                0830735 Scientific Instruments: Pollution Control        
20110429 591176102 US5911761022 MEA      NYSE AMEX    METALICO INC                  37524     237902.16  0.037917 08 Producer Durables              0830 Scientific Instruments & Services                0830735 Scientific Instruments: Pollution Control        
20110429 59132A104 US59132A1043 MUSA     NYSE         METALS USA HLDGS CORP          5434      92378.00  0.014723 07 Materials & Processing         0740 Metals & Minerals                                0740630 Metal Fabricating                                
20110429 591520200 US5915202007 MEI      NYSE         METHODE ELECTRS INC           15674     193738.95  0.030878 01 Technology                     0120 Electronics                                      0120463 Electronic Components                            
20110429 59161R101 US59161R1014 METR     NASDAQ       METRO BANCORP INC             13507     168837.50  0.026909 10 Financial Services             1010 Banks                                            1010400 Banks: Diversified                               
20110429 595137100 US5951371005 MSCC     NASDAQ       MICROSEMI CORP                51466    1214587.69  0.193580 01 Technology                     0120 Electronics                                      0120476 Semiconductors & Components                      
20110429 59522J103 US59522J1034 MAA      NYSE         MID-AMER APT CMNTYS           13714     916792.67  0.146118 10 Financial Services             1050 Real Estate                                      1050806 Real Estate Investment Trusts (REITs)            
20110429 596680108 US5966801087 MSEX     NASDAQ       MIDDLESEX WATER CO            15293     288731.84  0.046018 11 Utilities                      1110 Utilities                                        1110882 Utilities: Water                                 
20110429 598039105 US5980391057 MSL      NYSE AMEX    MIDSOUTH BANCORP INC           7488     106030.08  0.016899 10 Financial Services             1010 Banks                                            1010400 Banks: Diversified                               
20110429 598511103 US5985111039 MOFG     NASDAQ       MIDWESTONE FINL GROUP          6899     101346.31  0.016153 10 Financial Services             1040 Investment Banking & Brokerage Services          1040457 Diversified Financial Services                   
20110429 600527105 US6005271050 MILL     NYSE         MILLER ENERGY RES INC         21437     123691.49  0.019714 06 Energy                         0620 Non-Renewable Energy                             0620670 Oil: Crude Producers                             
20110429 600551204 US6005512040 MLR      NYSE         MILLER INDUSTRIES INC         10113     159987.66  0.025499 08 Producer Durables              0840 Transportation & Freight                         0840350 Commercial Vehicles & Parts                      
20110429 602720104 US6027201044 MSA      NYSE         MINE SAFETY APPLIANCES         7032     279041.86  0.044474 08 Producer Durables              0830 Scientific Instruments & Services                0830524 Scientific Instruments: Control & Filter         
20110429 603158106 US6031581068 MTX      NYSE         MINERALS TECHNOLOGIES         17313    1177218.52  0.187625 07 Materials & Processing         0740 Metals & Minerals                                0740635 Metals & Minerals: Diversified                   
20110429 605203108 US6052031084 MSW      NASDAQ       MISSION WEST PROPERTIES       17793     136650.24  0.021779 10 Financial Services             1050 Real Estate                                      1050806 Real Estate Investment Trusts (REITs)            
20110429 60740F105 US60740F1057 MINI     NASDAQ       MOBILE MINI INC               36377     906151.07  0.144422 08 Producer Durables              0840 Transportation & Freight                         0840808 Commercial Services: Rental & Leasing            
20110429 607828100 US6078281002 MOD      NYSE         MODINE MANUFACTURING CO       46262     823926.22  0.131317 08 Producer Durables              0840 Transportation & Freight                         0840350 Commercial Vehicles & Parts                      
20110429 60786L107 US60786L1070 MLNK     NASDAQ       MODUSLINK GLB SOLUTIONS       41725     218638.73  0.034847 01 Technology                     0130 Information Technology                           0130439 Computer Services Software & Systems             
20110429 60855R100 US60855R1005 MOH      NYSE         MOLINA HEALTHCARE INC          6488     278992.43  0.044466 02 Health Care                    0210 Health Care Services                             0210503 Health Care Management Services                  
20110429 608753109 US6087531090 MCP      NYSE         MOLYCORP INC                  14299    1048057.47  0.167039 07 Materials & Processing         0740 Metals & Minerals                                0740635 Metals & Minerals: Diversified                   
20110429 609027107 US6090271072 MCRI     NASDAQ       MONARCH CASINO & RESORT        6433      73717.69  0.011749 03 Consumer Discretionary         0340 Leisure                                          0340434 Casinos & Gambling                               
20110429 60935Y109 US60935Y1091 MGI      NYSE         MONEYGRAM INTERNATIONAL        8820      34927.39  0.005567 10 Financial Services             1020 Consumer Finance & Credit Services               1020492 Consumer Lending                                 
20110429 609720107 US6097201072 MNR      NYSE         MONMOUTH REAL ESTATE          28142     235267.12  0.037497 10 Financial Services             1050 Real Estate                                      1050806 Real Estate Investment Trusts (REITs)            
20110429 615394202 US6153942023 MOG.A    NYSE         MOOG INC                      45367    2001592.04  0.319013 08 Producer Durables              0840 Transportation & Freight                         0840300 Aerospace                                        
20110429 61748W108 US61748W1080 MHGC     NASDAQ       MORGANS HOTEL GROUP CO        14014     121218.06  0.019320 03 Consumer Discretionary         0340 Leisure                                          0340514 Hotel/Motel                                      
20110429 620107102 US6201071023 MOTR     NASDAQ       MOTRICITY INC                  1323      17678.65  0.002818 01 Technology                     0130 Information Technology                           0130439 Computer Services Software & Systems             
20110429 624580106 US6245801062 MOV      NYSE         MOVADO GROUP INC              15549     259512.81  0.041361 03 Consumer Discretionary         0320 Consumer Products                                0320547 Luxury Items                                     
20110429 624756102 US6247561029 MLI      NYSE         MUELLER INDUSTRIES INC        32600    1275282.86  0.203254 07 Materials & Processing         0740 Metals & Minerals                                0740630 Metal Fabricating                                
20110429 624758108 US6247581084 MWA      NYSE         MUELLER WTR PRODS INC         10194      44856.64  0.007149 07 Materials & Processing         0740 Metals & Minerals                                0740630 Metal Fabricating                                
20110429 625383104 US6253831043 LABL     NASDAQ       MULTI COLOR CORP              10617     219331.19  0.034957 08 Producer Durables              0850 Commercial Services                              0850486 Forms and Bulk Printing Services                 
20110429 62541B101 US62541B1017 MFLX     NASDAQ       MULTI-FINELINE ELECTRON        1223      32581.81  0.005193 01 Technology                     0120 Electronics                                      0120463 Electronic Components                            
20110429 625453105 US6254531055 MGAM     NASDAQ       MULTIMEDIA GAMES HLD CO       24194     142014.44  0.022634 03 Consumer Discretionary         0340 Leisure                                          0340434 Casinos & Gambling                               
20110429 628464109 US6284641098 MYE      NYSE         MYERS INDUSTRIES INC          35306     376715.02  0.060041 07 Materials & Processing         0730 Industrial Materials & Processes                 0730442 Containers & Packaging                           
20110429 628778102 US6287781024 NBTB     NASDAQ       NBT BANCORP INC               34460     778796.00  0.124124 10 Financial Services             1010 Banks                                            1010400 Banks: Diversified                               
20110429 628968109 US6289681099 NASB     NASDAQ       NASB FINANCIAL INC             3501      54020.43  0.008610 10 Financial Services             1010 Banks                                            1010400 Banks: Diversified                               
20110429 62912R107 US62912R1077 NGPC     NASDAQ       NGP CAPITAL RESOURCES         21628     204168.32  0.032540 10 Financial Services             1040 Investment Banking & Brokerage Services          1040544 Asset Management & Custodian                     
20110429 629156407 US6291564077 NL       NYSE         NL INDUSTRIES INC              4684      66689.00  0.010629 07 Materials & Processing         0730 Industrial Materials & Processes                 0730452 Diversified Materials & Processing               
20110429 629579103 US6295791031 NC       NYSE         NACCO INDUSTRIES INC            445      46841.77  0.007466 08 Producer Durables              0810 Machinery                                        0810577 Machinery: Construction & Handling               
20110429 63080P105 US63080P1057 NARA     NASDAQ       NARA BANCORP INC              37957     373117.31  0.059467 10 Financial Services             1010 Banks                                            1010400 Banks: Diversified                               
20110429 631158102 US6311581028 NAFC     NASDAQ       NASH FINCH CO                 12568     467780.96  0.074555 04 Consumer Staples               0420 Personal Care/Drug & Grocery Stores              0420459 Drug & Grocery Store Chains                      
20110429 634865109 US6348651091 NKSH     NASDAQ       NATIONAL BANKSHARES INC        6933     197105.19  0.031415 10 Financial Services             1010 Banks                                            1010400 Banks: Diversified                               
20110429 635906100 US6359061008 NHC      NYSE AMEX    NATIONAL HEALTHCARE CORP       8977     417071.42  0.066473 02 Health Care                    0210 Health Care Services                             0210504 Health Care Facilities                           
20110429 63607P208 US63607P2083 NFP      NYSE         NATIONAL FINL PARTNERS        42672     686592.48  0.109429 10 Financial Services             1040 Investment Banking & Brokerage Services          1040544 Asset Management & Custodian                     
20110429 63633D104 US63633D1046 NHI      NYSE         NATIONAL HEALTH INVS INC      13949     678337.88  0.108113 10 Financial Services             1050 Real Estate                                      1050806 Real Estate Investment Trusts (REITs)            
20110429 63654U100 US63654U1007 NATL     NASDAQ       NATIONAL INTERSTATE CORP       6568     147714.32  0.023543 10 Financial Services             1030 Insurance                                        1030542 Insurance: Property-Casualty                     
20110429 637138108 US6371381087 NPBC     NASDAQ       NATIONAL PENN BANCSHARES     126019    1034615.99  0.164897 10 Financial Services             1010 Banks                                            1010400 Banks: Diversified                               
20110429 637417106 US6374171063 NNN      NYSE         NATIONAL RETAIL PPTYS         83311    2194411.74  0.349744 10 Financial Services             1050 Real Estate                                      1050806 Real Estate Investment Trusts (REITs)            
20110429 638522102 US6385221022 NWLI     NASDAQ       NATIONAL WESTRN LIFE INS       2200     354354.00  0.056477 10 Financial Services             1030 Insurance                                        1030528 Insurance: Life                                  
20110429 63886Q109 US63886Q1094 NGS      NYSE         NATURAL GAS SERVICES GRP      12103     218217.09  0.034779 06 Energy                         0610 Energy Equipment & Services                      0610600 Oil Well Equipment & Services                    
20110429 638904102 US6389041020 NAVG     NASDAQ       NAVIGATORS GROUP INC          12166     630563.78  0.100499 10 Financial Services             1030 Insurance                                        1030542 Insurance: Property-Casualty                     
20110429 63935N107 US63935N1072 NCI      NYSE         NAVIGANT CONSULTING INC       38912     453317.81  0.072250 08 Producer Durables              0850 Commercial Services                              0850365 Back Office Support HR & Consutling              
20110429 640079109 US6400791090 NP       NYSE         NEENAH PAPER INC               7458     173994.44  0.027731 07 Materials & Processing         0730 Industrial Materials & Processes                 0730720 Paper                                            
20110429 64031N108 US64031N1081 NNI      NYSE         NELNET INC                    24098     554970.54  0.088451 10 Financial Services             1020 Consumer Finance & Credit Services               1020492 Consumer Lending                                 
20110429 64051T100 US64051T1007 NPTN     NYSE         NEOPHOTONICS CORP              3121      33841.27  0.005394 01 Technology                     0140 Telecommunication                                0140448 Communications Technology                        
20110429 64118V106 US64118V1061 NTSP     NASDAQ       NETSPEND HOLDINGS INC         14987     174004.48  0.027733 10 Financial Services             1020 Consumer Finance & Credit Services               1020492 Consumer Lending                                 
20110429 646025106 US6460251068 NJR      NYSE         NEW JERSEY RESOURCES          41296    1807938.88  0.288149 11 Utilities                      1110 Utilities                                        1110875 Utilities: Gas Distributors                      
20110429 649295102 US6492951024 NWY      NYSE         NEW YORK & CO INC             23483     144183.34  0.022980 03 Consumer Discretionary         0360 Retail                                           0360834 Specialty Retail                                 
20110429 65105M108 US65105M1080 NCT      NYSE         NEWCASTLE INVT CORP           77027     486040.37  0.077465 10 Financial Services             1050 Real Estate                                      1050806 Real Estate Investment Trusts (REITs)            
20110429 651718504 US6517185046 NR       NYSE         NEWPARK RESOURCES INC         82851     748141.11  0.119238 06 Energy                         0610 Energy Equipment & Services                      0610600 Oil Well Equipment & Services                    
20110429 651824104 US6518241046 NEWP     NASDAQ       NEWPORT CORP                  25455     476763.38  0.075986 01 Technology                     0120 Electronics                                      0120475 Electronics                                      
20110429 65251F105 US65251F1057 NEWS     NASDAQ       NEWSTAR FINANCIAL INC         25907     309577.27  0.049340 10 Financial Services             1020 Consumer Finance & Credit Services               1020487 Commercial Finance & Mortgage Co                 
20110429 65336K103 US65336K1034 NXST     NASDAQ       NEXSTAR BROADCASTING GRP       8606      71769.45  0.011439 03 Consumer Discretionary         0350 Media                                            0350760 Radio & TV Broadcasters                          
20110429 654086107 US6540861076 GAS      NYSE         NICOR INC                     45271    2509371.53  0.399943 11 Utilities                      1110 Utilities                                        1110875 Utilities: Gas Distributors                      
20110429 65440K106 US65440K1060 NDN      NYSE         99 CENTS ONLY STORES           6618     133420.82  0.021265 03 Consumer Discretionary         0360 Retail                                           0360815 Diversified Retail                               
20110429 66611L105 US66611L1052 NFBK     NASDAQ       NORTHFIELD BANCORP INC        17961     252711.27  0.040277 10 Financial Services             1010 Banks                                            1010820 Banks: Savings/Thrifts & Mortgage Lend           
20110429 66704R100 US66704R1005 NRF      NYSE         NORTHSTAR REALTY FINANCE      75427     380906.35  0.060709 10 Financial Services             1050 Real Estate                                      1050806 Real Estate Investment Trusts (REITs)            
20110429 667340103 US6673401039 NWBI     NASDAQ       NORTHWEST BANCSHARES INC     110704    1393763.36  0.222137 10 Financial Services             1010 Banks                                            1010820 Banks: Savings/Thrifts & Mortgage Lend           
20110429 667655104 US6676551046 NWN      NYSE         NORTHWEST NATURAL GAS CO      26564    1228319.36  0.195769 11 Utilities                      1110 Utilities                                        1110875 Utilities: Gas Distributors                      
20110429 667746101 US6677461013 NWPX     NASDAQ       NORTHWEST PIPE CO              9240     222314.40  0.035432 07 Materials & Processing         0740 Metals & Minerals                                0740630 Metal Fabricating                                
20110429 668074305 US6680743050 NWE      NYSE         NORTHWESTERN CORP             36178    1177593.90  0.187684 11 Utilities                      1110 Utilities                                        1110870 Utilities: Electrical                            
20110429 66987M604 US66987M6049 NVTL     NASDAQ       NOVATEL WIRELESS INC          28101     174220.27  0.027767 01 Technology                     0140 Telecommunication                                0140448 Communications Technology                        
20110429 67059M100 US67059M1009 PATH     NASDAQ       NUPATHE INC                     687       5914.60  0.000943 02 Health Care                    0230 Pharmaceuticals & Biotech                        0230460 Pharmaceuticals                                  
20110429 67060Y101 US67060Y1010 NUTR     NASDAQ       NUTRACEUTICAL INTL CORP        9272     147053.92  0.023437 04 Consumer Staples               0410 Food/Beverage & Tobacco                          0410494 Foods                                            
20110429 67072V103 US67072V1035 NXTM     NASDAQ       NXSTAGE MEDICAL INC            2011      49575.34  0.007901 02 Health Care                    0220 Medical Equipment & Services                     0220471 Medical Equipment                                
20110429 67076P102 CA67076P1027 NYMX     NASDAQ       NYMOX PHARMACEUTICAL           2221      16861.64  0.002687 02 Health Care                    0230 Pharmaceuticals & Biotech                        0230412 Biotechnology                                    
20110429 670823103 US6708231039 CHUX     NASDAQ       O CHARLEYS INC                17909     117124.86  0.018667 03 Consumer Discretionary         0340 Leisure                                          0340810 Restaurants                                      
20110429 670872100 US6708721005 OMG      NYSE         OM GROUP INC                  30866    1118583.84  0.178279 07 Materials & Processing         0720 Chemicals and Synthetics                         0720433 Chemicals: Diversified                           
20110429 671044105 US6710441055 OSIS     NASDAQ       OSI SYSTEMS INC                4147     159240.49  0.025380 08 Producer Durables              0820 Manufacturing & Production                       0820453 Diversified Manufacturing Operations             
20110429 671074102 US6710741025 OYOG     NASDAQ       OYO GEOSPACE CORP               293      27422.08  0.004371 06 Energy                         0610 Energy Equipment & Services                      0610600 Oil Well Equipment & Services                    
20110429 674215108 US6742151086 OAS      NYSE         OASIS PETE INC                24391     749535.28  0.119461 06 Energy                         0620 Non-Renewable Energy                             0620670 Oil: Crude Producers                             
20110429 675234108 US6752341080 OCFC     NASDAQ       OCEANFIRST FINANCIAL          14511     210409.50  0.033535 10 Financial Services             1010 Banks                                            1010820 Banks: Savings/Thrifts & Mortgage Lend           
20110429 675746309 US6757463095 OCN      NYSE         OCWEN FINANCIAL CORP          74222     888437.34  0.141599 10 Financial Services             1010 Banks                                            1010820 Banks: Savings/Thrifts & Mortgage Lend           
20110429 67622P101 US67622P1012 OMX      NYSE         OFFICEMAX INC                 54115     538980.64  0.085903 03 Consumer Discretionary         0360 Retail                                           0360834 Specialty Retail                                 
20110429 677864100 US6778641000 ODC      NYSE         OIL DRI CORP OF AMERICA        4238      93595.51  0.014917 07 Materials & Processing         0740 Metals & Minerals                                0740635 Metals & Minerals: Diversified                   
20110429 679580100 US6795801009 ODFL     NASDAQ       OLD DOMINION FREIGHT           4052     151636.02  0.024168 08 Producer Durables              0840 Transportation & Freight                         0840865 Truckers                                         
20110429 680033107 US6800331075 ONB      NYSE         OLD NATIONAL BANCORP          93591     968666.85  0.154386 10 Financial Services             1010 Banks                                            1010400 Banks: Diversified                               
20110429 680665205 US6806652052 OLN      NYSE         OLIN CORP                     32966     848555.29  0.135242 07 Materials & Processing         0720 Chemicals and Synthetics                         0720433 Chemicals: Diversified                           
20110429 68162K106 US68162K1060 ZEUS     NASDAQ       OLYMPIC STEEL INC              9119     267825.03  0.042686 07 Materials & Processing         0740 Metals & Minerals                                0740835 Steel                                            
20110429 681936100 US6819361006 OHI      NYSE         OMEGA HEALTHCARE INVS         79382    1822595.29  0.290484 10 Financial Services             1050 Real Estate                                      1050806 Real Estate Investment Trusts (REITs)            
20110429 682128103 US6821281036 OVTI     NASDAQ       OMNIVISION TECHNOLOGIES       13133     441298.10  0.070334 01 Technology                     0120 Electronics                                      0120476 Semiconductors & Components                      
20110429 682159108 US6821591087 ASGN     NASDAQ       ON ASSIGNMENT INC             32559     357167.69  0.056925 08 Producer Durables              0850 Commercial Services                              0850365 Back Office Support HR & Consutling              
20110429 68216R107 US68216R1077 OABC     NASDAQ       OMNIAMERICAN BANCORP INC      11903     177949.85  0.028362 10 Financial Services             1010 Banks                                            1010820 Banks: Savings/Thrifts & Mortgage Lend           
20110429 682406103 US6824061039 OLP      NYSE         ONE LIBERTY PROPERTIES        10568     163909.68  0.026124 10 Financial Services             1050 Real Estate                                      1050806 Real Estate Investment Trusts (REITs)            
20110429 68243Q106 US68243Q1067 FLWS     NASDAQ       1-800 FLOWERS COM             24551      82244.54  0.013108 03 Consumer Discretionary         0360 Retail                                           0360834 Specialty Retail                                 
20110429 68273G101 US68273G1013 ORCC     NASDAQ       ONLINE RESOURCES CORP         17781      67923.04  0.010826 10 Financial Services             1020 Consumer Finance & Credit Services               1020489 Financial Data & Systems                         
20110429 68375Q403 US68375Q4038 OPLK     NASDAQ       OPLINK COMMUNICATIONS         11853     234676.63  0.037403 01 Technology                     0140 Telecommunication                                0140448 Communications Technology                        
20110429 68375V105 US68375V1052 OPXT     NASDAQ       OPNEXT INC                    43329     102256.44  0.016298 01 Technology                     0140 Telecommunication                                0140849 Telecommunications Equipment                     
20110429 683797104 US6837971042 OPY      NYSE         OPPENHEIMER HOLDINGS INC      10046     308512.66  0.049171 10 Financial Services             1040 Investment Banking & Brokerage Services          1040544 Asset Management & Custodian                     
20110429 685564106 US6855641063 ORB      NYSE         ORBITAL SCIENCES CORP         33995     640107.58  0.102020 08 Producer Durables              0840 Transportation & Freight                         0840300 Aerospace                                        
20110429 68618W100 PR68618W1001 OFG      NYSE         ORIENTAL FINANCIAL GROUP      46316     600255.36  0.095668 10 Financial Services             1010 Banks                                            1010400 Banks: Diversified                               
20110429 68633D103 US68633D1037 ORIT     NASDAQ       ORITANI FINANCIAL CORP        38504     472056.26  0.075236 10 Financial Services             1010 Banks                                            1010820 Banks: Savings/Thrifts & Mortgage Lend           
20110429 687380105 US6873801053 ORRF     NASDAQ       ORRSTOWN FINL SVCS INC         6711     182807.64  0.029136 10 Financial Services             1010 Banks                                            1010400 Banks: Diversified                               
20110429 689648103 US6896481032 OTTR     NASDAQ       OTTER TAIL CORP               33920     793045.11  0.126395 11 Utilities                      1110 Utilities                                        1110870 Utilities: Electrical                            
20110429 690027206 US6900272062 OUTD     NASDAQ       OUTDOOR CHANNEL HLDGS         11752      84026.80  0.013392 03 Consumer Discretionary         0350 Media                                            0350760 Radio & TV Broadcasters                          
20110429 690368105 US6903681053 OSG      NYSE         OVERSEAS SHIPHOLDNG GRP       25578     712603.08  0.113574 08 Producer Durables              0840 Transportation & Freight                         0840830 Shipping                                         
20110429 690732102 US6907321029 OMI      NYSE         OWENS & MINOR INC             13313     458648.94  0.073099 02 Health Care                    0220 Medical Equipment & Services                     0220507 Medical & Dental Instruments & Supplies          
20110429 693149106 US6931491061 PTSI     NASDAQ       P A M TRANSN SVCS INC          4594      52233.78  0.008325 08 Producer Durables              0840 Transportation & Freight                         0840865 Truckers                                         
20110429 69318J100 US69318J1007 PCCC     NASDAQ       P C CONNECTION                 9528      84608.64  0.013485 01 Technology                     0130 Information Technology                           0130449 Computer Technology                              
20110429 69325Q105 US69325Q1058 PCTI     NASDAQ       PC-TEL INC                    19079     139276.70  0.022198 01 Technology                     0140 Telecommunication                                0140448 Communications Technology                        
20110429 69329V100 US69329V1008 PDII     NASDAQ       PDI INC                        1712      14845.61  0.002366 08 Producer Durables              0850 Commercial Services                              0850365 Back Office Support HR & Consutling              
20110429 693320202 US6933202029 PHH      NYSE         PHH CORPORATION               55426    1189441.96  0.189573 08 Producer Durables              0840 Transportation & Freight                         0840808 Commercial Services: Rental & Leasing            
20110429 693366205 US6933662057 PICO     NASDAQ       PICO HOLDINGS INC             22596     725783.52  0.115675 10 Financial Services             1030 Insurance                                        1030535 Insurance: Multi-Line                            
20110429 69336T205 US69336T2050 PHIIK    NASDAQ       PHI INC                       13244     296400.72  0.047240 08 Producer Durables              0840 Transportation & Freight                         0840310 Air Transport                                    
20110429 69336V101 US69336V1017 PGTI     NASDAQ       PGT INC                       13252      32863.60  0.005238 07 Materials & Processing         0710 Building Materials & Services                    0710430 Building Materials                               
20110429 69344M101 US69344M1018 PMI      NYSE         PMI GROUP INC                142925     308718.00  0.049203 10 Financial Services             1030 Insurance                                        1030542 Insurance: Property-Casualty                     
20110429 69349H107 US69349H1077 PNM      NYSE         PNM RESOURCES INC             86673    1328697.09  0.211767 11 Utilities                      1110 Utilities                                        1110870 Utilities: Electrical                            
20110429 69360J107 US69360J1079 PSB      NYSE         PS BUSINESS PARKS INC         14924     899313.97  0.143332 10 Financial Services             1050 Real Estate                                      1050806 Real Estate Investment Trusts (REITs)            
20110429 69404D108 US69404D1081 PACB     NASDAQ       PACIFIC BIOSCIENCES CA         1824      22337.51  0.003560 02 Health Care                    0230 Pharmaceuticals & Biotech                        0230412 Biotechnology                                    
20110429 69412V108 US69412V1089 PCBK     NASDAQ       PACIFIC CONTINENTAL CORP      18394     175662.70  0.027997 10 Financial Services             1010 Banks                                            1010400 Banks: Diversified                               
20110429 694873100 US6948731004 PSUN     NASDAQ       PACIFIC SUNWEAR OF CALIF      66428     211905.32  0.033773 03 Consumer Discretionary         0360 Retail                                           0360834 Specialty Retail                                 
20110429 695263103 US6952631033 PACW     NASDAQ       PACWEST BANCORP               30716     706160.84  0.112548 10 Financial Services             1010 Banks                                            1010400 Banks: Diversified                               
20110429 695459107 US6954591078 PAET     NASDAQ       PAETEC HOLDING CORP           39907     143667.95  0.022898 11 Utilities                      1110 Utilities                                        1110880 Utilities: Telecommunications                    
20110429 697529303 US6975293035 PMTI     NASDAQ       PALOMAR MEDICAL TECH           7815     125131.95  0.019943 02 Health Care                    0220 Medical Equipment & Services                     0220471 Medical Equipment                                
20110429 698657103 US6986571031 PTRY     NASDAQ       PANTRY INC                    21004     325141.53  0.051821 04 Consumer Staples               0420 Personal Care/Drug & Grocery Stores              0420459 Drug & Grocery Store Chains                      
20110429 698813102 US6988131024 PZZA     NASDAQ       PAPA JOHNS INTERNATIONAL       4279     128645.02  0.020503 03 Consumer Discretionary         0340 Leisure                                          0340810 Restaurants                                      
20110429 69888P106 US69888P1066 PRX      NYSE         PAR PHARMACEUTICAL COS        35062    1207535.28  0.192456 02 Health Care                    0230 Pharmaceuticals & Biotech                        0230460 Pharmaceuticals                                  
20110429 700416209 US7004162092 PKE      NYSE         PARK ELECTROCHEMICAL           7836     250517.78  0.039927 01 Technology                     0120 Electronics                                      0120463 Electronic Components                            
20110429 700658107 US7006581075 PRK      NYSE AMEX    PARK NATIONAL CORP            12486     862532.88  0.137470 10 Financial Services             1010 Banks                                            1010400 Banks: Diversified                               
20110429 701081101 US7010811013 PKD      NYSE         PARKER DRILLING CO           116004     827108.52  0.131824 06 Energy                         0610 Energy Equipment & Services                      0610600 Oil Well Equipment & Services                    
20110429 70159Q104 US70159Q1040 PKY      NYSE         PARKWAY PROPERTIES INC        21569     386732.17  0.061637 10 Financial Services             1050 Real Estate                                      1050806 Real Estate Investment Trusts (REITs)            
20110429 70336T104 US70336T1043 PCX      NYSE         PATRIOT COAL CORP             78143    1967640.74  0.313602 06 Energy                         0620 Non-Renewable Energy                             0620435 Coal                                             
20110429 70337B102 US70337B1026 PATR     NASDAQ       PATRIOT TRANSPORTATION         4087     103030.37  0.016421 08 Producer Durables              0840 Transportation & Freight                         0840865 Truckers                                         
20110429 704699107 US7046991078 PGC      NASDAQ       PEAPACK-GLADSTONE FINL         8782     116712.78  0.018602 10 Financial Services             1010 Banks                                            1010400 Banks: Diversified                               
20110429 70509V100 US70509V1008 PEB      NYSE         PEBBLEBROOK HOTEL TRUST       37020     794079.00  0.126560 10 Financial Services             1050 Real Estate                                      1050806 Real Estate Investment Trusts (REITs)            
20110429 707882106 US7078821060 PVA      NYSE         PENN VIRGINIA CORP            45453     702703.38  0.111997 06 Energy                         0620 Non-Renewable Energy                             0620670 Oil: Crude Producers                             
20110429 708062104 US7080621045 PNNT     NASDAQ       PENNANTPARK INVT CORP         44224     545724.16  0.086977 10 Financial Services             1040 Investment Banking & Brokerage Services          1040544 Asset Management & Custodian                     
20110429 708430103 US7084301032 PWOD     NASDAQ       PENNS WOODS BANCORP INC        3835     144924.65  0.023098 10 Financial Services             1010 Banks                                            1010400 Banks: Diversified                               
20110429 709102107 US7091021078 PEI      NYSE         PENNSYLVANIA REAL ESTATE      55304     873250.16  0.139178 10 Financial Services             1050 Real Estate                                      1050806 Real Estate Investment Trusts (REITs)            
20110429 70931T103 US70931T1034 PMT      NYSE         PENNYMAC MORTGAGE INV         27763     508618.16  0.081063 10 Financial Services             1050 Real Estate                                      1050806 Real Estate Investment Trusts (REITs)            
20110429 70959W103 US70959W1036 PAG      NYSE         PENSKE AUTOMOTIVE GROUP       27510     618420.66  0.098564 03 Consumer Discretionary         0360 Retail                                           0360834 Specialty Retail                                 
20110429 709600100 US7096001000 PNSN     NASDAQ       PENSON WORLDWIDE INC          20439     124064.73  0.019773 10 Financial Services             1040 Investment Banking & Brokerage Services          1040823 Securities Brokerage & Services                  
20110429 709789101 US7097891011 PEBO     NASDAQ       PEOPLES BANCORP INC           10514     143305.82  0.022840 10 Financial Services             1010 Banks                                            1010400 Banks: Diversified                               
20110429 713278109 US7132781094 PBY      NYSE         PEP BOYS MANNY MOE&J          52451     718578.70  0.114527 03 Consumer Discretionary         0360 Retail                                           0360834 Specialty Retail                                 
20110429 71375U101 US71375U1016 PRFT     NASDAQ       PERFICIENT INC                 6770      84566.98  0.013478 01 Technology                     0130 Information Technology                           0130439 Computer Services Software & Systems             
20110429 713831105 US7138311052 PSEM     NASDAQ       PERICOM SEMICONDUCTOR         22411     203709.48  0.032467 01 Technology                     0120 Electronics                                      0120476 Semiconductors & Components                      
20110429 716578109 US7165781094 PETD     NASDAQ       PETROLEUM DEV CORP            23413     932305.66  0.148590 06 Energy                         0620 Non-Renewable Energy                             0620670 Oil: Crude Producers                             
20110429 716748108 US7167481081 PQ       NYSE         PETROQUEST ENERGY INC         42504     372335.04  0.059343 06 Energy                         0620 Non-Renewable Energy                             0620670 Oil: Crude Producers                             
20110429 71714F104 US71714F1049 PMC      NYSE         PHARMERICA CORP               18878     248425.53  0.039594 02 Health Care                    0210 Health Care Services                             0210499 Health Care Services                             
20110429 71902E109 US71902E1091 PNX      NYSE         PHOENIX COMPANIES INC        116000     312040.00  0.049733 10 Financial Services             1030 Insurance                                        1030528 Insurance: Life                                  
20110429 719405102 US7194051022 PLAB     NASDAQ       PHOTRONICS INC                53405     466225.65  0.074307 01 Technology                     0120 Electronics                                      0120738 Production Technology Equipment                  
20110429 720186105 US7201861058 PNY      NYSE         PIEDMONT NAT GAS INC          71741    2277776.75  0.363031 11 Utilities                      1110 Utilities                                        1110875 Utilities: Gas Distributors                      
20110429 721283109 US7212831090 PIKE     NYSE         PIKE ELECTRIC CORP            16396     166583.36  0.026550 11 Utilities                      1110 Utilities                                        1110870 Utilities: Electrical                            
20110429 72147K108 US72147K1088 PPC      NYSE         PILGRIMS PRIDE CORP NEW       27289     160454.39  0.025573 04 Consumer Staples               0410 Food/Beverage & Tobacco                          0410305 Agriculture Fishing & Ranching                   
20110429 723443107 US7234431077 PNCL     NASDAQ       PINNACLE AIRL CORP            18572     101217.40  0.016132 08 Producer Durables              0840 Transportation & Freight                         0840310 Air Transport                                    
20110429 723456109 US7234561097 PNK      NYSE         PINNACLE ENTMT INC            56906     789851.39  0.125886 03 Consumer Discretionary         0340 Leisure                                          0340434 Casinos & Gambling                               
20110429 72346Q104 US72346Q1040 PNFP     NASDAQ       PINNACLE FINANCIAL            33358     536063.06  0.085438 10 Financial Services             1010 Banks                                            1010400 Banks: Diversified                               
20110429 723655106 US7236551062 PDC      NYSE AMEX    PIONEER DRILLING CO           54109     838689.50  0.133670 06 Energy                         0610 Energy Equipment & Services                      0610600 Oil Well Equipment & Services                    
20110429 724078100 US7240781002 PJC      NYSE         PIPER JAFFRAY COMPANIES       14653     525310.05  0.083724 10 Financial Services             1040 Investment Banking & Brokerage Services          1040457 Diversified Financial Services                   
20110429 73179P106 US73179P1066 POL      NYSE         POLYONE CORP                  27918     404253.38  0.064430 07 Materials & Processing         0720 Chemicals and Synthetics                         0720433 Chemicals: Diversified                           
20110429 736233107 US7362331073 PBIB     NASDAQ       PORTER BANCORP INC             3968      31466.24  0.005015 10 Financial Services             1010 Banks                                            1010400 Banks: Diversified                               
20110429 736508847 US7365088472 POR      NYSE         PORTLAND GEN ELEC CO          75276    1878888.96  0.299457 11 Utilities                      1110 Utilities                                        1110870 Utilities: Electrical                            
20110429 737464107 US7374641071 PPS      NYSE         POST PROPERTIES INC           48605    1973363.00  0.314514 10 Financial Services             1050 Real Estate                                      1050806 Real Estate Investment Trusts (REITs)            
20110429 737630103 US7376301039 PCH      NASDAQ       POTLATCH CORP                 19137     740429.37  0.118009 10 Financial Services             1050 Real Estate                                      1050806 Real Estate Investment Trusts (REITs)            
20110429 739128106 US7391281067 POWL     NASDAQ       POWELL INDUSTRIES INC          8834     349119.68  0.055643 08 Producer Durables              0820 Manufacturing & Production                       0820734 Power Transmission Equip                         
20110429 739363109 US7393631095 PWAV     NASDAQ       POWERWAVE TECHNOLOGIES       168865     771713.05  0.122995 01 Technology                     0140 Telecommunication                                0140849 Telecommunications Equipment                     
20110429 740444104 US7404441047 PLPC     NASDAQ       PREFORMED LINE PRODUCTS        1989     142875.16  0.022771 08 Producer Durables              0830 Scientific Instruments & Services                0830465 Scientific Instruments: Electrical               
20110429 740585104 US7405851046 PGI      NYSE         PREMIERE GLOBAL SERVICES      52282     413550.62  0.065912 11 Utilities                      1110 Utilities                                        1110880 Utilities: Telecommunications                    
20110429 740884101 US7408841010 PLFE     NASDAQ       PRESIDENTIAL LIFE CORP        20672     230286.08  0.036703 10 Financial Services             1030 Insurance                                        1030528 Insurance: Life                                  
20110429 74112D101 US74112D1019 PBH      NYSE         PRESTIGE BRANDS HOLDINGS      41825     483078.75  0.076993 02 Health Care                    0230 Pharmaceuticals & Biotech                        0230460 Pharmaceuticals                                  
20110429 74157K846 US74157K8466 PRM      NYSE         PRIMEDIA INC                  11698      57318.73  0.009135 03 Consumer Discretionary         0350 Media                                            0350740 Publishing                                       
20110429 74164F103 US74164F1030 PRIM     NASDAQ       PRIMORIS SVCS CORP            19334     227754.10  0.036299 08 Producer Durables              0820 Manufacturing & Production                       0820443 Construction                                     
20110429 74164M108 US74164M1080 PRI      NYSE         PRIMERICA INC                 24070     556498.40  0.088694 10 Financial Services             1030 Insurance                                        1030528 Insurance: Life                                  
20110429 74165N105 US74165N1054 PRMW     NASDAQ       PRIMO WATER CORP               4197      63128.20  0.010061 04 Consumer Staples               0410 Food/Beverage & Tobacco                          0410410 Beverage: Soft Drinks                            
20110429 74267C106 US74267C1062 PRA      NYSE         PROASSURANCE CORP             30722    2039940.80  0.325125 10 Financial Services             1030 Insurance                                        1030542 Insurance: Property-Casualty                     
20110429 742962103 US7429621037 PVTB     NASDAQ       PRIVATEBANCORP INC            52006     818574.44  0.130464 10 Financial Services             1010 Banks                                            1010400 Banks: Diversified                               
20110429 743187106 US7431871067 PGNX     NASDAQ       PROGENICS PHARMACEUTICAL       8051      59663.99  0.009509 02 Health Care                    0230 Pharmaceuticals & Biotech                        0230412 Biotechnology                                    
20110429 74348T102 US74348T1025 PSEC     NASDAQ       PROSPECT CAPITAL CORP         88200    1068102.00  0.170234 10 Financial Services             1040 Investment Banking & Brokerage Services          1040544 Asset Management & Custodian                     
20110429 743606105 US7436061052 PRSP     NASDAQ       PROSPERITY BANCSHARES         46618    2137435.30  0.340664 10 Financial Services             1010 Banks                                            1010400 Banks: Diversified                               
20110429 74386T105 US74386T1051 PFS      NYSE         PROVIDENT FINANCIAL SVCS      59924     870096.48  0.138676 10 Financial Services             1010 Banks                                            1010400 Banks: Diversified                               
20110429 744028101 US7440281019 PBNY     NASDAQ       PROVIDENT NY BANCORP          38861     364516.18  0.058096 10 Financial Services             1010 Banks                                            1010820 Banks: Savings/Thrifts & Mortgage Lend           
20110429 747316107 US7473161070 KWR      NYSE         QUAKER CHEMICAL CORP           3011     136038.79  0.021682 07 Materials & Processing         0720 Chemicals and Synthetics                         0720833 Chemicals: Specialty                             
20110429 74733T105 US74733T1051 QLIK     NASDAQ       QLIK TECHNOLOGIES INC          3156     101204.96  0.016130 01 Technology                     0130 Information Technology                           0130439 Computer Services Software & Systems             
20110429 74756M102 US74756M1027 QLTY     NASDAQ       QUALITY DISTRIBUTION INC       7361      87593.00  0.013961 08 Producer Durables              0840 Transportation & Freight                         0840865 Truckers                                         
20110429 747619104 US7476191041 NX       NYSE         QUANEX BUILDING PRODUCTS      29983     628438.31  0.100160 07 Materials & Processing         0710 Building Materials & Services                    0710430 Building Materials                               
20110429 747906204 US7479062041 QTM      NYSE         QUANTUM CORP                  20060      63792.71  0.010167 01 Technology                     0130 Information Technology                           0130449 Computer Technology                              
20110429 74834T103 US74834T1034 QSFT     NASDAQ       QUEST SOFTWARE INC             5574     143599.45  0.022887 01 Technology                     0130 Information Technology                           0130439 Computer Services Software & Systems             
20110429 74838C106 US74838C1062 ZQK      NYSE         QUIKSILVER INC               129588     563707.80  0.089844 03 Consumer Discretionary         0320 Consumer Products                                0320850 Textiles Apparel & Shoes                         
20110429 749227104 US7492271041 RAS      NYSE         RAIT FINANCIAL TRUST         111712     272577.28  0.043443 10 Financial Services             1050 Real Estate                                      1050806 Real Estate Investment Trusts (REITs)            
20110429 749607107 US7496071074 RLI      NYSE         RLI CORP                      18334    1086106.16  0.173103 10 Financial Services             1030 Insurance                                        1030542 Insurance: Property-Casualty                     
20110429 74972L102 US74972L1026 RRR      NYSE         RSC HOLDINGS INC              49225     648293.25  0.103325 08 Producer Durables              0840 Transportation & Freight                         0840808 Commercial Services: Rental & Leasing            
20110429 74973W107 US74973W1071 RTI      NYSE         RTI INTERNATIONAL METALS      26106     833824.62  0.132895 07 Materials & Processing         0740 Metals & Minerals                                0740630 Metal Fabricating                                
20110429 74975N105 US74975N1054 RTIX     NASDAQ       RTI BIOLOGICS INC             51591     149612.70  0.023845 02 Health Care                    0230 Pharmaceuticals & Biotech                        0230412 Biotechnology                                    
20110429 750236101 US7502361014 RDN      NYSE         RADIAN GROUP INC             132986     788606.98  0.125688 10 Financial Services             1030 Insurance                                        1030542 Insurance: Property-Casualty                     
20110429 75040P405 US75040P4054 ROIAK    NASDAQ       RADIO ONE INC                 31334      91181.94  0.014533 03 Consumer Discretionary         0350 Media                                            0350760 Radio & TV Broadcasters                          
20110429 750459109 US7504591097 RSYS     NASDAQ       RADISYS CORP                   6521      57455.43  0.009157 01 Technology                     0130 Information Technology                           0130449 Computer Technology                              
20110429 750753402 US7507534029 RA       NYSE         RAILAMERICA INC               23101     393179.02  0.062665 08 Producer Durables              0840 Transportation & Freight                         0840800 Railroads                                        
20110429 75130P109 US75130P1093 RAME     NASDAQ       RAM ENERGY RESOURCES INC       4604       9484.43  0.001512 06 Energy                         0620 Non-Renewable Energy                             0620670 Oil: Crude Producers                             
20110429 751452202 US7514522025 RPT      NYSE         RAMCO-GERSHENSON PPTYS        37940     489046.60  0.077944 10 Financial Services             1050 Real Estate                                      1050806 Real Estate Investment Trusts (REITs)            
20110429 75604L105 US75604L1052 RLD      NYSE         REALD INC                      8277     240677.01  0.038359 03 Consumer Discretionary         0320 Consumer Products                                0320451 Consumer Electronics                             
20110429 75605L104 US75605L1044 RNWK     NASDAQ       REALNETWORKS INC              83719     309760.30  0.049369 01 Technology                     0130 Information Technology                           0130439 Computer Services Software & Systems             
20110429 75606N109 US75606N1090 RP       NASDAQ       REALPAGE INC                   3599     114815.63  0.018299 01 Technology                     0130 Information Technology                           0130439 Computer Services Software & Systems             
20110429 756764106 US7567641060 RLH      NYSE         RED LION HOTELS CORP          12072     105630.00  0.016835 03 Consumer Discretionary         0340 Leisure                                          0340514 Hotel/Motel                                      
20110429 75689M101 US75689M1018 RRGB     NASDAQ       RED ROBIN GOURMET BURGER      15602     424218.38  0.067612 03 Consumer Discretionary         0340 Leisure                                          0340810 Restaurants                                      
20110429 758075402 US7580754023 RWT      NYSE         REDWOOD TRUST INC             77897    1233109.51  0.196532 10 Financial Services             1050 Real Estate                                      1050806 Real Estate Investment Trusts (REITs)            
20110429 758932107 US7589321071 RGS      NYSE         REGIS CORP                    57434     976378.00  0.155615 03 Consumer Discretionary         0360 Retail                                           0360834 Specialty Retail                                 
20110429 759148109 US7591481095 RHB      NYSE         REHABCARE GROUP INC           20359     764886.13  0.121907 02 Health Care                    0210 Health Care Services                             0210499 Health Care Services                             
20110429 75970E107 US75970E1073 RNST     NASDAQ       RENASANT CORP                 25041     420187.98  0.066969 10 Financial Services             1010 Banks                                            1010400 Banks: Diversified                               
20110429 76009N100 US76009N1000 RCII     NASDAQ       RENT A CENTER INC             65805    2003762.25  0.319359 03 Consumer Discretionary         0330 Consumer Services                                0330809 Rental & Leasing Services: Consumer              
20110429 760276105 US7602761055 RJET     NASDAQ       REPUBLIC AIRWAYS HLD          48173     259893.34  0.041422 08 Producer Durables              0840 Transportation & Freight                         0840310 Air Transport                                    
20110429 760281204 US7602812049 RBCAA    NASDAQ       REPUBLIC BANCORP INC KY        9784     213095.52  0.033963 10 Financial Services             1010 Banks                                            1010400 Banks: Diversified                               
20110429 76116A108 US76116A1088 REN      NYSE         RESOLUTE ENERGY CORP          34634     612661.31  0.097646 06 Energy                         0620 Non-Renewable Energy                             0620670 Oil: Crude Producers                             
20110429 76120W302 US76120W3025 RSO      NYSE         RESOURCE CAPITAL CORP         54386     352421.28  0.056169 10 Financial Services             1050 Real Estate                                      1050806 Real Estate Investment Trusts (REITs)            
20110429 76131N101 US76131N1019 ROIC     NASDAQ       RETAIL OPPORTUNITY INVTS      41805     471978.45  0.075224 10 Financial Services             1050 Real Estate                                      1050806 Real Estate Investment Trusts (REITs)            
20110429 761525609 US7615256093 REV      NYSE         REVLON INC                     5452      93881.72  0.014963 03 Consumer Discretionary         0320 Consumer Products                                0320450 Cosmetics                                        
20110429 761565100 US7615651004 REXX     NASDAQ       REX ENERGY CORP               26931     345517.29  0.055068 06 Energy                         0620 Non-Renewable Energy                             0620670 Oil: Crude Producers                             
20110429 761624105 US7616241052 REX      NYSE         REX AMERICAN RESOURCES         7253     125331.84  0.019975 06 Energy                         0630 Alternative Energy                               0630478 Alternative Energy                               
20110429 763165107 US7631651079 RELL     NASDAQ       RICHARDSON ELECTRONICS        10372     139806.54  0.022282 01 Technology                     0120 Electronics                                      0120475 Electronics                                      
20110429 766582100 US7665821002 RNET     NASDAQ       RIGNET INC                     3770      73138.00  0.011657 06 Energy                         0610 Energy Equipment & Services                      0610600 Oil Well Equipment & Services                    
20110429 766721104 US7667211046 RIMG     NASDAQ       RIMAGE CORP                    9497     142075.12  0.022644 01 Technology                     0130 Information Technology                           0130449 Computer Technology                              
20110429 767754104 US7677541044 RAD      NYSE         RITE AID CORP                515080     571737.89  0.091123 04 Consumer Staples               0420 Personal Care/Drug & Grocery Stores              0420459 Drug & Grocery Store Chains                      
20110429 76973Q105 US76973Q1058 RRTS     NYSE         ROADRUNNER TRNSN SVCS          4178      58873.23  0.009383 08 Producer Durables              0840 Transportation & Freight                         0840865 Truckers                                         
20110429 770196103 US7701961036 RBN      NYSE         ROBBINS & MYERS INC           38558    1676116.26  0.267139 08 Producer Durables              0830 Scientific Instruments & Services                0830524 Scientific Instruments: Control & Filter         
20110429 771497104 US7714971048 ROCM     NASDAQ       ROCHESTER MEDICAL CORP         1516      17512.11  0.002791 02 Health Care                    0220 Medical Equipment & Services                     0220507 Medical & Dental Instruments & Supplies          
20110429 772739207 US7727392075 RKT      NYSE         ROCK-TENN CO                  25626    1769929.25  0.282091 07 Materials & Processing         0730 Industrial Materials & Processes                 0730442 Containers & Packaging                           
20110429 774188106 US7741881061 RCKB     NASDAQ       ROCKVILLE FINL INC            12335     122486.55  0.019522 10 Financial Services             1010 Banks                                            1010400 Banks: Diversified                               
20110429 774415103 US7744151033 ROC      NYSE         ROCKWOOD HOLDINGS INC         13392     759862.82  0.121107 07 Materials & Processing         0720 Chemicals and Synthetics                         0720433 Chemicals: Diversified                           
20110429 77487R100 US77487R1005 RODM     NASDAQ       RODMAN & RENSHAW CAP GP        1527       3009.28  0.000480 10 Financial Services             1040 Investment Banking & Brokerage Services          1040457 Diversified Financial Services                   
20110429 775043102 US7750431022 RSTI     NASDAQ       ROFIN SINAR TECHNOLOGIES      15349     664764.37  0.105950 01 Technology                     0120 Electronics                                      0120475 Electronics                                      
20110429 775133101 US7751331015 ROG      NYSE         ROGERS CORP                   10541     437636.25  0.069750 01 Technology                     0120 Electronics                                      0120463 Electronic Components                            
20110429 77581P109 US77581P1093 ROMA     NASDAQ       ROMA FINANCIAL CORP            8089      85419.84  0.013614 10 Financial Services             1010 Banks                                            1010400 Banks: Diversified                               
20110429 777779307 US7777793073 ROSE     NASDAQ       ROSETTA RESOURCES INC         20398     936915.51  0.149325 06 Energy                         0620 Non-Renewable Energy                             0620670 Oil: Crude Producers                             
20110429 781182100 US7811821005 RT       NYSE         RUBY TUESDAY INC              64494     677831.94  0.108033 03 Consumer Discretionary         0340 Leisure                                          0340810 Restaurants                                      
20110429 781258108 US7812581087 RDK      NYSE         RUDDICK CORP                  20919     868569.83  0.138432 04 Consumer Staples               0420 Personal Care/Drug & Grocery Stores              0420459 Drug & Grocery Store Chains                      
20110429 781270103 US7812701032 RTEC     NASDAQ       RUDOLPH TECHNOLOGIES INC       1902      21516.22  0.003429 01 Technology                     0120 Electronics                                      0120738 Production Technology Equipment                  
20110429 781846209 US7818462092 RUSHA    NASDAQ       RUSH ENTERPRISES INC          31877     671648.39  0.107047 08 Producer Durables              0840 Transportation & Freight                         0840350 Commercial Vehicles & Parts                      
20110429 783764103 US7837641031 RYL      NYSE         RYLAND GROUP INC              44053     762557.43  0.121536 03 Consumer Discretionary         0320 Consumer Products                                0320501 Homebuilding                                     
20110429 783859101 US7838591011 STBA     NASDAQ       S & T BANCORP INC             24753     505208.73  0.080520 10 Financial Services             1010 Banks                                            1010400 Banks: Diversified                               
20110429 78401V102 US78401V1026 SCBT     NASDAQ       SCBT FINANCIAL CORP           13959     450038.16  0.071727 10 Financial Services             1010 Banks                                            1010400 Banks: Diversified                               
20110429 784153108 US7841531087 SFN      NYSE         SFN GROUP INC                 44960     473420.97  0.075454 08 Producer Durables              0850 Commercial Services                              0850365 Back Office Support HR & Consutling              
20110429 784305104 US7843051043 SJW      NYSE         SJW CORP                      12951     300981.24  0.047970 11 Utilities                      1110 Utilities                                        1110882 Utilities: Water                                 
20110429 78463B101 US78463B1017 SONE     NASDAQ       S1 CORPORATION                51780     355728.60  0.056696 10 Financial Services             1020 Consumer Finance & Credit Services               1020489 Financial Data & Systems                         
20110429 78464R105 US78464R1059 SRX      NYSE         SRA INTERNATIONAL INC         39444    1222353.45  0.194818 01 Technology                     0130 Information Technology                           0130439 Computer Services Software & Systems             
20110429 78486Q101 US78486Q1013 SIVB     NASDAQ       SVB FINANCIAL GROUP           41740    2522765.60  0.402077 10 Financial Services             1010 Banks                                            1010400 Banks: Diversified                               
20110429 78503N107 US78503N1072 SWS      NYSE         SWS GROUP INC                 28586     174374.60  0.027792 10 Financial Services             1040 Investment Banking & Brokerage Services          1040823 Securities Brokerage & Services                  
20110429 785060104 US7850601045 SYBT     NASDAQ       S Y BANCORP INC               10089     251910.64  0.040149 10 Financial Services             1010 Banks                                            1010400 Banks: Diversified                               
20110429 78573L106 US78573L1061 SBRA     NASDAQ       SABRA HEALTH CARE REIT        24915     419070.30  0.066791 10 Financial Services             1050 Real Estate                                      1050806 Real Estate Investment Trusts (REITs)            
20110429 786449207 US7864492076 SFE      NYSE         SAFEGUARD SCIENTIFICS         18486     361393.25  0.057599 01 Technology                     0130 Information Technology                           0130449 Computer Technology                              
20110429 78648T100 US78648T1007 SAFT     NASDAQ       SAFETY INSURANCE GRP INC      12622     590962.04  0.094187 10 Financial Services             1030 Insurance                                        1030542 Insurance: Property-Casualty                     
20110429 78709Y105 US78709Y1055 SAIA     NASDAQ       SAIA INC                      15867     263392.20  0.041979 08 Producer Durables              0840 Transportation & Freight                         0840865 Truckers                                         
20110429 79377W108 US79377W1080 SKS      NYSE         SAKS INC                     135348    1618762.08  0.257998 03 Consumer Discretionary         0360 Retail                                           0360815 Diversified Retail                               
20110429 79546E104 US79546E1047 SBH      NYSE         SALLY BEAUTY HOLDINGS          8860     131050.08  0.020887 03 Consumer Discretionary         0360 Retail                                           0360834 Specialty Retail                                 
20110429 80000Q104 US80000Q1040 SMHG     NASDAQ       SANDERS MORRIS HARRIS         20785     179374.55  0.028589 10 Financial Services             1040 Investment Banking & Brokerage Services          1040457 Diversified Financial Services                   
20110429 800013104 US8000131040 SAFM     NASDAQ       SANDERSON FARMS INC            2476     117885.64  0.018789 04 Consumer Staples               0410 Food/Beverage & Tobacco                          0410305 Agriculture Fishing & Ranching                   
20110429 800363103 US8003631038 SASR     NASDAQ       SANDY SPRING BANCORP          23985     428611.95  0.068312 10 Financial Services             1010 Banks                                            1010400 Banks: Diversified                               
20110429 800422107 US8004221078 JBSS     NASDAQ       SANFILIPPO JOHN B & SON        7899      86889.00  0.013848 04 Consumer Staples               0410 Food/Beverage & Tobacco                          0410494 Foods                                            
20110429 804395101 US8043951016 BFS      NYSE         SAUL CENTERS INC               2113      92537.82  0.014749 10 Financial Services             1050 Real Estate                                      1050806 Real Estate Investment Trusts (REITs)            
20110429 806037107 US8060371072 SCSC     NASDAQ       SCANSOURCE INC                26849     960388.73  0.153066 01 Technology                     0120 Electronics                                      0120463 Electronic Components                            
20110429 806373106 US8063731066 SGK      NYSE         SCHAWK INC                     1542      29093.85  0.004637 08 Producer Durables              0850 Commercial Services                              0850486 Forms and Bulk Printing Services                 
20110429 806693107 US8066931077 WNI      NYSE         SCHIFF NUTRITION INTL          8367      83245.92  0.013268 04 Consumer Staples               0410 Food/Beverage & Tobacco                          0410494 Foods                                            
20110429 807066105 US8070661058 SCHL     NASDAQ       SCHOLASTIC CORP               25725     676053.00  0.107749 03 Consumer Discretionary         0350 Media                                            0350740 Publishing                                       
20110429 807863105 US8078631053 SCHS     NASDAQ       SCHOOL SPECIALTY INC          12145     179860.82  0.028666 03 Consumer Discretionary         0330 Consumer Services                                0330461 Education Services                               
20110429 808194104 US8081941044 SHLM     NASDAQ       SCHULMAN A INC                29852     755841.80  0.120466 07 Materials & Processing         0730 Industrial Materials & Processes                 0730733 Plastics                                         
20110429 80874P109 US80874P1093 SGMS     NASDAQ       SCIENTIFIC GAMES CORP         31994     336579.70  0.053644 03 Consumer Discretionary         0340 Leisure                                          0340434 Casinos & Gambling                               
20110429 811054402 US8110544025 SSP      NYSE         SCRIPPS E W CO                31650     300675.00  0.047921 03 Consumer Discretionary         0350 Media                                            0350438 Diversified Media                                
20110429 811543107 US8115431079 SEB      NYSE AMEX    SEABOARD CORP                   325     775775.00  0.123643 04 Consumer Staples               0410 Food/Beverage & Tobacco                          0410305 Agriculture Fishing & Ranching                   
20110429 811656107 US8116561072 SBX      NYSE         SEABRIGHT HOLDINGS INC        22008     224921.76  0.035848 10 Financial Services             1030 Insurance                                        1030542 Insurance: Property-Casualty                     
20110429 811699107 US8116991071 SEAC     NASDAQ       SEACHANGE INTERNATIONAL       14644     156835.53  0.024996 01 Technology                     0140 Telecommunication                                0140448 Communications Technology                        
20110429 812139301 US8121393016 ZZ       NYSE         SEALY CORP                    29676      78342.33  0.012486 03 Consumer Discretionary         0320 Consumer Products                                0320523 Household Furnishings                            
20110429 81616X103 US81616X1037 SCSS     NASDAQ       SELECT COMFORT CORP            8193     130030.05  0.020724 03 Consumer Discretionary         0320 Consumer Products                                0320523 Household Furnishings                            
20110429 81619Q105 US81619Q1058 SEM      NYSE         SELECT MEDICAL HOLDINGS       50241     448149.72  0.071426 02 Health Care                    0210 Health Care Services                             0210504 Health Care Facilities                           
20110429 816300107 US8163001071 SIGI     NASDAQ       SELECTIVE INSURANCE GRP       53252     939365.28  0.149716 10 Financial Services             1030 Insurance                                        1030542 Insurance: Property-Casualty                     
20110429 817070501 US8170705011 SENEA    NASDAQ       SENECA FOODS CORP              8388     234528.48  0.037379 04 Consumer Staples               0410 Food/Beverage & Tobacco                          0410494 Foods                                            
20110429 81725T100 US81725T1007 SXT      NYSE         SENSIENT TECHNOLOGIES         49513    1876047.57  0.299004 07 Materials & Processing         0720 Chemicals and Synthetics                         0720433 Chemicals: Diversified                           
20110429 82312B106 US82312B1061 SHEN     NASDAQ       SHENANDOAH TELECOMM CO         1305      24571.20  0.003916 11 Utilities                      1110 Utilities                                        1110880 Utilities: Telecommunications                    
20110429 824543102 US8245431023 SHLO     NASDAQ       SHILOH INDUSTRIES INC          2636      30068.18  0.004792 07 Materials & Processing         0740 Metals & Minerals                                0740835 Steel                                            
20110429 824889109 US8248891090 SCVL     NASDAQ       SHOE CARNIVAL INC              7499     219468.80  0.034979 03 Consumer Discretionary         0360 Retail                                           0360834 Specialty Retail                                 
20110429 82620P102 US82620P1021 BSRR     NASDAQ       SIERRA BANCORP                11418     127310.70  0.020291 10 Financial Services             1010 Banks                                            1010400 Banks: Diversified                               
20110429 826565103 US8265651039 SIGM     NASDAQ       SIGMA DESIGNS INC             26441     337386.52  0.053773 01 Technology                     0120 Electronics                                      0120476 Semiconductors & Components                      
20110429 827048109 US8270481091 SLGN     NASDAQ       SILGAN HOLDINGS INC           24941    1143764.18  0.182293 07 Materials & Processing         0730 Industrial Materials & Processes                 0730442 Containers & Packaging                           
20110429 82705T102 US82705T1025 SIMG     NASDAQ       SILICON IMAGE INC             18161     151106.04  0.024083 01 Technology                     0120 Electronics                                      0120476 Semiconductors & Components                      
20110429 82706L108 US82706L1089 SGI      NASDAQ       SILICON GRAPHICS INTL         28619     526014.32  0.083836 01 Technology                     0130 Information Technology                           0130449 Computer Technology                              
20110429 828730200 US8287302009 SFNC     NASDAQ       SIMMONS FIRST NATIONAL        17186     453538.54  0.072285 10 Financial Services             1010 Banks                                            1010400 Banks: Diversified                               
20110429 829073105 US8290731053 SSD      NYSE         SIMPSON MANUFACTURING          2440      68140.66  0.010860 07 Materials & Processing         0710 Building Materials & Services                    0710430 Building Materials                               
20110429 829226109 US8292261091 SBGI     NASDAQ       SINCLAIR BROADCAST GROUP      41910     481542.11  0.076748 03 Consumer Discretionary         0350 Media                                            0350760 Radio & TV Broadcasters                          
20110429 83066R107 US83066R1077 SKH      NYSE         SKILLED HEALTHCARE GROUP      19823     240254.76  0.038292 02 Health Care                    0210 Health Care Services                             0210504 Health Care Facilities                           
20110429 830830105 US8308301055 SKY      NYSE         SKYLINE CORP                   6855     134426.55  0.021425 03 Consumer Discretionary         0320 Consumer Products                                0320640 Manufactured Housing                             
20110429 830879102 US8308791024 SKYW     NASDAQ       SKYWEST INC                   55936     924622.08  0.147366 08 Producer Durables              0840 Transportation & Freight                         0840310 Air Transport                                    
20110429 83169Y108 US83169Y1082 SMBL     NASDAQ       SMART BALANCE INC             33821     161663.14  0.025766 04 Consumer Staples               0410 Food/Beverage & Tobacco                          0410494 Foods                                            
20110429 831756101 US8317561012 SWHC     NASDAQ       SMITH & WESSON HOLDING         3465      12510.25  0.001994 03 Consumer Discretionary         0340 Leisure                                          0340556 Leisure Time                                     
20110429 831865209 US8318652091 AOS      NYSE         SMITH A O CORP                 2507     110271.22  0.017575 08 Producer Durables              0830 Scientific Instruments & Services                0830465 Scientific Instruments: Electrical               
20110429 832154108 US8321541083 SMSI     NASDAQ       SMITH MICRO SOFTWARE INC       3683      28433.68  0.004532 01 Technology                     0130 Information Technology                           0130439 Computer Services Software & Systems             
20110429 83413U100 US83413U1007 SLRC     NASDAQ       SOLAR CAPITAL LTD              5747     145858.86  0.023247 10 Financial Services             1040 Investment Banking & Brokerage Services          1040544 Asset Management & Custodian                     
20110429 83416M105 US83416M1053 SUNS     NASDAQ       SOLAR SENIOR CAP LTD           6016     113281.28  0.018055 10 Financial Services             1040 Investment Banking & Brokerage Services          1040544 Asset Management & Custodian                     
20110429 83438K103 US83438K1034 SLTM     NASDAQ       SOLTA MEDICAL INC             41855     151931.62  0.024215 02 Health Care                    0220 Medical Equipment & Services                     0220471 Medical Equipment                                
20110429 83545G102 US83545G1022 SAH      NYSE         SONIC AUTOMOTIVE INC          33534     472818.02  0.075358 03 Consumer Discretionary         0360 Retail                                           0360834 Specialty Retail                                 
20110429 835916107 US8359161077 SONS     NASDAQ       SONUS NETWORKS INC            36639     144361.03  0.023008 01 Technology                     0140 Telecommunication                                0140448 Communications Technology                        
20110429 838518108 US8385181081 SJI      NYSE         SOUTH JERSEY INDUSTRIES       24616    1414151.97  0.225387 11 Utilities                      1110 Utilities                                        1110875 Utilities: Gas Distributors                      
20110429 84470P109 US84470P1093 SBSI     NASDAQ       SOUTHSIDE BANCSHARES INC      16583     360680.25  0.057485 10 Financial Services             1010 Banks                                            1010400 Banks: Diversified                               
20110429 844767103 US8447671038 OKSB     NASDAQ       SOUTHWEST BANCORP INC OK      19385     274879.30  0.043810 10 Financial Services             1010 Banks                                            1010400 Banks: Diversified                               
20110429 844895102 US8448951025 SWX      NYSE         SOUTHWEST GAS CORP            45371    1804404.67  0.287585 11 Utilities                      1110 Utilities                                        1110875 Utilities: Gas Distributors                      
20110429 84610H108 US84610H1086 SSS      NYSE         SOVRAN SELF STORAGE           27580    1179872.40  0.188048 10 Financial Services             1050 Real Estate                                      1050806 Real Estate Investment Trusts (REITs)            
20110429 846819100 US8468191007 SPAR     NASDAQ       SPARTAN MOTORS INC            32889     222329.64  0.035435 08 Producer Durables              0840 Transportation & Freight                         0840350 Commercial Vehicles & Parts                      
20110429 846822104 US8468221044 SPTN     NASDAQ       SPARTAN STORES INC            22518     351505.98  0.056023 04 Consumer Staples               0420 Personal Care/Drug & Grocery Stores              0420459 Drug & Grocery Store Chains                      
20110429 847220209 US8472202097 SEH      NYSE         SPARTECH CORP                 16563     118255.54  0.018848 07 Materials & Processing         0730 Industrial Materials & Processes                 0730733 Plastics                                         
20110429 847615101 US8476151019 SPEC     NASDAQ       SPECTRUM CONTROL INC           7915     157428.36  0.025091 01 Technology                     0120 Electronics                                      0120475 Electronics                                      
20110429 84763R101 US84763R1014 SPB      NYSE         SPECTRUM BRANDS HOLDINGS      18193     591272.50  0.094237 04 Consumer Staples               0420 Personal Care/Drug & Grocery Stores              0420637 Miscellaneous Consumer Staples                   
20110429 847788106 US8477881069 TRK      NYSE         SPEEDWAY MOTORSPORTS INC      12408     193316.64  0.030811 03 Consumer Discretionary         0340 Leisure                                          0340556 Leisure Time                                     
20110429 85254C305 US85254C3051 SSI      NYSE         STAGE STORES INC              36619     705281.94  0.112408 03 Consumer Discretionary         0360 Retail                                           0360834 Specialty Retail                                 
20110429 853626109 US8536261097 SMSC     NASDAQ       STANDARD MICROSYSTEM          15490     420538.73  0.067025 01 Technology                     0120 Electronics                                      0120476 Semiconductors & Components                      
20110429 853666105 US8536661056 SMP      NYSE         STANDARD MOTOR PRODUCTS       15063     214644.67  0.034210 03 Consumer Discretionary         0310 Auto & Auto Parts                                0310340 Auto Parts                                       
20110429 85375C101 US85375C1018 SPF      NYSE         STANDARD PACIFIC CORP        106908     412664.88  0.065770 03 Consumer Discretionary         0320 Consumer Products                                0320501 Homebuilding                                     
20110429 854231107 US8542311076 SXI      NYSE         STANDEX INTERNATIONAL         10182     372225.84  0.059325 08 Producer Durables              0820 Manufacturing & Production                       0820453 Diversified Manufacturing Operations             
20110429 855707105 US8557071052 STFC     NASDAQ       STATE AUTO FINANCIAL          14420     244851.60  0.039024 10 Financial Services             1030 Insurance                                        1030542 Insurance: Property-Casualty                     
20110429 855716106 US8557161069 STBC     NASDAQ       STATE BANCORP INC             16623     219423.60  0.034972 10 Financial Services             1010 Banks                                            1010400 Banks: Diversified                               
20110429 85571B105 US85571B1052 STWD     NYSE         STARWOOD PPTY TRUST INC       71627    1632379.33  0.260168 10 Financial Services             1050 Real Estate                                      1050806 Real Estate Investment Trusts (REITs)            
20110429 858155203 US8581552036 SCS      NYSE         STEELCASE INC                 67709     782029.85  0.124640 08 Producer Durables              0820 Manufacturing & Production                       0820650 Office Supplies Equipment                        
20110429 858375108 US8583751081 SMRT     NASDAQ       STEIN MART INC                16008     174160.97  0.027758 03 Consumer Discretionary         0360 Retail                                           0360834 Specialty Retail                                 
20110429 858495104 US8584951045 LVB      NYSE         STEINWAY MUSICAL INS           5685     142125.00  0.022652 03 Consumer Discretionary         0340 Leisure                                          0340556 Leisure Time                                     
20110429 85856G100 US85856G1004 STEL     NASDAQ       STELLARONE CORP               22838     319732.00  0.050959 10 Financial Services             1010 Banks                                            1010400 Banks: Diversified                               
20110429 858907108 US8589071088 SBIB     NASDAQ       STERLING BANCSHARES           91683     815061.87  0.129904 10 Financial Services             1010 Banks                                            1010400 Banks: Diversified                               
20110429 859152100 US8591521005 STE      NYSE         STERIS CORP                    3022     108924.09  0.017360 02 Health Care                    0220 Medical Equipment & Services                     0220507 Medical & Dental Instruments & Supplies          
20110429 859158107 US8591581074 STL      NYSE         STERLING BANCORP              30866     319463.10  0.050916 10 Financial Services             1010 Banks                                            1010400 Banks: Diversified                               
20110429 859241101 US8592411016 STRL     NASDAQ       STERLING CONSTRUCTION CO      16098     241309.02  0.038460 08 Producer Durables              0820 Manufacturing & Production                       0820443 Construction                                     
20110429 860370105 US8603701058 STEI     NASDAQ       STEWART ENTERPRISES           81388     660056.68  0.105200 03 Consumer Discretionary         0330 Consumer Services                                0330495 Funeral Parlors & Cemetery                       
20110429 860372101 US8603721015 STC      NYSE         STEWART INFORMATION           17274     175158.36  0.027917 10 Financial Services             1030 Insurance                                        1030542 Insurance: Property-Casualty                     
20110429 860630102 US8606301021 SF       NYSE         STIFEL FINANCIAL CORP          4811     219775.71  0.035028 10 Financial Services             1040 Investment Banking & Brokerage Services          1040457 Diversified Financial Services                   
20110429 861642106 US8616421066 SGY      NYSE         STONE ENERGY CORP             40069    1416829.20  0.225814 06 Energy                         0620 Non-Renewable Energy                             0620670 Oil: Crude Producers                             
20110429 86272T106 US86272T1060 BEE      NYSE         STRATEGIC HOTEL & RESORT     105684     720763.68  0.114875 10 Financial Services             1050 Real Estate                                      1050806 Real Estate Investment Trusts (REITs)            
20110429 86323M100 US86323M1009 SGS      NYSE AMEX    STREAM GLOBAL SVCS INC         1167       3807.13  0.000607 08 Producer Durables              0850 Commercial Services                              0850365 Back Office Support HR & Consutling              
20110429 864739107 US8647391072 SUBK     NASDAQ       SUFFOLK BANCORP                6873     112773.20  0.017974 10 Financial Services             1010 Banks                                            1010400 Banks: Diversified                               
20110429 864909106 US8649091068 SCMP     NASDAQ       SUCAMPO PHARMA                10462      46867.56  0.007470 02 Health Care                    0230 Pharmaceuticals & Biotech                        0230412 Biotechnology                                    
20110429 866082100 US8660821005 INN      NYSE         SUMMIT HOTEL PROPER           23560     266930.54  0.042543 10 Financial Services             1050 Real Estate                                      1050806 Real Estate Investment Trusts (REITs)            
20110429 866674104 US8666741041 SUI      NYSE         SUN COMMUNITIES INC           18987     730619.76  0.116446 10 Financial Services             1050 Real Estate                                      1050806 Real Estate Investment Trusts (REITs)            
20110429 86677E100 US86677E1001 SUNH     NASDAQ       SUN HEALTHCARE GROUP INC      24915     293747.85  0.046817 02 Health Care                    0210 Health Care Services                             0210499 Health Care Services                             
20110429 867892101 US8678921011 SHO      NYSE         SUNSTONE HOTEL INVS INC      118012    1234405.52  0.196739 10 Financial Services             1050 Real Estate                                      1050806 Real Estate Investment Trusts (REITs)            
20110429 868059106 US8680591067 SUPG     NASDAQ       SUPERGEN INC                  52415     142042.94  0.022639 02 Health Care                    0230 Pharmaceuticals & Biotech                        0230460 Pharmaceuticals                                  
20110429 868168105 US8681681057 SUP      NYSE         SUPERIOR INDUSTRIES INTL      17411     439953.56  0.070120 03 Consumer Discretionary         0310 Auto & Auto Parts                                0310340 Auto Parts                                       
20110429 868873100 US8688731004 SRDX     NASDAQ       SURMODICS INC                  7347     112850.23  0.017986 02 Health Care                    0220 Medical Equipment & Services                     0220507 Medical & Dental Instruments & Supplies          
20110429 869099101 US8690991018 SUSQ     NASDAQ       SUSQUEHANNA BANCSHARES       129645    1195326.90  0.190511 10 Financial Services             1010 Banks                                            1010400 Banks: Diversified                               
20110429 869233106 US8692331064 SUSS     NASDAQ       SUSSER HOLDINGS CORP           6278      86571.15  0.013798 04 Consumer Staples               0420 Personal Care/Drug & Grocery Stores              0420459 Drug & Grocery Store Chains                      
20110429 870738101 US8707381013 SFY      NYSE         SWIFT ENERGY CO               41923    1642962.37  0.261855 06 Energy                         0620 Non-Renewable Energy                             0620670 Oil: Crude Producers                             
20110429 871206405 US8712064059 SCMR     NASDAQ       SYCAMORE NETWORKS INC         19304     472948.00  0.075378 01 Technology                     0140 Telecommunication                                0140448 Communications Technology                        
20110429 871237103 US8712371033 SYKE     NASDAQ       SYKES ENTERPRISES INC         36569     732472.34  0.116741 08 Producer Durables              0850 Commercial Services                              0850365 Back Office Support HR & Consutling              
20110429 871543104 US8715431040 SYMM     NASDAQ       SYMMETRICOM INC               43869     267600.90  0.042650 01 Technology                     0140 Telecommunication                                0140849 Telecommunications Equipment                     
20110429 871546206 US8715462060 SMA      NYSE         SYMMETRY MEDICAL INC          35954     357742.30  0.057017 02 Health Care                    0220 Medical Equipment & Services                     0220507 Medical & Dental Instruments & Supplies          
20110429 87162W100 US87162W1009 SNX      NYSE         SYNNEX CORP                   22442     752480.26  0.119930 01 Technology                     0130 Information Technology                           0130439 Computer Services Software & Systems             
20110429 871851101 US8718511012 SYX      NYSE         SYSTEMAX INC                   1811      23452.97  0.003738 03 Consumer Discretionary         0360 Retail                                           0360834 Specialty Retail                                 
20110429 872386107 US8723861071 TESS     NASDAQ       TESSCO TECHNOLOGIES INC        2094      24690.38  0.003935 01 Technology                     0140 Telecommunication                                0140849 Telecommunications Equipment                     
20110429 872438106 US8724381061 TCRD     NASDAQ       THL CR INC                     9007     128980.24  0.020557 10 Financial Services             1040 Investment Banking & Brokerage Services          1040544 Asset Management & Custodian                     
20110429 872443403 US8724434035 THQI     NASDAQ       THQ INC                       42435     171435.74  0.027323 01 Technology                     0130 Information Technology                           0130469 Electronic Entertainment                         
20110429 87244T109 US87244T1097 TICC     NASDAQ       TICC CAPITAL CORP             31747     360010.98  0.057378 10 Financial Services             1040 Investment Banking & Brokerage Services          1040544 Asset Management & Custodian                     
20110429 87305R109 US87305R1095 TTMI     NASDAQ       TTM TECHNOLOGIES INC          61387    1173701.81  0.187064 01 Technology                     0120 Electronics                                      0120463 Electronic Components                            
20110429 874054109 US8740541094 TTWO     NASDAQ       TAKE-TWO INTERACTIVE          63951    1034718.12  0.164913 01 Technology                     0130 Information Technology                           0130469 Electronic Entertainment                         
20110429 874083108 US8740831081 TAL      NYSE         TAL INTERNATIONAL GROUP       12921     465772.92  0.074235 08 Producer Durables              0840 Transportation & Freight                         0840808 Commercial Services: Rental & Leasing            
20110429 874161102 US8741611029 TLB      NYSE         TALBOTS INC                    8916      47970.32  0.007645 03 Consumer Discretionary         0360 Retail                                           0360834 Specialty Retail                                 
20110429 875465106 US8754651060 SKT      NYSE         TANGER FACTORY OUTLET         34480     952694.56  0.151840 10 Financial Services             1050 Real Estate                                      1050806 Real Estate Investment Trusts (REITs)            
20110429 87612G101 US87612G1013 TRGP     NYSE         TARGA RESOURCES INC            9186     321675.79  0.051269 06 Energy                         0620 Non-Renewable Energy                             0620700 Oil: Integrated                                  
20110429 876851106 US8768511060 TAYC     NASDAQ       TAYLOR CAPITAL GROUP INC       9576      95185.44  0.015171 10 Financial Services             1010 Banks                                            1010400 Banks: Diversified                               
20110429 878155100 US8781551002 TISI     NASDAQ       TEAM INC                      17577     438542.33  0.069895 08 Producer Durables              0830 Scientific Instruments & Services                0830735 Scientific Instruments: Pollution Control        
20110429 87874R100 US87874R1005 TTGT     NASDAQ       TECHTARGET INC                 4167      36003.67  0.005738 01 Technology                     0130 Information Technology                           0130439 Computer Services Software & Systems             
20110429 878895200 US8788952005 TECUA    NASDAQ       TECUMSEH PRODS CO             18480     189235.20  0.030160 08 Producer Durables              0810 Machinery                                        0810584 Machinery: Industrial                            
20110429 879080109 US8790801091 TRC      NYSE         TEJON RANCH CO                 8671     309030.02  0.049253 10 Financial Services             1050 Real Estate                                      1050805 Real Estate                                      
20110429 879101103 US8791011039 TKLC     NASDAQ       TEKELEC                       59301     495162.45  0.078919 01 Technology                     0140 Telecommunication                                0140448 Communications Technology                        
20110429 87929J103 US87929J1034 TSYS     NASDAQ       TELECOMMUNICATION SYSTEM      28623     131950.51  0.021030 01 Technology                     0130 Information Technology                           0130439 Computer Services Software & Systems             
20110429 879360105 US8793601050 TDY      NYSE         TELEDYNE TECHNOLOGIES         26300    1327854.18  0.211633 08 Producer Durables              0840 Transportation & Freight                         0840300 Aerospace                                        
20110429 879939106 US8799391060 TTEC     NASDAQ       TELETECH HOLDINGS INC          1482      29450.22  0.004694 08 Producer Durables              0850 Commercial Services                              0850365 Back Office Support HR & Consutling              
20110429 88145X108 US88145X1081 TBNK     NASDAQ       TERRITORIAL BANCORP INC       12233     245516.31  0.039130 10 Financial Services             1010 Banks                                            1010820 Banks: Savings/Thrifts & Mortgage Lend           
20110429 88146M101 US88146M1018 TRNO     NYSE         TERRENO REALTY CORP            8762     148603.52  0.023684 10 Financial Services             1050 Real Estate                                      1050806 Real Estate Investment Trusts (REITs)            
20110429 88157K101 CA88157K1012 TESO     NASDAQ       TESCO CORP                    30188     567836.28  0.090502 06 Energy                         0610 Energy Equipment & Services                      0610600 Oil Well Equipment & Services                    
20110429 88162F105 US88162F1057 TTI      NYSE         TETRA TECHNOLOGIES INC        67430     995927.78  0.158731 06 Energy                         0610 Energy Equipment & Services                      0610600 Oil Well Equipment & Services                    
20110429 88164L100 US88164L1008 TSRA     NASDAQ       TESSERA TECHNOLOGIES INC      21188     418687.13  0.066730 01 Technology                     0120 Electronics                                      0120738 Production Technology Equipment                  
20110429 88224Q107 US88224Q1076 TCBI     NASDAQ       TEXAS CAPITAL BANCSHARES      36534     942577.20  0.150228 10 Financial Services             1010 Banks                                            1010400 Banks: Diversified                               
20110429 882491103 US8824911031 TXI      NYSE         TEXAS INDUSTRIES INC          20799     877093.83  0.139791 07 Materials & Processing         0710 Building Materials & Services                    0710430 Building Materials                               
20110429 884453101 US8844531017 TPGI     NASDAQ       THOMAS PROPERTIES GROUP       35215     126421.85  0.020149 10 Financial Services             1050 Real Estate                                      1050805 Real Estate                                      
20110429 884768102 CA8847681027 TC       NYSE         THOMPSON CREEK METALS        146898    1811247.53  0.288676 07 Materials & Processing         0740 Metals & Minerals                                0740635 Metals & Minerals: Diversified                   
20110429 88650Q100 US88650Q1004 TIER     NASDAQ       TIER TECHNOLOGIES INC          6593      36854.09  0.005874 01 Technology                     0130 Information Technology                           0130439 Computer Services Software & Systems             
20110429 887100105 US8871001058 TBL      NYSE         TIMBERLAND CO                 11566     522683.81  0.083305 03 Consumer Discretionary         0320 Consumer Products                                0320850 Textiles Apparel & Shoes                         
20110429 88830M102 US88830M1027 TWI      NYSE         TITAN INTERNATIONAL INC       35445    1094884.44  0.174502 08 Producer Durables              0810 Machinery                                        0810570 Machinery: Agricultural                          
20110429 88830R101 US88830R1014 TITN     NASDAQ       TITAN MACHINERY INC            8931     280948.75  0.044777 08 Producer Durables              0810 Machinery                                        0810570 Machinery: Agricultural                          
20110429 890088107 US8900881074 TOMO     NASDAQ       TOMOTHERAPY INC               32081     146928.67  0.023417 02 Health Care                    0220 Medical Equipment & Services                     0220471 Medical Equipment                                
20110429 890110109 US8901101092 TMP      NYSE AMEX    TOMPKINS FINANCIAL CORP        7906     322090.44  0.051335 10 Financial Services             1010 Banks                                            1010400 Banks: Diversified                               
20110429 890516107 US8905161076 TR       NYSE         TOOTSIE ROLL INDUSTRIES        2376      70438.87  0.011227 04 Consumer Staples               0410 Food/Beverage & Tobacco                          0410494 Foods                                            
20110429 891709107 US8917091071 TOBC     NASDAQ       TOWER BANCORP INC              9545     207221.95  0.033027 10 Financial Services             1010 Banks                                            1010400 Banks: Diversified                               
20110429 891777104 US8917771045 TWGP     NASDAQ       TOWER GROUP INC               20481     468386.84  0.074651 10 Financial Services             1030 Insurance                                        1030542 Insurance: Property-Casualty                     
20110429 891826109 US8918261095 TOWR     NYSE         TOWER INTERNATIONAL INC        1578      26221.44  0.004179 03 Consumer Discretionary         0310 Auto & Auto Parts                                0310340 Auto Parts                                       
20110429 89214P109 US89214P1093 TOWN     NASDAQ       TOWNEBANK PORTSMOUTH VA       23496     348210.72  0.055498 10 Financial Services             1010 Banks                                            1010400 Banks: Diversified                               
20110429 89236Y104 US89236Y1047 TPCG     NASDAQ       TPC GROUP INC                  7084     279392.96  0.044530 07 Materials & Processing         0720 Chemicals and Synthetics                         0720433 Chemicals: Diversified                           
20110429 89267P105 US89267P1057 TRAD     NASDAQ       TRADESTATION GROUP INC        30393     293286.66  0.046744 10 Financial Services             1040 Investment Banking & Brokerage Services          1040823 Securities Brokerage & Services                  
20110429 89354M106 US89354M1062 TSPT     NASDAQ       TRANSCEPT PHARM INC            1348      13551.94  0.002160 02 Health Care                    0230 Pharmaceuticals & Biotech                        0230412 Biotechnology                                    
20110429 894650100 US8946501009 TG       NYSE         TREDEGAR CORP                 22681     496240.04  0.079091 07 Materials & Processing         0730 Industrial Materials & Processes                 0730452 Diversified Materials & Processing               
20110429 89469A104 US89469A1043 THS      NYSE         TREEHOUSE FOODS INC           34769    2109435.23  0.336201 04 Consumer Staples               0410 Food/Beverage & Tobacco                          0410494 Foods                                            
20110429 895848109 US8958481090 TCAP     NYSE         TRIANGLE CAPITAL CORP         18508     330552.88  0.052683 10 Financial Services             1040 Investment Banking & Brokerage Services          1040457 Diversified Financial Services                   
20110429 895919108 US8959191086 TRID     NASDAQ       TRIDENT MICROSYSTEMS INC      64877      65525.40  0.010443 01 Technology                     0120 Electronics                                      0120476 Semiconductors & Components                      
20110429 896095106 US8960951064 TCBK     NASDAQ       TRICO BANCSHARES              13956     227622.36  0.036278 10 Financial Services             1010 Banks                                            1010400 Banks: Diversified                               
20110429 896749108 PR8967491088 GTS      NYSE         TRIPLE-S MANAGEMENT CORP      20288     424830.72  0.067709 02 Health Care                    0210 Health Care Services                             0210503 Health Care Management Services                  
20110429 896818101 US8968181011 TGI      NYSE         TRIUMPH GROUP INC             16686    1436998.32  0.229028 08 Producer Durables              0840 Transportation & Freight                         0840300 Aerospace                                        
20110429 89785X101 US89785X1019 TBI      NYSE         TRUEBLUE INC                  16176     227766.89  0.036301 08 Producer Durables              0850 Commercial Services                              0850365 Back Office Support HR & Consutling              
20110429 898349105 US8983491056 TRST     NASDAQ       TRUSTCO BANK CORP NY          72876     437253.62  0.069689 10 Financial Services             1010 Banks                                            1010400 Banks: Diversified                               
20110429 898402102 US8984021027 TRMK     NASDAQ       TRUSTMARK CORP                63869    1484315.56  0.236570 10 Financial Services             1010 Banks                                            1010400 Banks: Diversified                               
20110429 899035505 US8990355054 TUES     NASDAQ       TUESDAY MORNING CORP          29499     147495.00  0.023508 03 Consumer Discretionary         0360 Retail                                           0360815 Diversified Retail                               
20110429 901109108 US9011091082 TPC      NYSE         TUTOR PERINI CORP             26682     711342.12  0.113373 08 Producer Durables              0820 Manufacturing & Production                       0820443 Construction                                     
20110429 901476101 US9014761012 TWIN     NASDAQ       TWIN DISC INC                  7259     247307.72  0.039416 08 Producer Durables              0810 Machinery                                        0810584 Machinery: Industrial                            
20110429 90187B101 US90187B1017 TWO      NYSE         TWO HBRS INVT CORP            69251     724365.46  0.115449 10 Financial Services             1050 Real Estate                                      1050806 Real Estate Investment Trusts (REITs)            
20110429 902748102 US9027481020 UIL      NYSE         UIL HOLDINGS CORP             50430    1604682.60  0.255754 11 Utilities                      1110 Utilities                                        1110870 Utilities: Electrical                            
20110429 902788108 US9027881088 UMBF     NASDAQ       UMB FINANCIAL CORP            31724    1335897.64  0.212915 10 Financial Services             1010 Banks                                            1010400 Banks: Diversified                               
20110429 902925106 US9029251066 USAK     NASDAQ       USA TRUCK INC                  7862      97881.90  0.015600 08 Producer Durables              0840 Transportation & Freight                         0840865 Truckers                                         
20110429 903002103 US9030021037 UMH      NYSE AMEX    UMH PROPERTIES INC            11033     114081.22  0.018182 10 Financial Services             1050 Real Estate                                      1050806 Real Estate Investment Trusts (REITs)            
20110429 90333E108 US90333E1082 USU      NYSE         USEC INC                     122068     559071.44  0.089105 06 Energy                         0630 Alternative Energy                               0630478 Alternative Energy                               
20110429 90337L108 US90337L1089 USPH     NASDAQ       U S PHYSICAL THERAPY INC        577      14057.16  0.002240 02 Health Care                    0210 Health Care Services                             0210504 Health Care Facilities                           
20110429 90341G103 US90341G1031 USMO     NASDAQ       USA MOBILITY INC               9430     145705.67  0.023223 11 Utilities                      1110 Utilities                                        1110880 Utilities: Telecommunications                    
20110429 90341W108 US90341W1080 LCC      NYSE         U S AIRWAYS GROUP INC        161277    1466007.93  0.233652 08 Producer Durables              0840 Transportation & Freight                         0840310 Air Transport                                    
20110429 904034105 US9040341052 UTEK     NASDAQ       ULTRATECH INC                  4620     144665.35  0.023057 01 Technology                     0120 Electronics                                      0120738 Production Technology Equipment                  
20110429 904214103 US9042141039 UMPQ     NASDAQ       UMPQUA HOLDINGS CORP         114511    1329472.71  0.211891 10 Financial Services             1010 Banks                                            1010400 Banks: Diversified                               
20110429 904677200 US9046772003 UFI      NYSE         UNIFI INC                     13679     223241.28  0.035580 07 Materials & Processing         0730 Industrial Materials & Processes                 0730852 Textile Products                                 
20110429 904708104 US9047081040 UNF      NYSE         UNIFIRST CORP MASS            14099     729764.24  0.116310 08 Producer Durables              0850 Commercial Services                              0850484 Environmental Maint & Security Service           
20110429 90653P105 US90653P1057 UDRL     NASDAQ       UNION DRILLING INC            14813     200864.28  0.032014 06 Energy                         0610 Energy Equipment & Services                      0610600 Oil Well Equipment & Services                    
20110429 90662P104 US90662P1049 UBSH     NASDAQ       UNION FIRST MARKET BKSHS      17837     227065.01  0.036190 10 Financial Services             1010 Banks                                            1010400 Banks: Diversified                               
20110429 909205106 US9092051062 UNS      NYSE         UNISOURCE ENERGY CORP         36076    1339501.88  0.213489 11 Utilities                      1110 Utilities                                        1110870 Utilities: Electrical                            
20110429 909214306 US9092143067 UIS      NYSE         UNISYS CORP                   25333     751875.13  0.119834 01 Technology                     0130 Information Technology                           0130439 Computer Services Software & Systems             
20110429 90984P105 US90984P1057 UCBI     NASDAQ       UNITED COMMUNITY BANKS        87081     208994.40  0.033309 10 Financial Services             1010 Banks                                            1010400 Banks: Diversified                               
20110429 909907107 US9099071071 UBSI     NASDAQ       UNITED BANKSHARES INC         38817    1015452.72  0.161842 10 Financial Services             1010 Banks                                            1010400 Banks: Diversified                               
20110429 909912107 US9099121074 AFP      NYSE AMEX    UNITED CAPITAL CORP            1746      47578.50  0.007583 10 Financial Services             1050 Real Estate                                      1050805 Real Estate                                      
20110429 91030T109 US91030T1097 UBNK     NASDAQ       UNITED FINANCIAL BANCORP      16722     273237.48  0.043548 10 Financial Services             1010 Banks                                            1010820 Banks: Savings/Thrifts & Mortgage Lend           
20110429 910331107 US9103311075 UFCS     NASDAQ       UNITED FIRE & CAS CO          22808     451598.40  0.071976 10 Financial Services             1030 Insurance                                        1030542 Insurance: Property-Casualty                     
20110429 911268100 US9112681005 UNTD     NASDAQ       UNITED ONLINE INC             68401     451441.25  0.071951 01 Technology                     0130 Information Technology                           0130439 Computer Services Software & Systems             
20110429 911363109 US9113631090 URI      NYSE         UNITED RENTALS INC            60443    1778233.06  0.283414 08 Producer Durables              0840 Transportation & Freight                         0840808 Commercial Services: Rental & Leasing            
20110429 911805109 US9118051096 USEG     NASDAQ       U S ENERGY CORP               26737     152935.64  0.024375 07 Materials & Processing         0740 Metals & Minerals                                0740635 Metals & Minerals: Diversified                   
20110429 91274F104 US91274F1049 YSI      NYSE         U STORE IT TRUST              99428    1129502.08  0.180020 10 Financial Services             1050 Real Estate                                      1050806 Real Estate Investment Trusts (REITs)            
20110429 913004107 US9130041075 USTR     NASDAQ       UNITED STATIONERS INC          8954     645278.56  0.102844 08 Producer Durables              0820 Manufacturing & Production                       0820650 Office Supplies Equipment                        
20110429 913259107 US9132591077 UTL      NYSE         UNITIL CORP                   10860     274323.60  0.043722 11 Utilities                      1110 Utilities                                        1110870 Utilities: Electrical                            
20110429 913377107 US9133771074 UAM      NYSE         UNIVERSAL AMERICAN CORP       31990     738969.00  0.117777 02 Health Care                    0210 Health Care Services                             0210503 Health Care Management Services                  
20110429 913456109 US9134561094 UVV      NYSE         UNIVERSAL CORP                24165    1048277.70  0.167074 04 Consumer Staples               0410 Food/Beverage & Tobacco                          0410856 Tobacco                                          
20110429 913483103 US9134831034 UEIC     NASDAQ       UNIVERSAL ELECTRONICS          8521     235938.74  0.037604 03 Consumer Discretionary         0320 Consumer Products                                0320451 Consumer Electronics                             
20110429 913543104 US9135431040 UFPI     NASDAQ       UNIVERSAL FOREST PRODS        19361     625166.69  0.099639 07 Materials & Processing         0730 Industrial Materials & Processes                 0730496 Forest Products                                  
20110429 91359E105 US91359E1055 UHT      NYSE         UNIVERSAL HEALTH REALTY        5517     237852.01  0.037909 10 Financial Services             1050 Real Estate                                      1050806 Real Estate Investment Trusts (REITs)            
20110429 91359V107 US91359V1070 UVE      NYSE AMEX    UNIVERSAL INSURANCE           17233      93230.53  0.014859 10 Financial Services             1030 Insurance                                        1030542 Insurance: Property-Casualty                     
20110429 913837100 US9138371003 USAP     NASDAQ       UNIVERSAL STAINLESS & AL       6775     245593.75  0.039143 07 Materials & Processing         0740 Metals & Minerals                                0740835 Steel                                            
20110429 91388P105 US91388P1057 UACL     NASDAQ       UNIVERSAL TRUCKLOAD SVCS       5848      92632.32  0.014764 08 Producer Durables              0840 Transportation & Freight                         0840865 Truckers                                         
20110429 915271100 US9152711001 UVSP     NASDAQ       UNIVEST CORP OF PENN          16590     279043.80  0.044474 10 Financial Services             1010 Banks                                            1010400 Banks: Diversified                               
20110429 917286205 US9172862057 UBA      NYSE         URSTADT BIDDLE PPTYS INS      19458     382915.49  0.061029 10 Financial Services             1050 Real Estate                                      1050806 Real Estate Investment Trusts (REITs)            
20110429 91732J102 US91732J1025 ECOL     NASDAQ       US ECOLOGY INC                 1263      23190.77  0.003696 08 Producer Durables              0830 Scientific Instruments & Services                0830735 Scientific Instruments: Pollution Control        
20110429 918076100 US9180761002 UTSI     NASDAQ       UTSTARCOM INC                116914     300468.98  0.047889 01 Technology                     0140 Telecommunication                                0140849 Telecommunications Equipment                     
20110429 918284100 US9182841000 VSEC     NASDAQ       VSE CORP                       2017      56863.57  0.009063 08 Producer Durables              0850 Commercial Services                              0850479 Engineering & Contracting Services               
20110429 91851C201 US91851C2017 EGY      NYSE         VAALCO ENERGY INC             44593     310807.33  0.049536 06 Energy                         0620 Non-Renewable Energy                             0620670 Oil: Crude Producers                             
20110429 91879Q109 US91879Q1094 MTN      NYSE         VAIL RESORTS INC              36248    1775789.52  0.283025 03 Consumer Discretionary         0340 Leisure                                          0340556 Leisure Time                                     
20110429 92046N102 US92046N1028 VCLK     NASDAQ       VALUECLICK INC                17972     301044.82  0.047980 03 Consumer Discretionary         0350 Media                                            0350301 Advertising Agencies                             
20110429 92230Y104 US92230Y1047 VDSI     NASDAQ       VASCO DATA SECURITY INTL       5172      63828.40  0.010173 01 Technology                     0130 Information Technology                           0130439 Computer Services Software & Systems             
20110429 92240M108 US92240M1080 VGR      NYSE         VECTOR GROUP LTD              15421     283130.29  0.045125 04 Consumer Staples               0410 Food/Beverage & Tobacco                          0410856 Tobacco                                          
20110429 92275P307 US92275P3073 VQ       NYSE         VENOCO INC                    16829     312839.03  0.049860 06 Energy                         0620 Non-Renewable Energy                             0620670 Oil: Crude Producers                             
20110429 92335C106 US92335C1062 VRA      NASDAQ       VERA BRADLEY INC               3794     184574.21  0.029417 03 Consumer Discretionary         0320 Consumer Products                                0320850 Textiles Apparel & Shoes                         
20110429 92552R406 US92552R4065 VVI      NYSE         VIAD CORP                     17832     442395.15  0.070509 03 Consumer Discretionary         0350 Media                                            0350301 Advertising Agencies                             
20110429 92552V100 US92552V1008 VSAT     NASDAQ       VIASAT INC                    21102     842360.22  0.134255 01 Technology                     0140 Telecommunication                                0140448 Communications Technology                        
20110429 92553H803 US92553H8034 VIAS     NASDAQ       VIASYSTEMS GROUP INC           1176      30727.03  0.004897 01 Technology                     0120 Electronics                                      0120463 Electronic Components                            
20110429 92672A101 US92672A1016 VPFG     NASDAQ       VIEWPOINT FINL GROUP           9057     111841.65  0.017825 10 Financial Services             1010 Banks                                            1010820 Banks: Savings/Thrifts & Mortgage Lend           
20110429 927107409 US9271074091 VLGEA    NASDAQ       VILLAGE SUPER MARKET INC       3163      85517.92  0.013630 04 Consumer Staples               0420 Personal Care/Drug & Grocery Stores              0420459 Drug & Grocery Store Chains                      
20110429 92778Q109 US92778Q1094 VCBI     NASDAQ       VIRGINIA COMM BANCORP         21498     129202.98  0.020592 10 Financial Services             1010 Banks                                            1010400 Banks: Diversified                               
20110429 928241108 US9282411084 VPHM     NASDAQ       VIROPHARMA INC                77819    1501128.51  0.239249 02 Health Care                    0230 Pharmaceuticals & Biotech                        0230412 Biotechnology                                    
20110429 92827P102 US92827P1021 VRTU     NASDAQ       VIRTUSA CORP                   6197     115639.71  0.018431 01 Technology                     0130 Information Technology                           0130439 Computer Services Software & Systems             
20110429 92828Q109 US92828Q1094 VRTS     NASDAQ       VIRTUS INVESTMENT PTNRS         422      22310.64  0.003556 10 Financial Services             1040 Investment Banking & Brokerage Services          1040544 Asset Management & Custodian                     
20110429 92846N104 US92846N1046 VTAL     NASDAQ       VITAL IMAGES INC               3972      74055.32  0.011803 02 Health Care                    0220 Medical Equipment & Services                     0220471 Medical Equipment                                
20110429 92886T201 US92886T2015 VG       NYSE         VONAGE HLDGS CORP             64806     334394.59  0.053296 11 Utilities                      1110 Utilities                                        1110880 Utilities: Telecommunications                    
20110429 92922P106 US92922P1066 WTI      NYSE         W&T OFFSHORE INC              32827     880078.49  0.140267 06 Energy                         0620 Non-Renewable Energy                             0620670 Oil: Crude Producers                             
20110429 929236107 US9292361071 WDFC     NASDAQ       WD-40 CO                        845      35102.15  0.005595 04 Consumer Staples               0420 Personal Care/Drug & Grocery Stores              0420832 Personal Care                                    
20110429 92924F106 US92924F1066 WGL      NYSE         WGL HOLDINGS INC              50646    2001529.92  0.319003 11 Utilities                      1110 Utilities                                        1110875 Utilities: Gas Distributors                      
20110429 929328102 US9293281021 WSFS     NASDAQ       WSFS FINANCIAL CORP            5856     263344.32  0.041972 10 Financial Services             1010 Banks                                            1010820 Banks: Savings/Thrifts & Mortgage Lend           
20110429 929566107 US9295661071 WNC      NYSE         WABASH NATIONAL CORP          68307     753426.21  0.120081 08 Producer Durables              0840 Transportation & Freight                         0840350 Commercial Vehicles & Parts                      
20110429 93148P102 US93148P1021 WD       NYSE         WALKER & DUNLOP INC            5009      60057.96  0.009572 10 Financial Services             1020 Consumer Finance & Credit Services               1020487 Commercial Finance & Mortgage Co                 
20110429 93317W102 US93317W1027 WAC      NYSE AMEX    WALTER INV MGMT CORP          25704     458045.28  0.073003 10 Financial Services             1050 Real Estate                                      1050806 Real Estate Investment Trusts (REITs)            
20110429 934550104 US9345501046 WMG      NYSE         WARNER MUSIC GROUP CORP       30899     230813.71  0.036787 03 Consumer Discretionary         0350 Media                                            0350480 Entertainment                                    
20110429 93564A100 US93564A1007 WRES     NASDAQ       WARREN RESOURCES INC          59556     269786.03  0.042998 06 Energy                         0620 Non-Renewable Energy                             0620670 Oil: Crude Producers                             
20110429 937303105 US9373031056 WBCO     NASDAQ       WASHINGTON BANKING CO         15303     214088.97  0.034121 10 Financial Services             1010 Banks                                            1010400 Banks: Diversified                               
20110429 939653101 US9396531017 WRE      NYSE         WASHINGTON REAL ESTATE        48073    1557557.10  0.248243 10 Financial Services             1050 Real Estate                                      1050806 Real Estate Investment Trusts (REITs)            
20110429 940610108 US9406101082 WASH     NASDAQ       WASHINGTON TRUST BANCORP      14114     330691.02  0.052705 10 Financial Services             1010 Banks                                            1010400 Banks: Diversified                               
20110429 941888109 US9418881093 WSBF     NASDAQ       WATERSTONE FINANCIAL INC       7156      22899.20  0.003650 10 Financial Services             1010 Banks                                            1010820 Banks: Savings/Thrifts & Mortgage Lend           
20110429 942749102 US9427491025 WTS      NYSE         WATTS WATER TECH INC          26525    1026503.76  0.163604 08 Producer Durables              0830 Scientific Instruments & Services                0830524 Scientific Instruments: Control & Filter         
20110429 943315101 US9433151019 WPP      NYSE         WAUSAU PAPER CORP             42451     286540.56  0.045669 07 Materials & Processing         0730 Industrial Materials & Processes                 0730720 Paper                                            
20110429 947890109 US9478901096 WBS      NYSE         WEBSTER FINANCIAL CORP        70850    1524692.00  0.243005 10 Financial Services             1010 Banks                                            1010400 Banks: Diversified                               
20110429 948849104 US9488491047 WMK      NYSE         WEIS MARKETS INC              11001     454011.27  0.072360 04 Consumer Staples               0420 Personal Care/Drug & Grocery Stores              0420459 Drug & Grocery Store Chains                      
20110429 94946T106 US94946T1060 WCG      NYSE         WELLCARE GROUP INC            42391    1857149.71  0.295992 02 Health Care                    0210 Health Care Services                             0210503 Health Care Management Services                  
20110429 950755108 US9507551086 WERN     NASDAQ       WERNER ENTERPRISES INC        36801     963079.81  0.153495 08 Producer Durables              0840 Transportation & Freight                         0840865 Truckers                                         
20110429 950810101 US9508101014 WSBC     NASDAQ       WESBANCO INC                  23061     468138.30  0.074612 10 Financial Services             1010 Banks                                            1010400 Banks: Diversified                               
20110429 95123P106 US95123P1066 WTBA     NASDAQ       WEST BANCORPORATION INC       15593     121469.47  0.019360 10 Financial Services             1010 Banks                                            1010400 Banks: Diversified                               
20110429 952145100 US9521451008 WCBO     NASDAQ       WEST COAST BANCORP            93723     335528.34  0.053476 10 Financial Services             1010 Banks                                            1010400 Banks: Diversified                               
20110429 954235107 US9542351070 WMAR     NASDAQ       WEST MARINE INC               14522     157999.36  0.025182 03 Consumer Discretionary         0340 Leisure                                          0340556 Leisure Time                                     
20110429 957090103 US9570901036 WABC     NASDAQ       WESTAMERICA BANCORP           16334     829576.84  0.132218 10 Financial Services             1010 Banks                                            1010400 Banks: Diversified                               
20110429 957638109 US9576381092 WAL      NYSE         WESTERN ALLIANCE BANCORP      65507     541742.89  0.086343 10 Financial Services             1010 Banks                                            1010400 Banks: Diversified                               
20110429 959319104 US9593191045 WNR      NYSE         WESTERN REFINING INC          51287     869827.52  0.138633 06 Energy                         0620 Non-Renewable Energy                             0620605 Oil: Refining & Marketing                        
20110429 96008P104 US96008P1049 WFD      NASDAQ       WESTFIELD FINANCIAL INC       29581     268595.48  0.042809 10 Financial Services             1010 Banks                                            1010820 Banks: Savings/Thrifts & Mortgage Lend           
20110429 960413102 US9604131022 WLK      NYSE         WESTLAKE CHEMICAL CORP        19649    1289956.85  0.205593 07 Materials & Processing         0720 Chemicals and Synthetics                         0720433 Chemicals: Diversified                           
20110429 961765104 US9617651040 WHG      NYSE         WESTWOOD HOLDINGS GROUP         447      16855.08  0.002686 10 Financial Services             1040 Investment Banking & Brokerage Services          1040544 Asset Management & Custodian                     
20110429 961840105 US9618401056 WTSLA    NASDAQ       WET SEAL INC                  27452     120789.90  0.019251 03 Consumer Discretionary         0360 Retail                                           0360834 Specialty Retail                                 
20110429 962149100 US9621491003 WEYS     NASDAQ       WEYCO GROUP INC                3715      90072.89  0.014356 03 Consumer Discretionary         0320 Consumer Products                                0320850 Textiles Apparel & Shoes                         
20110429 966612103 US9666121036 WTNY     NASDAQ       WHITNEY HOLDING CORP          96464    1306122.56  0.208169 10 Financial Services             1010 Banks                                            1010400 Banks: Diversified                               
20110429 969203108 US9692031084 WG       NYSE         WILLBROS GROUP INC            47861     514505.75  0.082002 06 Energy                         0610 Energy Equipment & Services                      0610600 Oil Well Equipment & Services                    
20110429 969490101 US9694901011 CWEI     NASDAQ       WILLIAMS CLAYTON ENERGY         593      53769.42  0.008570 06 Energy                         0620 Non-Renewable Energy                             0620670 Oil: Crude Producers                             
20110429 97186T108 US97186T1088 WIBC     NASDAQ       WILSHIRE BANCORP INC          19490      77960.00  0.012425 10 Financial Services             1010 Banks                                            1010400 Banks: Diversified                               
20110429 974280307 US9742803078 WINN     NASDAQ       WINN DIXIE STORES INC         55086     390559.74  0.062247 04 Consumer Staples               0420 Personal Care/Drug & Grocery Stores              0420459 Drug & Grocery Store Chains                      
20110429 976391300 US9763913004 FUR      NYSE         WINTHROP REALTY TRUST         22799     276551.87  0.044077 10 Financial Services             1050 Real Estate                                      1050806 Real Estate Investment Trusts (REITs)            
20110429 97650W108 US97650W1080 WTFC     NASDAQ       WINTRUST FINANCIAL CORP       34366    1157790.54  0.184528 10 Financial Services             1010 Banks                                            1010400 Banks: Diversified                               
20110429 981419104 US9814191048 WRLD     NASDAQ       WORLD ACCEPTANCE CORP          8256     560943.29  0.089403 10 Financial Services             1020 Consumer Finance & Credit Services               1020492 Consumer Lending                                 
20110429 981475106 US9814751064 INT      NYSE         WORLD FUEL SVCS CORP          30990    1226620.46  0.195498 06 Energy                         0620 Non-Renewable Energy                             0620605 Oil: Refining & Marketing                        
20110429 98156Q108 US98156Q1085 WWE      NYSE         WORLD WRESTLING ENTMNT         3061      32181.30  0.005129 03 Consumer Discretionary         0350 Media                                            0350480 Entertainment                                    
20110429 981811102 US9818111026 WOR      NYSE         WORTHINGTON INDUSTRIES        22543     486263.30  0.077500 07 Materials & Processing         0740 Metals & Minerals                                0740630 Metal Fabricating                                
20110429 98235T107 US98235T1079 WMGI     NASDAQ       WRIGHT MEDICAL GROUP INC      14361     237396.42  0.037836 02 Health Care                    0220 Medical Equipment & Services                     0220507 Medical & Dental Instruments & Supplies          
20110429 983857103 US9838571035 XRIT     NASDAQ       X-RITE INC                    33397     163979.27  0.026135 08 Producer Durables              0830 Scientific Instruments & Services                0830524 Scientific Instruments: Control & Filter         
20110429 98416J118 US98416J1189 XRM      NYSE         XERIUM TECHNOLOGIES INC        1362      31413.95  0.005007 08 Producer Durables              0810 Machinery                                        0810610 Machinery: Specialty                             
20110429 987184108 US9871841089 YORW     NASDAQ       YORK WATER COMPANY            12608     220135.68  0.035085 11 Utilities                      1110 Utilities                                        1110882 Utilities: Water                                 
20110429 987520103 US9875201033 YDNT     NASDAQ       YOUNG INNOVATIONS INC          3665     113684.95  0.018119 02 Health Care                    0220 Medical Equipment & Services                     0220507 Medical & Dental Instruments & Supplies          
20110429 98975F101 US98975F1012 ZRAN     NASDAQ       ZORAN CORP                    46173     483427.60  0.077048 01 Technology                     0120 Electronics                                      0120476 Semiconductors & Components                      
20110429 98975W104 US98975W1045 ZOLT     NASDAQ       ZOLTEK COMPANIES INC          27768     356818.80  0.056870 07 Materials & Processing         0720 Chemicals and Synthetics                         0720845 Synthetic Fibers & Chemicals                     
20110429 98978L105 US98978L1052 ZGNX     NASDAQ       ZOGENIX INC                    1317       6546.09  0.001043 02 Health Care                    0230 Pharmaceuticals & Biotech                        0230460 Pharmaceuticals                                  
20110429 989855101 US9898551018 ZIGO     NASDAQ       ZYGO CORP                     14790     221102.53  0.035239 08 Producer Durables              0830 Scientific Instruments & Services                0830474 Scientific Instruments: Gauges & Meters          
20110429 G0129K104 BMG0129K1045 AYR      NYSE         AIRCASTLE LTD                 50746     632295.16  0.100775 08 Producer Durables              0840 Transportation & Freight                         0840808 Commercial Services: Rental & Leasing            
20110429 G0229R108 BMG0229R1088 ALTE     NASDAQ       ALTERRA CAPITAL HOLDINGS      84646    1860519.08  0.296529 10 Financial Services             1030 Insurance                                        1030535 Insurance: Multi-Line                            
20110429 G02995101 BMG029951016 ASI      NYSE         AMERICAN SAFETY INS HLDG      10350     210726.00  0.033585 10 Financial Services             1030 Insurance                                        1030542 Insurance: Property-Casualty                     
20110429 G0464B107 BMG0464B1072 AGII     NASDAQ       ARGO GROUP INTL               27445     862047.45  0.137393 10 Financial Services             1030 Insurance                                        1030542 Insurance: Property-Casualty                     
20110429 G2022L114 KYG2022L1142 CHINA    NASDAQ       CDC CORP                      29609      94748.80  0.015101 01 Technology                     0130 Information Technology                           0130439 Computer Services Software & Systems             
20110429 G23773107 KYG237731073 CWCO     NASDAQ       CONSOLIDATED WATER CO         14547     142706.07  0.022744 11 Utilities                      1110 Utilities                                        1110882 Utilities: Water                                 
20110429 G3075P101 BMG3075P1014 ESGR     NASDAQ       ENSTAR GROUP LIMITED           6571     736937.65  0.117453 10 Financial Services             1030 Insurance                                        1030542 Insurance: Property-Casualty                     
20110429 G3323L100 KYG3323L1005 FN       NYSE         FABRINET                       2941      67812.50  0.010808 01 Technology                     0120 Electronics                                      0120643 Technology: Misc                                 
20110429 G36738105 KYG367381053 FDP      NYSE         FRESH DEL MONTE PRODUCE       37655    1020827.05  0.162699 04 Consumer Staples               0410 Food/Beverage & Tobacco                          0410305 Agriculture Fishing & Ranching                   
20110429 G38490200 BMG384902000 GFC      NYSE         GEROVA FINANCIAL GROUP         1333       6998.25  0.001115 10 Financial Services             1030 Insurance                                        1030542 Insurance: Property-Casualty                     
20110429 G3921A175 BMG3921A1751 GLBC     NASDAQ       GLOBAL CROSSING LTD           11850     277074.39  0.044160 11 Utilities                      1110 Utilities                                        1110880 Utilities: Telecommunications                    
20110429 G39300101 BMG393001018 GSOL     NASDAQ       GLOBAL SOURCES LTD             1149      14074.19  0.002243 08 Producer Durables              0850 Commercial Services                              0850546 International Trade & Diversified Logistics      
20110429 G39319101 IE00B5NH3H04 GBLI     NASDAQ       GLOBAL INDEMNITY PLC          13771     351711.34  0.056056 10 Financial Services             1030 Insurance                                        1030542 Insurance: Property-Casualty                     
20110429 G4095J109 KYG4095J1094 GLRE     NASDAQ       GREENLIGHT CAPITAL RE LT      28295     796504.25  0.126947 10 Financial Services             1030 Insurance                                        1030542 Insurance: Property-Casualty                     
20110429 G4388N106 BMG4388N1065 HELE     NASDAQ       HELEN OF TROY LTD             30652     953890.24  0.152031 03 Consumer Discretionary         0320 Consumer Products                                0320521 Household Equip & Products                       
20110429 G5299G106 BMG5299G1069 VLCCF    NASDAQ       KNIGHTSBRIDGE TANKERS         24426     546898.14  0.087164 08 Producer Durables              0840 Transportation & Freight                         0840830 Shipping                                         
20110429 G5753U112 BMG5753U1128 MHLD     NASDAQ       MAIDEN HOLDINGS LTD           49625     369706.25  0.058924 10 Financial Services             1030 Insurance                                        1030535 Insurance: Multi-Line                            
20110429 G62185106 BMG621851069 MRH      NYSE         MONTPELIER RE HOLDINGS        62204    1125270.36  0.179345 10 Financial Services             1030 Insurance                                        1030542 Insurance: Property-Casualty                     
20110429 G6331P104 BMG6331P1041 AOSL     NASDAQ       ALPHA & OMEGA SEMICON          4588      65047.06  0.010367 01 Technology                     0120 Electronics                                      0120476 Semiconductors & Components                      
20110429 G65773106 BMG657731060 NAT      NYSE         NORDIC AMERICAN TANKER        46899    1077739.02  0.171770 08 Producer Durables              0840 Transportation & Freight                         0840830 Shipping                                         
20110429 G67743107 BMG677431071 OEH      NYSE         ORIENT-EXPRESS HOTELS        102373    1256116.71  0.200199 03 Consumer Discretionary         0340 Leisure                                          0340514 Hotel/Motel                                      
20110429 G7127P100 BMG7127P1005 PTP      NYSE         PLATINUM UNDERWRITER HLD      37414    1414623.34  0.225462 10 Financial Services             1030 Insurance                                        1030535 Insurance: Multi-Line                            
20110429 G72457107 BMG724571077 PRS      NYSE         PRIMUS GUARANTY LTD           16224      79659.84  0.012696 10 Financial Services             1030 Insurance                                        1030535 Insurance: Multi-Line                            
20110429 G79978105 BMG799781056 BOX      NYSE         SEACUBE CONTAINER LEASIN       9843     159744.16  0.025460 08 Producer Durables              0840 Transportation & Freight                         0840808 Commercial Services: Rental & Leasing            
20110429 G81075106 BMG810751062 SFL      NYSE         SHIP FINANCE INTL             44705     893652.95  0.142430 08 Producer Durables              0840 Transportation & Freight                         0840830 Shipping                                         
20110429 G82245104 KYG822451046 SMOD     NASDAQ       SMART MODULAR TECH            21281     194516.93  0.031002 01 Technology                     0120 Electronics                                      0120463 Electronic Components                            
20110429 G93205113 KYG932051132 VTG      NYSE AMEX    VANTAGE DRILLING COMPANY     152057     270661.46  0.043138 06 Energy                         0620 Non-Renewable Energy                             0620660 Offshore Drilling & Other Services               
20110429 G9456A100 BMG9456A1009 GLNG     NASDAQ       GOLAR LNG LTD BERMUDA         34102    1110358.78  0.176969 06 Energy                         0610 Energy Equipment & Services                      0610600 Oil Well Equipment & Services                    
20110429 L3466T104 LU0490650438 FSR      NYSE         FLAGSTONE REINSURANCE         44649     375498.09  0.059847 10 Financial Services             1030 Insurance                                        1030535 Insurance: Multi-Line                            
20110429 M87245102 IL0010909351 ELOS     NASDAQ       SYNERON MEDICAL LTD           27047     339428.81  0.054098 02 Health Care                    0220 Medical Equipment & Services                     0220471 Medical Equipment                                
20110429 P16994132 PAP169941328 BLX      NYSE         BANCO LATINOAMERICANO         27555     478354.80  0.076240 10 Financial Services             1010 Banks                                            1010400 Banks: Diversified                               
20110429 P94398107 BSP943981071 ULTR     NASDAQ       ULTRAPETROL BAHAMAS LTD       22128     120597.60  0.019221 08 Producer Durables              0840 Transportation & Freight                         0840830 Shipping                                         
20110429 V3267N107 LR0008764684 EXM      NYSE         EXCEL MARITIME CARRIERS       39798     159589.98  0.025435 08 Producer Durables              0840 Transportation & Freight                         0840830 Shipping                                         
20110429 Y0553W103 MHY0553W1030 BALT     NYSE         BALTIC TRADING LIMITED        16341     130891.41  0.020861 08 Producer Durables              0840 Transportation & Freight                         0840830 Shipping                                         
20110429 Y2065G105 MHY2065G1052 DHT      NYSE         DHT HOLDINGS INC              64347     278622.51  0.044407 08 Producer Durables              0840 Transportation & Freight                         0840830 Shipping                                         
20110429 Y2187A101 MHY2187A1010 EGLE     NASDAQ       EAGLE BULK SHIPPING INC       62127     213095.61  0.033963 08 Producer Durables              0840 Transportation & Freight                         0840830 Shipping                                         
20110429 Y2685T107 MHY2685T1073 GNK      NYSE         GENCO SHIPPING & TRADING      28361     237948.79  0.037924 08 Producer Durables              0840 Transportation & Freight                         0840830 Shipping                                         
20110429 Y2693R101 MHY2693R1018 GMR      NYSE         GENERAL MARITIME CORP         78680     168375.20  0.026836 08 Producer Durables              0840 Transportation & Freight                         0840830 Shipping                                         
20110429 Y7542C106 MHY7542C1066 STNG     NYSE         SCORPIO TANKERS INC            3288      38709.52  0.006170 08 Producer Durables              0840 Transportation & Freight                         0840830 Shipping                                         
20110429 Y8565N102 MHY8565N1022 TNK      NYSE         TEEKAY TANKERS LTD            37745     354803.00  0.056548 08 Producer Durables              0840 Transportation & Freight                         0840830 Shipping                                         
