Date     Cusip     ISIN         Ticker   Exchange     Name                         Shares     Mkt Value    Weight ES Economic Sector                SubS SubSector                                        IND     Industry                                         
-------- --------- ------------ -------  ------------ ------------------------- --------- ------------- --------- -- ------------------------------ ---- ------------------------------------------------ ------- ------------------------------------------------ 
20160429 000361105 US0003611052 AIR      NYSE         AAR CORP                      35475     852819.00  0.101190 08 Producer Durables              0840 Transportation & Freight                         0840300 Aerospace                                        
20160429 00081T108 US00081T1088 ACCO     NYSE         ACCO BRANDS CORP             109913    1048570.02  0.124416 08 Producer Durables              0820 Manufacturing & Production                       0820650 Office Supplies Equipment                        
20160429 000957100 US0009571003 ABM      NYSE         ABM INDUSTRIES INC            55992    1801262.64  0.213726 08 Producer Durables              0850 Commercial Services                              0850484 Environmental Maint & Security Service           
20160429 001228105 US0012281053 MITT     NYSE         AG MORTGAGE INVT TR INC       28389     380128.71  0.045104 10 Financial Services             1060 Real Estate Investment Trusts                    1060930 Mortgage REIT: Residential                       
20160429 001547108 US0015471081 AKS      NYSE         AK STEEL HOLDING CORP        177806     832132.08  0.098735 07 Materials & Processing         0740 Metals & Minerals                                0740835 Steel                                            
20160429 00165C104 US00165C1045 AMC      NYSE         AMC ENTERTAINMENT             19682     554611.26  0.065806 03 Consumer Discretionary         0350 Media                                            0350480 Entertainment                                    
20160429 00234P102 US00234P1021 AVHI     NASDAQ       A V HOMES INC                 12379     142358.50  0.016891 10 Financial Services             1050 Real Estate                                      1050802 Real Estate Holding and Development              
20160429 002444107 US0024441075 AVX      NYSE         AVX CORP                      46203     610803.66  0.072474 01 Technology                     0120 Electronics                                      0120463 Electronic Components                            
20160429 002896207 US0028962076 ANF      NYSE         ABERCROMBIE & FITCH           69551    1859098.23  0.220588 03 Consumer Discretionary         0360 Retail                                           0360834 Specialty Retail                                 
20160429 003830106 US0038301067 AXAS     NASDAQ       ABRAXAS PETE CORP             93900     142728.00  0.016935 06 Energy                         0620 Non-Renewable Energy                             0620670 Oil: Crude Producers                             
20160429 003881307 US0038813079 ACTG     NASDAQ       ACACIA RESEARCH CORP          51050     246061.00  0.029196 01 Technology                     0120 Electronics                                      0120463 Electronic Components                            
20160429 004225108 US0042251084 ACAD     NASDAQ       ACADIA PHARMACEUTICALS         6487     209548.12  0.024864 02 Health Care                    0230 Pharmaceuticals & Biotech                        0230412 Biotechnology                                    
20160429 004239109 US0042391096 AKR      NYSE         ACADIA REALTY TRUST           68785    2318054.50  0.275045 10 Financial Services             1060 Real Estate Investment Trusts                    1060908 Equity REIT: Retail                              
20160429 004337101 US0043371014 ANCX     NASDAQ       ACCESS NATL CORP               7268     142888.88  0.016954 10 Financial Services             1010 Banks                                            1010400 Banks: Diversified                               
20160429 00439T206 US00439T2069 ACW      NYSE         ACCURIDE CORP                  3499       5669.43  0.000673 08 Producer Durables              0840 Transportation & Freight                         0840350 Commercial Vehicles & Parts                      
20160429 004446100 US0044461004 ACET     NASDAQ       ACETO CORP                     3726      83593.20  0.009919 07 Materials & Processing         0720 Chemicals and Synthetics                         0720433 Chemicals: Diversified                           
20160429 00461U105 US00461U1051 ACRS     NASDAQ       ACLARIS THERAPEUTICS            597      11049.12  0.001311 02 Health Care                    0230 Pharmaceuticals & Biotech                        0230412 Biotechnology                                    
20160429 00484M106 US00484M1062 ACOR     NASDAQ       ACORDA THERAPEUTICS INC        3765      97340.97  0.011550 02 Health Care                    0230 Pharmaceuticals & Biotech                        0230412 Biotechnology                                    
20160429 00508X203 US00508X2036 ATU      NYSE         ACTUANT CORP                  59559    1590820.89  0.188756 08 Producer Durables              0810 Machinery                                        0810584 Machinery: Industrial                            
20160429 005094107 US0050941071 ACTA     NASDAQ       ACTUA CORPORATION             40593     384821.64  0.045660 01 Technology                     0130 Information Technology                           0130439 Computer Services Software & Systems             
20160429 005125109 US0051251090 ACXM     NASDAQ       ACXIOM CORP                   78174    1717482.78  0.203785 01 Technology                     0130 Information Technology                           0130439 Computer Services Software & Systems             
20160429 00548A106 US00548A1060 ADMS     NASDAQ       ADAMAS PHARMACEUTICALS        12198     205902.24  0.024431 02 Health Care                    0230 Pharmaceuticals & Biotech                        0230412 Biotechnology                                    
20160429 006351308 US0063513081 AE       NYSE MKT     ADAMS RESOURCES & ENERGY       2133      85853.25  0.010187 06 Energy                         0620 Non-Renewable Energy                             0620605 Oil: Refining & Marketing                        
20160429 006739106 US0067391062 ADUS     NASDAQ       ADDUS HOMECARE CORP            5771     106749.44  0.012666 02 Health Care                    0210 Health Care Services                             0210499 Health Care Services                             
20160429 00738A106 US00738A1060 ADTN     NASDAQ       ADTRAN INC                    49928     964608.96  0.114454 01 Technology                     0140 Telecommunication                                0140448 Communications Technology                        
20160429 00770F104 US00770F1049 AEGN     NASDAQ       AEGION CORP                   36668     778461.64  0.092367 08 Producer Durables              0820 Manufacturing & Production                       0820443 Construction                                     
20160429 007800105 US0078001056 AJRD     NYSE         AEROJET ROCKETDYNE HLDGS      33178     601185.36  0.071333 08 Producer Durables              0840 Transportation & Freight                         0840300 Aerospace                                        
20160429 007903107 US0079031078 AMD      NASDAQ       ADVANCED MICRO DEVICES       356213    1264554.87  0.150044 01 Technology                     0120 Electronics                                      0120476 Semiconductors & Components                      
20160429 007973100 US0079731008 AEIS     NASDAQ       ADVANCED ENERGY INDS INC      18769     607191.00  0.072045 08 Producer Durables              0820 Manufacturing & Production                       0820734 Power Transmission Equip                         
20160429 008073108 US0080731088 AVAV     NASDAQ       AEROVIRONMENT INC             19717     569426.96  0.067564 08 Producer Durables              0840 Transportation & Freight                         0840300 Aerospace                                        
20160429 00847G705 US00847G7051 AGEN     NASDAQ       AGENUS INC                    15049      52974.66  0.006286 02 Health Care                    0230 Pharmaceuticals & Biotech                        0230412 Biotechnology                                    
20160429 00847J105 US00847J1051 AGYS     NASDAQ       AGILYSYS INC                  15340     163831.20  0.019439 01 Technology                     0120 Electronics                                      0120475 Electronics                                      
20160429 008492100 US0084921008 ADC      NYSE         AGREE REALTY CORP             20613     799372.14  0.094848 10 Financial Services             1060 Real Estate Investment Trusts                    1060908 Equity REIT: Retail                              
20160429 00900T107 US00900T1079 AIMT     NASDAQ       AIMMUNE THERAPEUTICS INC       1157      14984.50  0.001778 02 Health Care                    0230 Pharmaceuticals & Biotech                        0230412 Biotechnology                                    
20160429 00922R105 US00922R1059 ATSG     NASDAQ       AIR TRANSPORT SERVICES        52774     743585.66  0.088229 08 Producer Durables              0840 Transportation & Freight                         0840310 Air Transport                                    
20160429 00972D105 US00972D1054 AKBA     NASDAQ       AKEBIA THERAPEUTICS INC       32041     300864.99  0.035699 02 Health Care                    0230 Pharmaceuticals & Biotech                        0230412 Biotechnology                                    
20160429 011311107 US0113111076 ALG      NYSE         ALAMO GROUP INC                9677     546169.88  0.064805 08 Producer Durables              0810 Machinery                                        0810570 Machinery: Agricultural                          
20160429 011642105 US0116421050 ALRM     NASDAQ       ALARM.COM HOLDINGS INC         1811      41314.61  0.004902 01 Technology                     0130 Information Technology                           0130439 Computer Services Software & Systems             
20160429 012348108 US0123481089 AIN      NYSE         ALBANY INTERNATIONAL          24428     984172.49  0.116775 08 Producer Durables              0810 Machinery                                        0810610 Machinery: Specialty                             
20160429 014491104 US0144911049 ALEX     NYSE         ALEXANDER & BALDWIN INC       48853    1868138.72  0.221661 10 Financial Services             1050 Real Estate                                      1050803 Diversified Real Estate Activities               
20160429 014752109 US0147521092 ALX      NYSE         ALEXANDERS INC                  140      53739.11  0.006376 10 Financial Services             1060 Real Estate Investment Trusts                    1060908 Equity REIT: Retail                              
20160429 016230104 US0162301040 ALCO     NASDAQ       ALICO INC                      3525     101895.61  0.012090 04 Consumer Staples               0410 Food/Beverage & Tobacco                          0410305 Agriculture Fishing & Ranching                   
20160429 01748H107 US01748H1077 ABTX     NASDAQ       ALLEGIANCE BANCSHARES          2989      62918.45  0.007465 10 Financial Services             1010 Banks                                            1010400 Banks: Diversified                               
20160429 018522300 US0185223007 ALE      NYSE         ALLETE INC                    48751    2739318.69  0.325029 11 Utilities                      1110 Utilities                                        1110870 Utilities: Electrical                            
20160429 018606301 US0186063014 AIQ      NASDAQ       ALLIANCE HEALTHCARE SVCS       3446      24775.73  0.002940 02 Health Care                    0210 Health Care Services                             0210499 Health Care Services                             
20160429 020409108 US0204091088 AFAM     NASDAQ       ALMOST FAMILY INC              7185     301841.85  0.035815 02 Health Care                    0210 Health Care Services                             0210499 Health Care Services                             
20160429 020520102 US0205201025 ALJ      NYSE         ALON USA ENERGY INC           31230     327915.00  0.038908 06 Energy                         0620 Non-Renewable Energy                             0620605 Oil: Refining & Marketing                        
20160429 02153W100 US02153W1009 RESI     NYSE         ALTISOURCE RESIDENTIAL        57203     664698.86  0.078869 10 Financial Services             1050 Real Estate                                      1050802 Real Estate Holding and Development              
20160429 02153X108 VI02153X1080 AAMC     NYSE MKT     ALTISOURCE ASSET MGMT           139       2339.14  0.000278 10 Financial Services             1040 Investment Banking & Brokerage Services          1040544 Asset Management & Custodian                     
20160429 02208R106 US02208R1068 AIMC     NASDAQ       ALTRA INDUSTRIAL MOTION        5254     150806.88  0.017894 08 Producer Durables              0810 Machinery                                        0810584 Machinery: Industrial                            
20160429 023139884 US0231398845 AMBC     NASDAQ       AMBAC FINL GROUP INC          40054     650069.28  0.077133 10 Financial Services             1030 Insurance                                        1030535 Insurance: Multi-Line                            
20160429 02318Y108 US02318Y1082 AMBR     NYSE         AMBER RD INC                   1519       7460.91  0.000885 01 Technology                     0130 Information Technology                           0130439 Computer Services Software & Systems             
20160429 023436108 US0234361089 AMED     NASDAQ       AMEDISYS INC                   5785     297906.47  0.035348 02 Health Care                    0210 Health Care Services                             0210499 Health Care Services                             
20160429 02361E108 US02361E1082 AMRC     NYSE         AMERESCO INC                  20062      89677.14  0.010640 06 Energy                         0630 Alternative Energy                               0630478 Alternative Energy                               
20160429 024013104 US0240131047 AAT      NYSE         AMERICAN ASSETS TRST INC       4088     162176.91  0.019243 10 Financial Services             1060 Real Estate Investment Trusts                    1060908 Equity REIT: Retail                              
20160429 02504A104 US02504A1043 MTGE     NASDAQ       AMERICAN CAP MTG INVT         47626     706293.58  0.083804 10 Financial Services             1060 Real Estate Investment Trusts                    1060930 Mortgage REIT: Residential                       
20160429 02553E106 US02553E1064 AEO      NYSE         AMERICAN EAGLE OUTFITTER      20775     297301.48  0.035276 03 Consumer Discretionary         0360 Retail                                           0360834 Specialty Retail                                 
20160429 025676206 US0256762065 AEL      NYSE         AMERICAN EQUITY INVST         81446    1140244.00  0.135294 10 Financial Services             1030 Insurance                                        1030528 Insurance: Life                                  
20160429 027745108 US0277451086 AMNB     NASDAQ       AMERICAN NATL BANKSHARES       8728     233299.44  0.027682 10 Financial Services             1010 Banks                                            1010400 Banks: Diversified                               
20160429 02913V103 US02913V1035 APEI     NASDAQ       AMER PUBLIC EDUCATION         16266     376720.56  0.044699 03 Consumer Discretionary         0330 Consumer Services                                0330461 Education Services                               
20160429 02916P103 US02916P1030 ARII     NASDAQ       AMERICAN RAILCAR IND           6513     267083.74  0.031690 08 Producer Durables              0840 Transportation & Freight                         0840770 Railroad Equipment                               
20160429 029429107 US0294291077 ASEI     NASDAQ       AMERICAN SCIENCE & ENGR        7387     211637.55  0.025111 01 Technology                     0120 Electronics                                      0120475 Electronics                                      
20160429 029683109 US0296831094 AMSWA    NASDAQ       AMERICAN SOFTWARE INC         20657     188797.60  0.022401 01 Technology                     0130 Information Technology                           0130439 Computer Services Software & Systems             
20160429 029899101 US0298991011 AWR      NYSE         AMERICAN STATES WATER CO      34607    1442744.15  0.171186 11 Utilities                      1110 Utilities                                        1110882 Utilities: Water                                 
20160429 030371108 US0303711081 AVD      NYSE         AMERICAN VANGUARD CORP        25596     423607.20  0.050262 07 Materials & Processing         0720 Chemicals and Synthetics                         0720433 Chemicals: Diversified                           
20160429 03062T105 US03062T1051 CRMT     NASDAQ       AMERICAS CAR-MART INC          7020     186504.58  0.022129 03 Consumer Discretionary         0360 Retail                                           0360834 Specialty Retail                                 
20160429 03071H100 US03071H1005 AMSF     NASDAQ       AMERISAFE INC                 18979    1022588.52  0.121334 10 Financial Services             1030 Insurance                                        1030542 Insurance: Property-Casualty                     
20160429 03076K108 US03076K1088 ABCB     NASDAQ       AMERIS BANCORP                32185    1010609.00  0.119912 10 Financial Services             1010 Banks                                            1010400 Banks: Diversified                               
20160429 031001100 US0310011004 ATLO     NASDAQ       AMES NATL CORP                 9311     240130.69  0.028492 10 Financial Services             1010 Banks                                            1010400 Banks: Diversified                               
20160429 031652100 US0316521006 AMKR     NASDAQ       AMKOR TECHNOLOGY INC          98914     564798.94  0.067015 01 Technology                     0120 Electronics                                      0120476 Semiconductors & Components                      
20160429 03209R103 US03209R1032 AMPH     NASDAQ       AMPHASTAR PHARMA INC          10706     131685.68  0.015625 02 Health Care                    0230 Pharmaceuticals & Biotech                        0230460 Pharmaceuticals                                  
20160429 03211L102 US03211L1026 BETR     NYSE         AMPLIFY SNACK BRANDS INC       6315      97314.15  0.011547 04 Consumer Staples               0410 Food/Beverage & Tobacco                          0410494 Foods                                            
20160429 03232P405 US03232P4054 AMSG     NASDAQ       AMSURG CORP                   40844    3307541.86  0.392451 02 Health Care                    0210 Health Care Services                             0210504 Health Care Facilities                           
20160429 032657207 US0326572072 ALOG     NASDAQ       ANALOGIC CORP                 11316     893786.38  0.106051 02 Health Care                    0220 Medical Equipment & Services                     0220471 Medical Equipment                                
20160429 03283P106 US03283P1066 ABCW     NASDAQ       ANCHOR BANCORP WISCONSIN       7666     366894.76  0.043533 10 Financial Services             1010 Banks                                            1010400 Banks: Diversified                               
20160429 034164103 US0341641035 ANDE     NASDAQ       ANDERSONS INC                 28400     951684.00  0.112920 04 Consumer Staples               0410 Food/Beverage & Tobacco                          0410305 Agriculture Fishing & Ranching                   
20160429 03475V101 US03475V1017 ANGO     NASDAQ       ANGIODYNAMICS INC             25221     308957.25  0.036659 02 Health Care                    0220 Medical Equipment & Services                     0220507 Medical & Dental Instruments & Supplies          
20160429 035255108 US0352551081 ANIK     NASDAQ       ANIKA THERAPEUTICS INC         3188     145595.40  0.017275 02 Health Care                    0220 Medical Equipment & Services                     0220507 Medical & Dental Instruments & Supplies          
20160429 035290105 US0352901054 AXE      NYSE         ANIXTER INTERNATIONAL         28530    1777419.00  0.210897 01 Technology                     0140 Telecommunication                                0140448 Communications Technology                        
20160429 037347101 US0373471012 ANH      NYSE         ANWORTH MORTGAGE ASSET        98944     467015.68  0.055413 10 Financial Services             1060 Real Estate Investment Trusts                    1060932 Mortgage REIT: Diversified                       
20160429 037604105 US0376041051 APOL     NASDAQ       APOLLO EDUCATION GROUP        94342     735867.60  0.087313 03 Consumer Discretionary         0330 Consumer Services                                0330461 Education Services                               
20160429 03762U105 US03762U1051 ARI      NYSE         APOLLO COMMERCIAL RE          58429     930773.97  0.110439 10 Financial Services             1060 Real Estate Investment Trusts                    1060931 Mortgage REIT: Commercial                        
20160429 03763V102 US03763V1026 AMTG     NYSE         APOLLO RESIDENTIAL MTG        32097     435235.32  0.051642 10 Financial Services             1020 Consumer Finance & Credit Services               1020487 Commercial Finance & Mortgage Co                 
20160429 03783C100 US03783C1009 APPF     NASDAQ       APPFOLIO INC                   1266      15882.22  0.001884 01 Technology                     0130 Information Technology                           0130439 Computer Services Software & Systems             
20160429 03820C105 US03820C1053 AIT      NYSE         APPLIED INDUSTRIAL TECH       24257    1111654.13  0.131901 08 Producer Durables              0810 Machinery                                        0810584 Machinery: Industrial                            
20160429 03822W406 US03822W4069 AMCC     NASDAQ       APPLIED MICRO CIRCUITS        59271     369849.62  0.043884 01 Technology                     0120 Electronics                                      0120476 Semiconductors & Components                      
20160429 03823U102 US03823U1025 AAOI     NASDAQ       APPLIED OPTOELECTRONICS        3158      35372.74  0.004197 01 Technology                     0140 Telecommunication                                0140849 Telecommunications Equipment                     
20160429 03834A103 US03834A1034 AREX     NASDAQ       APPROACH RESOURCES INC        36132     105866.76  0.012561 06 Energy                         0620 Non-Renewable Energy                             0620670 Oil: Crude Producers                             
20160429 03874P101 US03874P1012 PETX     NASDAQ       ARATANA THERAPEUTICS INC       2786      16745.39  0.001987 02 Health Care                    0230 Pharmaceuticals & Biotech                        0230460 Pharmaceuticals                                  
20160429 039014105 US0390141051 RKDA     NASDAQ       ARCADIA BIOSCIENCES INC        5124      11014.79  0.001307 04 Consumer Staples               0410 Food/Beverage & Tobacco                          0410305 Agriculture Fishing & Ranching                   
20160429 03937C105 US03937C1053 ARCB     NASDAQ       ARCBEST CORPORATION           17529     334623.23  0.039704 08 Producer Durables              0840 Transportation & Freight                         0840865 Truckers                                         
20160429 03957W106 US03957W1062 AROC     NYSE         ARCHROCK INC                  69411     683698.35  0.081123 06 Energy                         0610 Energy Equipment & Services                      0610600 Oil Well Equipment & Services                    
20160429 039670104 US0396701049 ACAT     NASDAQ       ARCTIC CAT INC                 7993     132906.98  0.015770 03 Consumer Discretionary         0340 Leisure                                          0340804 Recreational Vehicles & Boats                    
20160429 04010E109 US04010E1091 AGX      NYSE         ARGAN INC                      1516      51847.81  0.006152 08 Producer Durables              0850 Commercial Services                              0850479 Engineering & Contracting Services               
20160429 04013V108 US04013V1089 ACRE     NYSE         ARES COML REAL ESTATE         27114     325368.00  0.038606 10 Financial Services             1060 Real Estate Investment Trusts                    1060931 Mortgage REIT: Commercial                        
20160429 041356205 US0413562051 AI       NYSE         ARLINGTON ASSET INVT          22862     295834.28  0.035102 10 Financial Services             1040 Investment Banking & Brokerage Services          1040544 Asset Management & Custodian                     
20160429 04208T108 US04208T1088 AHH      NYSE         ARMADA HOFFLER PPTYS INC      29623     346589.10  0.041124 10 Financial Services             1060 Real Estate Investment Trusts                    1060916 Equity REIT: Diversified                         
20160429 042315507 US0423155078 ARR      NYSE         ARMOUR RESIDENTIAL REIT       36682     780592.96  0.092620 10 Financial Services             1060 Real Estate Investment Trusts                    1060930 Mortgage REIT: Residential                       
20160429 04269X105 US04269X1054 ARRY     NASDAQ       ARRAY BIOPHARMA INC           25955      82797.75  0.009824 02 Health Care                    0230 Pharmaceuticals & Biotech                        0230412 Biotechnology                                    
20160429 042744102 US0427441029 AROW     NASDAQ       ARROW FINANCIAL CORP          11203     315476.48  0.037432 10 Financial Services             1010 Banks                                            1010400 Banks: Diversified                               
20160429 04280A100 US04280A1007 ARWR     NASDAQ       ARROWHEAD PHARMACEUTICAL      26833     155366.53  0.018435 02 Health Care                    0230 Pharmaceuticals & Biotech                        0230412 Biotechnology                                    
20160429 043113208 US0431132085 ARTNA    NASDAQ       ARTESIAN RESOURCES CORP        7836     211493.64  0.025094 11 Utilities                      1110 Utilities                                        1110882 Utilities: Water                                 
20160429 04351G101 US04351G1013 ASNA     NASDAQ       ASCENA RETAIL GROUP INC      140395    1236872.53  0.146759 03 Consumer Discretionary         0360 Retail                                           0360834 Specialty Retail                                 
20160429 043632108 US0436321089 ASCMA    NASDAQ       ASCENT CAPITAL GROUP INC      13308     200551.56  0.023796 08 Producer Durables              0830 Scientific Instruments & Services                0830524 Scientific Instruments: Control & Filter         
20160429 044102101 US0441021013 AHP      NYSE         ASHFORD HOSP PRIME            27385     306438.15  0.036360 10 Financial Services             1060 Real Estate Investment Trusts                    1060909 Equity REIT: Lodging and Resorts                 
20160429 044103109 US0441031095 AHT      NYSE         ASHFORD HOSPITALITY           83415     466289.85  0.055327 10 Financial Services             1060 Real Estate Investment Trusts                    1060909 Equity REIT: Lodging and Resorts                 
20160429 045396108 US0453961080 ASMB     NASDAQ       ASSEMBLY BIOSCIENCES INC        889       5336.71  0.000633 02 Health Care                    0230 Pharmaceuticals & Biotech                        0230412 Biotechnology                                    
20160429 046224101 US0462241011 ASTE     NASDAQ       ASTEC INDUSTRIES INC          18952     917276.80  0.108838 08 Producer Durables              0810 Machinery                                        0810577 Machinery: Construction & Handling               
20160429 046265104 US0462651045 AF       NYSE         ASTORIA FINANCIAL CORP        89976    1353239.04  0.160566 10 Financial Services             1010 Banks                                            1010820 Banks: Savings/Thrifts & Mortgage Lend           
20160429 04878Q863 CA04878Q8636 AT       NYSE         ATLANTIC PWR CORP            121894     324238.04  0.038472 11 Utilities                      1110 Utilities                                        1110870 Utilities: Electrical                            
20160429 049079205 US0490792050 ATNI     NASDAQ       ATLANTIC TELE-NETWORK         10258     737652.78  0.087525 11 Utilities                      1110 Utilities                                        1110880 Utilities: Telecommunications                    
20160429 049164205 US0491642056 AAWW     NASDAQ       ATLAS AIR WORLDWIDE HLDG      25004     998659.76  0.118494 08 Producer Durables              0840 Transportation & Freight                         0840310 Air Transport                                    
20160429 04963C209 US04963C2098 ATRC     NASDAQ       ATRICURE INC                   6979     110966.42  0.013167 02 Health Care                    0220 Medical Equipment & Services                     0220507 Medical & Dental Instruments & Supplies          
20160429 050095108 US0500951084 ATW      NYSE         ATWOOD OCEANICS INC           64645     624470.70  0.074096 06 Energy                         0620 Non-Renewable Energy                             0620660 Offshore Drilling & Other Services               
20160429 05366U100 US05366U1007 AVXS     NASDAQ       AVEXIS INC                      483      12090.00  0.001435 02 Health Care                    0230 Pharmaceuticals & Biotech                        0230412 Biotechnology                                    
20160429 05367P100 US05367P1003 AVID     NASDAQ       AVID TECHNOLOGY INC           11858      66170.45  0.007851 01 Technology                     0130 Information Technology                           0130439 Computer Services Software & Systems             
20160429 05379B107 US05379B1070 AVA      NYSE         AVISTA CORP                   62274    2495319.18  0.296078 11 Utilities                      1110 Utilities                                        1110870 Utilities: Electrical                            
20160429 054540109 US0545401095 ACLS     NASDAQ       AXCELIS TECHNOLOGIES INC     113529     324692.94  0.038526 01 Technology                     0120 Electronics                                      0120738 Production Technology Equipment                  
20160429 05463D100 US05463D1000 AXLL     NYSE         AXIALL CORP                   70234    1654010.70  0.196254 07 Materials & Processing         0720 Chemicals and Synthetics                         0720433 Chemicals: Diversified                           
20160429 05508R106 US05508R1068 BGS      NYSE         B & G FOODS INC                3257     134232.51  0.015927 04 Consumer Staples               0410 Food/Beverage & Tobacco                          0410494 Foods                                            
20160429 05540P100 US05540P1003 BBX      NYSE         BBX CAPITAL CORPORATION        2716      41880.72  0.004969 10 Financial Services             1010 Banks                                            1010820 Banks: Savings/Thrifts & Mortgage Lend           
20160429 05566T101 US05566T1016 BNCN     NASDAQ       BNC BANCORP                   25758     575941.64  0.068337 10 Financial Services             1010 Banks                                            1010400 Banks: Diversified                               
20160429 05573H108 US05573H1086 BLMT     NASDAQ       BSB BANCORP INC MD             8095     192418.15  0.022831 10 Financial Services             1010 Banks                                            1010820 Banks: Savings/Thrifts & Mortgage Lend           
20160429 057755209 US0577552096 BWINB    NASDAQ       BALDWIN & LYONS INC            9395     229613.80  0.027244 10 Financial Services             1030 Insurance                                        1030542 Insurance: Property-Casualty                     
20160429 05945F103 US05945F1030 BANF     NASDAQ       BANCFIRST CORP                 7285     454365.45  0.053912 10 Financial Services             1010 Banks                                            1010400 Banks: Diversified                               
20160429 059692103 US0596921033 BXS      NYSE         BANCORPSOUTH INC              96547    2267889.03  0.269093 10 Financial Services             1010 Banks                                            1010400 Banks: Diversified                               
20160429 05969A105 US05969A1051 TBBK     NASDAQ       BANCORP INC                   33710     191135.70  0.022679 10 Financial Services             1010 Banks                                            1010400 Banks: Diversified                               
20160429 05990K106 US05990K1060 BANC     NYSE         BANC OF CALIFORNIA INC        43966     894708.10  0.106160 10 Financial Services             1010 Banks                                            1010820 Banks: Savings/Thrifts & Mortgage Lend           
20160429 063425102 US0634251021 BMRC     NASDAQ       BANK OF MARIN BANCORP          5973     292796.46  0.034741 10 Financial Services             1010 Banks                                            1010400 Banks: Diversified                               
20160429 063750103 US0637501034 BKMU     NASDAQ       BANK MUTUAL CORP              46631     376778.48  0.044706 10 Financial Services             1010 Banks                                            1010820 Banks: Savings/Thrifts & Mortgage Lend           
20160429 06643P104 US06643P1049 BFIN     NASDAQ       BANKFINANCIAL CORP            18375     227115.00  0.026948 10 Financial Services             1010 Banks                                            1010820 Banks: Savings/Thrifts & Mortgage Lend           
20160429 06647F102 US06647F1021 RATE     NYSE         BANKRATE INC                  62192     568434.88  0.067447 01 Technology                     0130 Information Technology                           0130439 Computer Services Software & Systems             
20160429 06652V208 US06652V2088 BANR     NASDAQ       BANNER CORP                   20976     897353.28  0.106474 10 Financial Services             1010 Banks                                            1010400 Banks: Diversified                               
20160429 066849100 US0668491006 BHB      NYSE MKT     BAR HBR BANKSHARES             5973     207263.10  0.024592 10 Financial Services             1010 Banks                                            1010400 Banks: Diversified                               
20160429 067774109 US0677741094 BKS      NYSE         BARNES & NOBLE INC            50745     596253.75  0.070747 03 Consumer Discretionary         0360 Retail                                           0360834 Specialty Retail                                 
20160429 06777U101 US06777U1016 BNED     NYSE         BARNES & NOBLE EDUCATION      32070     300175.20  0.035617 03 Consumer Discretionary         0360 Retail                                           0360834 Specialty Retail                                 
20160429 067806109 US0678061096 B        NYSE         BARNES GROUP INC              54786    1779997.14  0.211203 08 Producer Durables              0820 Manufacturing & Production                       0820453 Diversified Manufacturing Operations             
20160429 06846N104 US06846N1046 BBG      NYSE         BILL BARRETT CORP             50038     398302.48  0.047260 06 Energy                         0620 Non-Renewable Energy                             0620670 Oil: Crude Producers                             
20160429 06985P100 US06985P1003 BAS      NYSE         BASIC ENERGY SERVICES         42636     136435.20  0.016188 06 Energy                         0610 Energy Equipment & Services                      0610600 Oil Well Equipment & Services                    
20160429 070203104 US0702031040 BSET     NASDAQ       BASSETT FURNITURE INDS         5422     159974.42  0.018981 03 Consumer Discretionary         0320 Consumer Products                                0320523 Household Furnishings                            
20160429 073271108 US0732711082 BV       NASDAQ       BAZAARVOICE INC               33374     111799.61  0.013265 01 Technology                     0130 Information Technology                           0130439 Computer Services Software & Systems             
20160429 073295107 US0732951076 BBCN     NASDAQ       BBCN BANCORP INC              79550    1242571.00  0.147435 10 Financial Services             1010 Banks                                            1010400 Banks: Diversified                               
20160429 073685109 US0736851090 BECN     NASDAQ       BEACON ROOFING SUPPLY         37367    1596686.44  0.189452 07 Materials & Processing         0710 Building Materials & Services                    0710427 Building: Roofing/Wallboard & Plumbing           
20160429 073844102 US0738441023 BSF      NASDAQ       BEAR STATE FINL INC           13328     131147.52  0.015561 10 Financial Services             1010 Banks                                            1010820 Banks: Savings/Thrifts & Mortgage Lend           
20160429 07556Q881 US07556Q8814 BZH      NYSE         BEAZER HOMES USA INC          32663     268489.86  0.031857 03 Consumer Discretionary         0320 Consumer Products                                0320501 Homebuilding                                     
20160429 075571109 US0755711092 BEBE     NASDAQ       BEBE STORES INC               28473      16024.60  0.001901 03 Consumer Discretionary         0360 Retail                                           0360834 Specialty Retail                                 
20160429 077347300 US0773473006 BELFB    NASDAQ       BEL FUSE INC                  10357     172547.62  0.020473 01 Technology                     0140 Telecommunication                                0140448 Communications Technology                        
20160429 08160H101 US08160H1014 BHE      NYSE         BENCHMARK ELECTRONICS         52399    1017588.58  0.120740 01 Technology                     0120 Electronics                                      0120643 Technology: Misc                                 
20160429 08171T102 US08171T1025 BNCL     NASDAQ       BENEFICIAL BANCORP INC        82709    1148828.01  0.136312 10 Financial Services             1010 Banks                                            1010400 Banks: Diversified                               
20160429 084680107 US0846801076 BHLB     NYSE         BERKSHIRE HILLS BANCORP       29518     801118.52  0.095055 10 Financial Services             1010 Banks                                            1010820 Banks: Savings/Thrifts & Mortgage Lend           
20160429 08579W103 US08579W1036 BERY     NYSE         BERRY PLASTICS GROUP          48357    1741819.14  0.206673 07 Materials & Processing         0730 Industrial Materials & Processes                 0730442 Containers & Packaging                           
20160429 08915P101 US08915P1012 BGFV     NASDAQ       BIG 5 SPORTING GOODS          18283     221041.47  0.026227 03 Consumer Discretionary         0360 Retail                                           0360834 Specialty Retail                                 
20160429 08986R101 US08986R1014 BH       NYSE         BIGLARI HOLDINGS INC           1658     619992.52  0.073564 03 Consumer Discretionary         0340 Leisure                                          0340810 Restaurants                                      
20160429 09058V103 US09058V1035 BCRX     NASDAQ       BIOCRYST PHARMACEUTICALS      14141      46101.60  0.005470 02 Health Care                    0230 Pharmaceuticals & Biotech                        0230412 Biotechnology                                    
20160429 09069N108 US09069N1081 BIOS     NASDAQ       BIOSCRIP INC                  68650     181236.00  0.021504 02 Health Care                    0210 Health Care Services                             0210503 Health Care Management Services                  
20160429 091826107 US0918261076 BBOX     NASDAQ       BLACK BOX CORP                15365     224636.30  0.026654 01 Technology                     0140 Telecommunication                                0140448 Communications Technology                        
20160429 09202G101 US09202G1013 BDE      NASDAQ       BLACK DIAMOND INC             20300      86271.89  0.010236 03 Consumer Discretionary         0340 Leisure                                          0340556 Leisure Time                                     
20160429 092113109 US0921131092 BKH      NYSE         BLACK HILLS CORP              51180    3100996.20  0.367943 11 Utilities                      1110 Utilities                                        1110870 Utilities: Electrical                            
20160429 095229100 US0952291005 BCOR     NASDAQ       BLUCORA INC                   40911     327697.11  0.038882 01 Technology                     0130 Information Technology                           0130439 Computer Services Software & Systems             
20160429 095573101 US0955731015 BHBK     NASDAQ       BLUE HILLS BANCORP INC        28045     408896.10  0.048517 10 Financial Services             1010 Banks                                            1010400 Banks: Diversified                               
20160429 09627J102 US09627J1025 BRG      NYSE MKT     BLUEROCK RESIDENT REIT        18847     206186.18  0.024465 10 Financial Services             1060 Real Estate Investment Trusts                    1060907 Equity REIT: Residential                         
20160429 096761101 US0967611015 BOBE     NASDAQ       BOB EVANS FARMS INC           18276     832261.72  0.098751 03 Consumer Discretionary         0340 Leisure                                          0340810 Restaurants                                      
20160429 09739C102 US09739C1027 WIFI     NASDAQ       BOINGO WIRELESS INC           16628     127870.89  0.015172 11 Utilities                      1110 Utilities                                        1110880 Utilities: Telecommunications                    
20160429 09739D100 US09739D1000 BCC      NYSE         BOISE CASCADE COMPANY          6404     133655.32  0.015859 07 Materials & Processing         0730 Industrial Materials & Processes                 0730496 Forest Products                                  
20160429 097793103 US0977931031 BCEI     NYSE         BONANZA CREEK ENER INC        49702     192843.76  0.022882 06 Energy                         0620 Non-Renewable Energy                             0620670 Oil: Crude Producers                             
20160429 101119105 US1011191053 BPFH     NASDAQ       BOSTON PRIVATE FINANCIAL      83051    1014883.22  0.120419 10 Financial Services             1010 Banks                                            1010400 Banks: Diversified                               
20160429 101388106 US1013881065 EPAY     NASDAQ       BOTTOMLINE TECHNOLOGIES        6302     154788.17  0.018366 01 Technology                     0130 Information Technology                           0130439 Computer Services Software & Systems             
20160429 104674106 US1046741062 BRC      NYSE         BRADY CORP                    47774    1265533.26  0.150160 08 Producer Durables              0830 Scientific Instruments & Services                0830524 Scientific Instruments: Control & Filter         
20160429 10567B109 US10567B1098 BBRG     NASDAQ       BRAVO BRIO RESTAURANT GR       1519      11200.93  0.001329 03 Consumer Discretionary         0340 Leisure                                          0340810 Restaurants                                      
20160429 108035106 US1080351067 BDGE     NASDAQ       BRIDGE BANCORP INC            14889     453221.16  0.053776 10 Financial Services             1010 Banks                                            1010400 Banks: Diversified                               
20160429 10807M105 US10807M1053 BPI      NYSE         BRIDGEPOINT ED INC            16879     161025.66  0.019106 03 Consumer Discretionary         0330 Consumer Services                                0330461 Education Services                               
20160429 109043109 US1090431099 BGG      NYSE         BRIGGS & STRATTON CO          44600     944182.00  0.112030 08 Producer Durables              0810 Machinery                                        0810579 Machinery: Engines                               
20160429 10921T101 US10921T1016 BCOV     NASDAQ       BRIGHTCOVE INC                 2016      12200.88  0.001448 01 Technology                     0130 Information Technology                           0130439 Computer Services Software & Systems             
20160429 110394103 US1103941035 BRS      NYSE         BRISTOW GROUP INC             34839     798509.88  0.094746 08 Producer Durables              0840 Transportation & Freight                         0840310 Air Transport                                    
20160429 11373M107 US11373M1071 BRKL     NASDAQ       BROOKLINE BANCORP INC         70050     797169.00  0.094587 10 Financial Services             1010 Banks                                            1010820 Banks: Savings/Thrifts & Mortgage Lend           
20160429 114340102 US1143401024 BRKS     NASDAQ       BROOKS AUTOMATION INC         67481     638370.26  0.075745 01 Technology                     0120 Electronics                                      0120738 Production Technology Equipment                  
20160429 117665109 US1176651099 BMTC     NASDAQ       BRYN MAWR BANK CORP           16788     477114.96  0.056611 10 Financial Services             1010 Banks                                            1010400 Banks: Diversified                               
20160429 120076104 US1200761047 BBW      NYSE         BUILD A BEAR WORKSHOP         12216     160881.90  0.019089 03 Consumer Discretionary         0360 Retail                                           0360834 Specialty Retail                                 
20160429 122017106 US1220171060 BURL     NYSE         BURLINGTON STORES INC          7842     446777.43  0.053012 03 Consumer Discretionary         0360 Retail                                           0360834 Specialty Retail                                 
20160429 12477X106 US12477X1063 CAI      NYSE         CAI INTERNATIONAL INC         16248     166054.56  0.019703 08 Producer Durables              0840 Transportation & Freight                         0840808 Commercial Services: Rental & Leasing            
20160429 124805102 US1248051021 CBZ      NYSE         CBIZ INC                      49492     503828.56  0.059781 08 Producer Durables              0850 Commercial Services                              0850365 Back Office Support HR & Consulting              
20160429 125071100 US1250711009 CDI      NYSE         CDI CORP                      14283     102123.45  0.012117 08 Producer Durables              0850 Commercial Services                              0850365 Back Office Support HR & Consulting              
20160429 125141101 US1251411013 CECE     NASDAQ       CECO ENVIRONMENTAL CORP       23280     153644.46  0.018230 08 Producer Durables              0830 Scientific Instruments & Services                0830735 Scientific Instruments: Pollution Control        
20160429 125906107 US1259061075 CSS      NYSE         CSS INDUSTRIES INC             9344     261258.24  0.030999 03 Consumer Discretionary         0320 Consumer Products                                0320521 Household Equip & Products                       
20160429 12591N109 US12591N1090 BNK      NYSE         C1 FINANCIAL INC               5949     145928.97  0.017315 10 Financial Services             1010 Banks                                            1010400 Banks: Diversified                               
20160429 126128107 US1261281075 CCNE     NASDAQ       CNB FINL CORP PA              14403     257669.67  0.030573 10 Financial Services             1010 Banks                                            1010400 Banks: Diversified                               
20160429 12618T105 US12618T1051 CRAI     NASDAQ       CRA INTERNATIONAL INC          9163     198837.10  0.023593 08 Producer Durables              0850 Commercial Services                              0850365 Back Office Support HR & Consulting              
20160429 12621E103 US12621E1038 CNO      NYSE         CNO FINANCIAL GROUP          185961    3416103.57  0.405332 10 Financial Services             1030 Insurance                                        1030528 Insurance: Life                                  
20160429 12634H101 US12634H1014 PMTS     NASDAQ       CPI CARD GROUP INC             3967      31462.28  0.003733 10 Financial Services             1020 Consumer Finance & Credit Services               1020489 Financial Data & Systems                         
20160429 126501105 US1265011056 CTS      NYSE         CTS CORP                      33197     550074.29  0.065268 01 Technology                     0120 Electronics                                      0120643 Technology: Misc                                 
20160429 126534106 US1265341065 CUNB     NASDAQ       CU BANCORP CALIF              16800     387072.00  0.045927 10 Financial Services             1010 Banks                                            1010400 Banks: Diversified                               
20160429 126600105 US1266001056 CVBF     NASDAQ       CVB FINANCIAL CORP           106257    1825495.26  0.216601 10 Financial Services             1010 Banks                                            1010400 Banks: Diversified                               
20160429 12673A108 US12673A1088 CYS      NYSE         CYS INVESTMENTS INC          158136    1282482.96  0.152171 10 Financial Services             1060 Real Estate Investment Trusts                    1060932 Mortgage REIT: Diversified                       
20160429 12709P103 US12709P1030 CCMP     NASDAQ       CABOT MICROELECTRONICS         3831     160505.72  0.019045 07 Materials & Processing         0730 Industrial Materials & Processes                 0730452 Diversified Materials & Processing               
20160429 127190304 US1271903049 CACI     NYSE         CACI INTERNATIONAL INC        24178    2324714.70  0.275835 01 Technology                     0130 Information Technology                           0130439 Computer Services Software & Systems             
20160429 127686103 US1276861036 CZR      NASDAQ       CAESARS ENTMT CORP            55416     378491.28  0.044909 03 Consumer Discretionary         0340 Leisure                                          0340434 Casinos & Gambling                               
20160429 12768T103 US12768T1034 CACQ     NASDAQ       CAESARS ACQUISITION CO        46231     349968.67  0.041525 03 Consumer Discretionary         0340 Leisure                                          0340434 Casinos & Gambling                               
20160429 12811R104 US12811R1041 CLMS     NASDAQ       CALAMOS ASSET MGMT INC        17817     146812.08  0.017420 10 Financial Services             1040 Investment Banking & Brokerage Services          1040544 Asset Management & Custodian                     
20160429 128195104 US1281951046 CAA      NYSE         CALATLANTIC GROUP INC         60322    1952614.85  0.231684 03 Consumer Discretionary         0320 Consumer Products                                0320501 Homebuilding                                     
20160429 129500104 US1295001044 CAL      NYSE         CALERES INC                   39902    1005924.38  0.119356 03 Consumer Discretionary         0360 Retail                                           0360834 Specialty Retail                                 
20160429 129603106 US1296031065 CCC      NYSE         CALGON CARBON CORP            28462     466479.72  0.055349 07 Materials & Processing         0720 Chemicals and Synthetics                         0720833 Chemicals: Specialty                             
20160429 130788102 US1307881029 CWT      NYSE         CALIFORNIA WTR SVC GRP        47880    1337288.40  0.158674 11 Utilities                      1110 Utilities                                        1110882 Utilities: Water                                 
20160429 13089P101 US13089P1012 CALA     NASDAQ       CALITHERA BIOSCIENCES         11075      59029.75  0.007004 02 Health Care                    0230 Pharmaceuticals & Biotech                        0230412 Biotechnology                                    
20160429 13100M509 US13100M5094 CALX     NYSE         CALIX INC                     41546     287913.78  0.034162 01 Technology                     0140 Telecommunication                                0140448 Communications Technology                        
20160429 131193104 US1311931042 ELY      NYSE         CALLAWAY GOLF CO              78060     729080.40  0.086508 03 Consumer Discretionary         0340 Leisure                                          0340556 Leisure Time                                     
20160429 13123X102 US13123X1028 CPE      NYSE         CALLON PETROLEUM CO           96122    1010242.22  0.119869 06 Energy                         0620 Non-Renewable Energy                             0620670 Oil: Crude Producers                             
20160429 13201A107 US13201A1079 ABCD     NASDAQ       CAMBIUM LEARNING GRP INC      12993      59118.15  0.007015 03 Consumer Discretionary         0330 Consumer Services                                0330461 Education Services                               
20160429 133034108 US1330341082 CAC      NASDAQ       CAMDEN NATIONAL CORP           7443     323844.93  0.038425 10 Financial Services             1010 Banks                                            1010400 Banks: Diversified                               
20160429 139674105 US1396741050 CCBG     NASDAQ       CAPITAL CITY BANK GROUP       10756     159403.92  0.018914 10 Financial Services             1010 Banks                                            1010400 Banks: Diversified                               
20160429 139794101 US1397941014 CBF      NASDAQ       CAPITAL BANK FINANCIAL        21100     637853.00  0.075683 10 Financial Services             1010 Banks                                            1010400 Banks: Diversified                               
20160429 14057J101 US14057J1016 CFFN     NASDAQ       CAPITOL FEDERAL FINL INC     140664    1869424.56  0.221813 10 Financial Services             1010 Banks                                            1010820 Banks: Savings/Thrifts & Mortgage Lend           
20160429 14067E506 US14067E5069 CMO      NYSE         CAPSTEAD MORTGAGE CORP        95812     931292.64  0.110501 10 Financial Services             1060 Real Estate Investment Trusts                    1060930 Mortgage REIT: Residential                       
20160429 140781105 US1407811058 CRR      NYSE         CARBO CERAMICS INC            19625     291431.25  0.034579 06 Energy                         0610 Energy Equipment & Services                      0610600 Oil Well Equipment & Services                    
20160429 14149F109 US14149F1093 CFNL     NASDAQ       CARDINAL FINANCIAL CORP       30135     666884.39  0.079128 10 Financial Services             1010 Banks                                            1010400 Banks: Diversified                               
20160429 141619106 US1416191062 CSII     NASDAQ       CARDIOVASCULAR SYS INC         1617      22607.88  0.002682 02 Health Care                    0220 Medical Equipment & Services                     0220507 Medical & Dental Instruments & Supplies          
20160429 141633107 US1416331072 CRCM     NYSE         CARE.COM INC                  16616     123617.00  0.014668 03 Consumer Discretionary         0330 Consumer Services                                0330638 Consumer Services: Misc                          
20160429 141665109 US1416651099 CECO     NASDAQ       CAREER EDUCATION CORP         67884     362500.56  0.043012 03 Consumer Discretionary         0330 Consumer Services                                0330461 Education Services                               
20160429 143436400 US1434364006 CKEC     NASDAQ       CARMIKE CINEMAS INC           23213     696149.71  0.082600 03 Consumer Discretionary         0350 Media                                            0350480 Entertainment                                    
20160429 143905107 US1439051079 CSV      NYSE         CARRIAGE SERVICES INC         12359     301906.38  0.035822 03 Consumer Discretionary         0330 Consumer Services                                0330495 Funeral Parlors & Cemetery                       
20160429 144285103 US1442851036 CRS      NYSE         CARPENTER TECHNOLOGY          46834    1658391.94  0.196774 07 Materials & Processing         0740 Metals & Minerals                                0740835 Steel                                            
20160429 144577103 US1445771033 CRZO     NASDAQ       CARRIZO OIL & GAS INC         55221    1953149.69  0.231748 06 Energy                         0620 Non-Renewable Energy                             0620670 Oil: Crude Producers                             
20160429 14574X104 US14574X1046 TAST     NASDAQ       CARROLS RESTAURANT GRP         5289      73574.87  0.008730 03 Consumer Discretionary         0340 Leisure                                          0340810 Restaurants                                      
20160429 147154207 US1471542076 CACB     NASDAQ       CASCADE BANCORP               30895     186914.75  0.022178 10 Financial Services             1010 Banks                                            1010400 Banks: Diversified                               
20160429 147322101 US1473221018 CSCD     NASDAQ       CASCADE MICROTECH INC          2745      57414.39  0.006812 01 Technology                     0120 Electronics                                      0120476 Semiconductors & Components                      
20160429 147448104 US1474481041 CWST     NASDAQ       CASELLA WASTE SYSTEMS         32859     235263.57  0.027915 08 Producer Durables              0830 Scientific Instruments & Services                0830735 Scientific Instruments: Pollution Control        
20160429 14754D100 US14754D1000 CSH      NYSE         CASH AMERICA INTL INC         25413     939264.48  0.111447 10 Financial Services             1020 Consumer Finance & Credit Services               1020492 Consumer Lending                                 
20160429 14808P109 US14808P1093 CASS     NASDAQ       CASS INFORMATION SYSTEMS       5003     247524.93  0.029370 10 Financial Services             1020 Consumer Finance & Credit Services               1020489 Financial Data & Systems                         
20160429 14875P107 US14875P1075 CATB     NASDAQ       CATABASIS PHARACEUTICALS        468       2063.88  0.000245 02 Health Care                    0230 Pharmaceuticals & Biotech                        0230412 Biotechnology                                    
20160429 14912Y202 US14912Y2028 CTT      NYSE         CATCHMARK TIMBER TRUST        39551     419636.11  0.049791 10 Financial Services             1060 Real Estate Investment Trusts                    1060913 Equity REIT: Timber                              
20160429 149150104 US1491501045 CATY     NASDAQ       CATHAY GENERAL BANCORP        79913    2438944.76  0.289389 10 Financial Services             1010 Banks                                            1010400 Banks: Diversified                               
20160429 149205106 US1492051065 CATO     NYSE         CATO CORP                     21733     795176.08  0.094350 03 Consumer Discretionary         0360 Retail                                           0360834 Specialty Retail                                 
20160429 149568107 US1495681074 CVCO     NASDAQ       CAVCO INDUSTRIES INC           1931     169409.71  0.020101 03 Consumer Discretionary         0320 Consumer Products                                0320640 Manufactured Housing                             
20160429 150602209 US1506022094 CDR      NYSE         CEDAR REALTY TRUST INC        85024     588366.08  0.069812 10 Financial Services             1060 Real Estate Investment Trusts                    1060908 Equity REIT: Retail                              
20160429 150838100 US1508381001 CGI      NYSE         CELADON GROUP INC              8612      86727.02  0.010290 08 Producer Durables              0840 Transportation & Freight                         0840865 Truckers                                         
20160429 15117B103 US15117B1035 CLDX     NASDAQ       CELLDEX THERAPEUTICS INC       9060      36241.01  0.004300 02 Health Care                    0230 Pharmaceuticals & Biotech                        0230412 Biotechnology                                    
20160429 15201P109 US15201P1093 CSFL     NASDAQ       CENTERSTATE BANKS INC         45442     740250.18  0.087833 10 Financial Services             1010 Banks                                            1010400 Banks: Diversified                               
20160429 153527205 US1535272058 CENTA    NASDAQ       CENTRAL GARDEN & PET CO       37387     609020.03  0.072262 03 Consumer Discretionary         0320 Consumer Products                                0320521 Household Equip & Products                       
20160429 154760409 US1547604090 CPF      NYSE         CENTRAL PACIFIC FINL          22999     536796.66  0.063693 10 Financial Services             1010 Banks                                            1010400 Banks: Diversified                               
20160429 156431108 US1564311082 CENX     NASDAQ       CENTURY ALUMINUM CO           46228     407726.14  0.048378 07 Materials & Processing         0740 Metals & Minerals                                0740320 Aluminum                                         
20160429 156432106 US1564321065 CNBKA    NASDAQ       CENTURY BANCORP INC            3473     147602.50  0.017514 10 Financial Services             1010 Banks                                            1010400 Banks: Diversified                               
20160429 156504300 US1565043007 CCS      NYSE         CENTURY COMMUNITIES INC       14036     241973.85  0.028711 03 Consumer Discretionary         0320 Consumer Products                                0320501 Homebuilding                                     
20160429 157085101 US1570851014 CERS     NASDAQ       CERUS CORP                    14591      91344.44  0.010838 02 Health Care                    0220 Medical Equipment & Services                     0220507 Medical & Dental Instruments & Supplies          
20160429 157210105 US1572101053 CEVA     NASDAQ       CEVA INC                      10551     243289.27  0.028867 01 Technology                     0120 Electronics                                      0120476 Semiconductors & Components                      
20160429 16115Q308 US16115Q3083 GTLS     NASDAQ       CHART INDUSTRIES INC          30543     786176.82  0.093282 08 Producer Durables              0810 Machinery                                        0810584 Machinery: Industrial                            
20160429 16122W108 US16122W1080 CHFN     NASDAQ       CHARTER FINL CORP WEST        15229     190819.37  0.022641 10 Financial Services             1010 Banks                                            1010820 Banks: Savings/Thrifts & Mortgage Lend           
20160429 16150R104 US16150R1041 CCF      NYSE MKT     CHASE CORP                      691      38930.16  0.004619 07 Materials & Processing         0730 Industrial Materials & Processes                 0730714 Paints & Coatings                                
20160429 16208T102 US16208T1025 CLDT     NYSE         CHATHAM LODGING TR            38298     816130.38  0.096837 10 Financial Services             1060 Real Estate Investment Trusts                    1060909 Equity REIT: Lodging and Resorts                 
20160429 162825103 US1628251035 CKP      NYSE         CHECKPOINT SYSTEMS INC        42069     425738.28  0.050515 01 Technology                     0120 Electronics                                      0120463 Electronic Components                            
20160429 163092109 US1630921096 CHGG     NYSE         CHEGG INC                     46636     211726.52  0.025122 03 Consumer Discretionary         0330 Consumer Services                                0330461 Education Services                               
20160429 163731102 US1637311028 CHFC     NASDAQ       CHEMICAL FINANCIAL CORP       33712    1296563.52  0.153842 10 Financial Services             1010 Banks                                            1010400 Banks: Diversified                               
20160429 16444H102 US16444H1023 CHKE     NASDAQ       CHEROKEE INC                    847      13255.51  0.001573 03 Consumer Discretionary         0320 Consumer Products                                0320850 Textiles Apparel & Shoes                         
20160429 165240102 US1652401027 CHSP     NYSE         CHESAPEAKE LODGING TRUST      59651    1469204.13  0.174326 10 Financial Services             1060 Real Estate Investment Trusts                    1060909 Equity REIT: Lodging and Resorts                 
20160429 165303108 US1653031088 CPK      NYSE         CHESAPEAKE UTILITIES          15226     906251.52  0.107530 11 Utilities                      1110 Utilities                                        1110875 Utilities: Gas Distributors                      
20160429 16706W102 US16706W1027 CHMA     NASDAQ       CHIASMA INC                     761       2565.51  0.000304 02 Health Care                    0230 Pharmaceuticals & Biotech                        0230412 Biotechnology                                    
20160429 168905107 US1689051076 PLCE     NASDAQ       CHILDRENS PLACE INC           15236    1187033.88  0.140845 03 Consumer Discretionary         0360 Retail                                           0360834 Specialty Retail                                 
20160429 171046105 US1710461054 CBK      NYSE         CHRISTOPHER & BANKS CORP      37205      96733.00  0.011478 03 Consumer Discretionary         0360 Retail                                           0360834 Specialty Retail                                 
20160429 17163B102 US17163B1026 CBR      NYSE         CIBER INC                     78835     182897.20  0.021701 01 Technology                     0130 Information Technology                           0130439 Computer Services Software & Systems             
20160429 171871106 US1718711062 CBB      NYSE         CINCINNATI BELL INC          209701     801057.82  0.095048 11 Utilities                      1110 Utilities                                        1110880 Utilities: Telecommunications                    
20160429 17273K109 US17273K1097 CIR      NYSE         CIRCOR INTERNATIONAL INC      17148     968004.60  0.114857 08 Producer Durables              0830 Scientific Instruments & Services                0830524 Scientific Instruments: Control & Filter         
20160429 172922106 US1729221069 CZNC     NASDAQ       CITIZENS & NORTHERN CORP      12199     246297.81  0.029224 10 Financial Services             1010 Banks                                            1010400 Banks: Diversified                               
20160429 17306X102 US17306X1028 CTRN     NASDAQ       CITI TRENDS INC               14672     263494.64  0.031265 03 Consumer Discretionary         0360 Retail                                           0360834 Specialty Retail                                 
20160429 174740100 US1747401008 CIA      NYSE         CITIZENS INC                  49080     400002.00  0.047462 10 Financial Services             1030 Insurance                                        1030528 Insurance: Life                                  
20160429 177835105 US1778351056 CHCO     NASDAQ       CITY HOLDING CO               15214     747311.68  0.088671 10 Financial Services             1010 Banks                                            1010400 Banks: Diversified                               
20160429 17878Y108 CA17878Y1088 CVEO     NYSE         CIVEO CORP                   107322     163129.44  0.019356 06 Energy                         0610 Energy Equipment & Services                      0610600 Oil Well Equipment & Services                    
20160429 179895107 US1798951075 CLC      NYSE         CLARCOR INC                    2859     168030.48  0.019937 08 Producer Durables              0830 Scientific Instruments & Services                0830524 Scientific Instruments: Control & Filter         
20160429 184499101 US1844991018 CLNE     NASDAQ       CLEAN ENERGY FUELS CORP       76592     219053.12  0.025991 06 Energy                         0620 Non-Renewable Energy                             0620605 Oil: Refining & Marketing                        
20160429 18683K101 US18683K1016 CLF      NYSE         CLIFFS NATURAL RESOURCES     180110     949179.70  0.112623 07 Materials & Processing         0740 Metals & Minerals                                0740635 Metals & Minerals: Diversified                   
20160429 186873105 US1868731050 CSBK     NASDAQ       CLIFTON BANCORP INC           25692     382296.96  0.045361 10 Financial Services             1010 Banks                                            1010820 Banks: Savings/Thrifts & Mortgage Lend           
20160429 18911Q102 US18911Q1022 CLD      NYSE         CLOUD PEAK ENERGY INC         61034     134885.14  0.016005 06 Energy                         0620 Non-Renewable Energy                             0620435 Coal                                             
20160429 190897108 US1908971088 COBZ     NASDAQ       COBIZ FINANCIAL INC           36298     439568.78  0.052156 10 Financial Services             1010 Banks                                            1010400 Banks: Diversified                               
20160429 191098102 US1910981026 COKE     NASDAQ       COCA COLA BOTTLING              391      62357.02  0.007399 04 Consumer Staples               0410 Food/Beverage & Tobacco                          0410410 Beverage: Soft Drinks                            
20160429 192108504 US1921085049 CDE      NYSE         COEUR MINING INC             135959    1101267.90  0.130669 07 Materials & Processing         0740 Metals & Minerals                                0740549 Precious Metals & Minerals                       
20160429 192479103 US1924791031 COHR     NASDAQ       COHERENT INC                  21758    2032169.46  0.241124 01 Technology                     0120 Electronics                                      0120475 Electronics                                      
20160429 192576106 US1925761066 COHU     NASDAQ       COHU INC                      25908     299496.48  0.035536 01 Technology                     0120 Electronics                                      0120738 Production Technology Equipment                  
20160429 19624R106 US19624R1068 CLNY     NYSE         COLONY CAPITAL INC           111701    1974873.68  0.234325 10 Financial Services             1060 Real Estate Investment Trusts                    1060932 Mortgage REIT: Diversified                       
20160429 19625X102 US19625X1028 SFR      NYSE         COLONY STARWOOD HOMES         38173     930276.01  0.110380 10 Financial Services             1060 Real Estate Investment Trusts                    1060907 Equity REIT: Residential                         
20160429 197236102 US1972361026 COLB     NASDAQ       COLUMBIA BKG SYSTEM INC       57692    1701337.08  0.201869 10 Financial Services             1010 Banks                                            1010400 Banks: Diversified                               
20160429 198516106 US1985161066 COLM     NASDAQ       COLUMBIA SPORTSWEAR CO         8694     509224.10  0.060421 03 Consumer Discretionary         0320 Consumer Products                                0320850 Textiles Apparel & Shoes                         
20160429 199333105 US1993331057 CMCO     NASDAQ       COLUMBUS MCKINNON CORP        20068     331322.68  0.039313 08 Producer Durables              0810 Machinery                                        0810584 Machinery: Industrial                            
20160429 199908104 US1999081045 FIX      NYSE         COMFORT SYSTEMS USA INC        2238      66011.01  0.007832 07 Materials & Processing         0710 Building Materials & Services                    0710415 Building: Climate Control                        
20160429 201723103 US2017231034 CMC      NYSE         COMMERCIAL METALS CO         115728    2073845.76  0.246069 07 Materials & Processing         0740 Metals & Minerals                                0740835 Steel                                            
20160429 203607106 US2036071064 CBU      NYSE         COMMUNITY BANK SYSTEMS        42751    1691657.07  0.200721 10 Financial Services             1010 Banks                                            1010400 Banks: Diversified                               
20160429 204149108 US2041491083 CTBI     NASDAQ       COMMUNITY TRUST BANCORP       15653     561473.11  0.066621 10 Financial Services             1010 Banks                                            1010400 Banks: Diversified                               
20160429 20416Q108 US20416Q1085 COB      NASDAQ       COMMUNITYONE BANCORP          12295     162294.00  0.019257 10 Financial Services             1010 Banks                                            1010400 Banks: Diversified                               
20160429 205826209 US2058262096 CMTL     NASDAQ       COMTECH TELECOMM              16255     393371.00  0.046675 01 Technology                     0140 Telecommunication                                0140448 Communications Technology                        
20160429 20717E101 US20717E1010 CFMS     NASDAQ       CONFORMIS INC                  1697      21030.79  0.002495 02 Health Care                    0220 Medical Equipment & Services                     0220471 Medical Equipment                                
20160429 207410101 US2074101013 CNMD     NASDAQ       CONMED CORP                   27598    1143109.16  0.135634 02 Health Care                    0220 Medical Equipment & Services                     0220507 Medical & Dental Instruments & Supplies          
20160429 207797101 US2077971016 CTWS     NASDAQ       CONNECTICUT WATER SVC         11152     524367.04  0.062218 11 Utilities                      1110 Utilities                                        1110882 Utilities: Water                                 
20160429 20786W107 US20786W1071 CNOB     NASDAQ       CONNECTONE BANCORP INC        29897     514527.37  0.061050 10 Financial Services             1010 Banks                                            1010400 Banks: Diversified                               
20160429 208242107 US2082421072 CONN     NASDAQ       CONNS INC                     24264     333387.36  0.039558 03 Consumer Discretionary         0360 Retail                                           0360834 Specialty Retail                                 
20160429 209034107 US2090341072 CNSL     NASDAQ       CONSOLIDATED COMM             17577     415523.40  0.049303 11 Utilities                      1110 Utilities                                        1110880 Utilities: Telecommunications                    
20160429 210226106 US2102261060 CTO      NYSE MKT     CONSOLIDATED TOMOKA LAND       3045     150102.53  0.017810 10 Financial Services             1050 Real Estate                                      1050802 Real Estate Holding and Development              
20160429 21075N204 US21075N2045 MCF      NYSE MKT     CONTANGO OIL & GAS CO         17418     219118.44  0.025999 06 Energy                         0620 Non-Renewable Energy                             0620670 Oil: Crude Producers                             
20160429 21240D107 US21240D1072 CTRL     NASDAQ       CONTROL4 CORPORATION          20828     154335.48  0.018312 08 Producer Durables              0830 Scientific Instruments & Services                0830524 Scientific Instruments: Control & Filter         
20160429 212485106 US2124851062 CVG      NYSE         CONVERGYS CORP                98832    2619048.00  0.310759 08 Producer Durables              0850 Commercial Services                              0850365 Back Office Support HR & Consulting              
20160429 21676P103 US21676P1030 CPS      NYSE         COOPER STD HLDGS INC          12643     974900.19  0.115675 03 Consumer Discretionary         0310 Auto & Auto Parts                                0310340 Auto Parts                                       
20160429 216831107 US2168311072 CTB      NYSE         COOPER TIRE & RUBBER CO       51178    1767655.76  0.209738 03 Consumer Discretionary         0310 Auto & Auto Parts                                0310854 Auto Services                                    
20160429 218681104 US2186811046 CORE     NASDAQ       CORE MARK HOLDING CO INC      11130     908943.25  0.107849 04 Consumer Staples               0410 Food/Beverage & Tobacco                          0410856 Tobacco                                          
20160429 21870U502 US21870U5020 CORR     NYSE         CORENERGY INFRASTRUCT         11922     253819.38  0.030117 10 Financial Services             1060 Real Estate Investment Trusts                    1060915 Equity REIT: Other Specialty                     
20160429 222795106 US2227951066 CUZ      NYSE         COUSINS PROPERTIES INC       216602    2241830.70  0.266001 10 Financial Services             1060 Real Estate Investment Trusts                    1060916 Equity REIT: Diversified                         
20160429 22284P105 US22284P1057 CVTI     NASDAQ       COVENANT TRANS GRP INC          633      12613.54  0.001497 08 Producer Durables              0840 Transportation & Freight                         0840865 Truckers                                         
20160429 223622101 US2236221014 COWN     NASDAQ       COWEN GROUP INC               99835     347923.32  0.041282 10 Financial Services             1040 Investment Banking & Brokerage Services          1040544 Asset Management & Custodian                     
20160429 22410J106 US22410J1060 CBRL     NASDAQ       CRACKER BARREL STORE           1208     176922.28  0.020992 03 Consumer Discretionary         0340 Leisure                                          0340810 Restaurants                                      
20160429 224122101 US2241221017 BREW     NASDAQ       CRAFT BREW ALLIANCE            6808      58000.79  0.006882 04 Consumer Staples               0410 Food/Beverage & Tobacco                          0410405 Beverage: Brewers & Distillers                   
20160429 224633107 US2246331076 CRD.B    NYSE         CRAWFORD & CO                 19847     133763.62  0.015871 10 Financial Services             1030 Insurance                                        1030535 Insurance: Multi-Line                            
20160429 227046109 US2270461096 CROX     NASDAQ       CROCS INC                     16646     138996.44  0.016492 03 Consumer Discretionary         0320 Consumer Products                                0320850 Textiles Apparel & Shoes                         
20160429 227483104 US2274831047 CCRN     NASDAQ       CROSS COUNTRY HEALTHCARE      12255     152337.44  0.018075 02 Health Care                    0210 Health Care Services                             0210499 Health Care Services                             
20160429 228411104 US2284111042 CRWN     NASDAQ       CROWN MEDIA HOLDINGS INC       5674      28767.55  0.003413 03 Consumer Discretionary         0350 Media                                            0350760 Radio & TV Broadcasters                          
20160429 228903100 US2289031005 CRY      NYSE         CRYOLIFE INC                  25497     316162.80  0.037514 02 Health Care                    0220 Medical Equipment & Services                     0220507 Medical & Dental Instruments & Supplies          
20160429 229663109 US2296631094 CUBE     NYSE         CUBESMART                     37957    1123914.11  0.133356 10 Financial Services             1060 Real Estate Investment Trusts                    1060911 Equity REIT: Storage                             
20160429 229669106 US2296691064 CUB      NYSE         CUBIC CORP                    21658     900323.06  0.106826 08 Producer Durables              0840 Transportation & Freight                         0840300 Aerospace                                        
20160429 231082108 US2310821085 CMLS     NASDAQ       CUMULUS MEDIA INC            142612      52994.62  0.006288 03 Consumer Discretionary         0350 Media                                            0350760 Radio & TV Broadcasters                          
20160429 231561101 US2315611010 CW       NYSE         CURTISS WRIGHT CORP           42079    3222406.76  0.382349 08 Producer Durables              0840 Transportation & Freight                         0840300 Aerospace                                        
20160429 23204G100 US23204G1004 CUBI     NYSE         CUSTOMERS BANCORP INC         26730     694445.40  0.082398 10 Financial Services             1010 Banks                                            1010400 Banks: Diversified                               
20160429 232109108 US2321091082 CUTR     NASDAQ       CUTERA INC                     4201      48994.45  0.005813 02 Health Care                    0220 Medical Equipment & Services                     0220507 Medical & Dental Instruments & Supplies          
20160429 232577205 US2325772059 CYNO     NASDAQ       CYNOSURE INC                   1817      88933.87  0.010552 02 Health Care                    0220 Medical Equipment & Services                     0220471 Medical Equipment                                
20160429 23282W605 US23282W6057 CYTK     NASDAQ       CYTOKINETICS INC              16755     136387.90  0.016183 02 Health Care                    0230 Pharmaceuticals & Biotech                        0230412 Biotechnology                                    
20160429 23283R100 US23283R1005 CONE     NASDAQ       CYRUSONE INC                   6073     268002.68  0.031799 10 Financial Services             1060 Real Estate Investment Trusts                    1060915 Equity REIT: Other Specialty                     
20160429 23284F105 US23284F1057 CTMX     NASDAQ       CYTOMX THERAPEUTICS INC         797      10300.65  0.001222 02 Health Care                    0230 Pharmaceuticals & Biotech                        0230412 Biotechnology                                    
20160429 233153204 US2331532042 DCT      NYSE         DCT INDUSTRIAL TRUST INC      88851    3586914.87  0.425599 10 Financial Services             1060 Real Estate Investment Trusts                    1060906 Equity REIT: Industrial                          
20160429 23331S100 US23331S1006 DHX      NYSE         DHI GROUP INC                 27122     192835.03  0.022881 08 Producer Durables              0850 Commercial Services                              0850365 Back Office Support HR & Consulting              
20160429 23332B106 US23332B1061 DSPG     NASDAQ       DSP GROUP INC                 22359     212410.50  0.025203 01 Technology                     0120 Electronics                                      0120476 Semiconductors & Components                      
20160429 23335C101 US23335C1018 DTSI     NASDAQ       DTS INC                        2087      45544.93  0.005404 01 Technology                     0130 Information Technology                           0130469 Electronic Entertainment                         
20160429 233377407 US2333774071 DXPE     NASDAQ       DXP ENTERPRISES INC            8775     191723.55  0.022749 08 Producer Durables              0810 Machinery                                        0810584 Machinery: Industrial                            
20160429 233912104 US2339121046 DJCO     NASDAQ       DAILY JOURNAL CORP             1082     212504.80  0.025214 03 Consumer Discretionary         0350 Media                                            0350740 Publishing                                       
20160429 234264109 US2342641097 DAKT     NASDAQ       DAKTRONICS INC                30214     262860.41  0.031189 01 Technology                     0120 Electronics                                      0120475 Electronics                                      
20160429 235825205 US2358252052 DAN      NYSE         DANA HOLDING CORP             71708     927187.34  0.110014 03 Consumer Discretionary         0310 Auto & Auto Parts                                0310340 Auto Parts                                       
20160429 237266101 US2372661015 DAR      NYSE         DARLING INGREDIENTS INC      165220    2394037.80  0.284060 08 Producer Durables              0830 Scientific Instruments & Services                0830735 Scientific Instruments: Pollution Control        
20160429 237934104 US2379341041 DTLK     NASDAQ       DATALINK CORP                 18083     145200.39  0.017229 01 Technology                     0140 Telecommunication                                0140448 Communications Technology                        
20160429 242370203 US2423702032 DF       NYSE         DEAN FOODS COMPANY            50953     877916.40  0.104168 04 Consumer Staples               0410 Food/Beverage & Tobacco                          0410494 Foods                                            
20160429 243537107 US2435371073 DECK     NYSE         DECKERS OUTDOOR CORP          14019     810480.01  0.096166 03 Consumer Discretionary         0320 Consumer Products                                0320850 Textiles Apparel & Shoes                         
20160429 245077102 US2450771025 DFRG     NASDAQ       DEL FRISCOS RESTAURANT        22046     351180.07  0.041669 03 Consumer Discretionary         0340 Leisure                                          0340810 Restaurants                                      
20160429 246647101 US2466471016 DK       NYSE         DELEK US HLDGS INC            25640     407432.53  0.048343 06 Energy                         0620 Non-Renewable Energy                             0620605 Oil: Refining & Marketing                        
20160429 248019101 US2480191012 DLX      NYSE         DELUXE CORP                   22568    1416841.64  0.168113 08 Producer Durables              0850 Commercial Services                              0850486 Forms and Bulk Printing Services                 
20160429 24869P104 US24869P1049 DENN     NASDAQ       DENNYS CORP                   23564     233052.39  0.027652 03 Consumer Discretionary         0340 Leisure                                          0340810 Restaurants                                      
20160429 24983L104 US24983L1044 DERM     NASDAQ       DERMIRA INC                   10025     253521.88  0.030081 02 Health Care                    0230 Pharmaceuticals & Biotech                        0230412 Biotechnology                                    
20160429 25065K104 US25065K1043 DXLG     NASDAQ       DESTINATION XL GRP INC        28664     153922.25  0.018263 03 Consumer Discretionary         0360 Retail                                           0360834 Specialty Retail                                 
20160429 251893103 US2518931033 DV       NYSE         DEVRY EDUCATION GROUP         63720    1105542.00  0.131176 03 Consumer Discretionary         0330 Consumer Services                                0330461 Education Services                               
20160429 252784301 US2527843013 DRH      NYSE         DIAMONDROCK HOSPITALITY      200711    1788335.01  0.212192 10 Financial Services             1060 Real Estate Investment Trusts                    1060909 Equity REIT: Lodging and Resorts                 
20160429 253798102 US2537981027 DGII     NASDAQ       DIGI INTL INC                 24927     263478.39  0.031263 01 Technology                     0140 Telecommunication                                0140448 Communications Technology                        
20160429 25381B101 US25381B1017 DMRC     NASDAQ       DIGIMARC CORPORATION            617      18436.91  0.002188 01 Technology                     0130 Information Technology                           0130439 Computer Services Software & Systems             
20160429 25389M877 US25389M8771 DGI      NYSE         DIGITALGLOBE INC              64354    1426084.64  0.169210 01 Technology                     0140 Telecommunication                                0140448 Communications Technology                        
20160429 253922108 US2539221083 DCOM     NASDAQ       DIME CMNTY BANCSHARES         31128     563728.08  0.066888 10 Financial Services             1010 Banks                                            1010820 Banks: Savings/Thrifts & Mortgage Lend           
20160429 25400W102 US25400W1027 APPS     NASDAQ       DIGITAL TURBINE INC            4224       3632.77  0.000431 01 Technology                     0130 Information Technology                           0130439 Computer Services Software & Systems             
20160429 25433V105 US25433V1052 DMTX     NASDAQ       DIMENSION THERAPEUTICS          582       4144.56  0.000492 02 Health Care                    0230 Pharmaceuticals & Biotech                        0230412 Biotechnology                                    
20160429 254423106 US2544231069 DIN      NYSE         DINEEQUITY INC                 1136      97717.76  0.011595 03 Consumer Discretionary         0340 Leisure                                          0340810 Restaurants                                      
20160429 254543101 US2545431015 DIOD     NASDAQ       DIODES INC                    37492     698101.04  0.082832 01 Technology                     0120 Electronics                                      0120476 Semiconductors & Components                      
20160429 257701201 US2577012014 DGICA    NASDAQ       DONEGAL GROUP INC              8091     123873.21  0.014698 10 Financial Services             1030 Insurance                                        1030542 Insurance: Property-Casualty                     
20160429 25960R105 US25960R1059 PLOW     NYSE         DOUGLAS DYNAMICS INC          16905     387291.63  0.045953 08 Producer Durables              0810 Machinery                                        0810577 Machinery: Construction & Handling               
20160429 26153C103 US26153C1036 DWA      NASDAQ       DREAMWORKS ANIMATION SKG      75950    3031924.00  0.359748 03 Consumer Discretionary         0350 Media                                            0350480 Entertainment                                    
20160429 264147109 US2641471097 DCO      NYSE         DUCOMMUN INC                  11055     175885.05  0.020869 08 Producer Durables              0840 Transportation & Freight                         0840300 Aerospace                                        
20160429 26443V101 US26443V1017 DLTH     NASDAQ       DULUTH HOLDINGS INC            2783      66210.45  0.007856 03 Consumer Discretionary         0320 Consumer Products                                0320850 Textiles Apparel & Shoes                         
20160429 26613Q106 US26613Q1067 DFT      NYSE         DUPONT FABROS TECHNOLOGY      40917    1629275.76  0.193319 10 Financial Services             1060 Real Estate Investment Trusts                    1060915 Equity REIT: Other Specialty                     
20160429 26817Q506 US26817Q5062 DX       NYSE         DYNEX CAPITAL INC             49169     319598.50  0.037921 10 Financial Services             1060 Real Estate Investment Trusts                    1060930 Mortgage REIT: Residential                       
20160429 26817R108 US26817R1086 DYN      NYSE         DYNEGY INC                   120554    2125367.02  0.252182 11 Utilities                      1110 Utilities                                        1110870 Utilities: Electrical                            
20160429 268664109 US2686641091 EMCI     NASDAQ       EMC INS GROUP INC              7837     207367.02  0.024605 10 Financial Services             1030 Insurance                                        1030542 Insurance: Property-Casualty                     
20160429 26882D109 US26882D1090 EPIQ     NASDAQ       EPIQ SYSTEMS INC              20151     297620.11  0.035314 01 Technology                     0130 Information Technology                           0130439 Computer Services Software & Systems             
20160429 26884U109 US26884U1097 EPR      NYSE         EPR PROPERTIES                57186    3767413.68  0.447016 10 Financial Services             1060 Real Estate Investment Trusts                    1060916 Equity REIT: Diversified                         
20160429 26885G109 US26885G1094 ERA      NYSE         ERA GROUP INC                 20583     196155.99  0.023275 06 Energy                         0610 Energy Equipment & Services                      0610600 Oil Well Equipment & Services                    
20160429 268948106 US2689481065 EGBN     NASDAQ       EAGLE BANCORP INC              7329     371589.17  0.044090 10 Financial Services             1010 Banks                                            1010400 Banks: Diversified                               
20160429 269279402 US2692794025 XCO      NYSE         EXCO RESOURCES INC           157885     239985.20  0.028475 06 Energy                         0620 Non-Renewable Energy                             0620670 Oil: Crude Producers                             
20160429 27032D205 US27032D2053 ESTE     NYSE MKT     EARTHSTONE ENERGY INC          1300      17953.00  0.002130 06 Energy                         0620 Non-Renewable Energy                             0620670 Oil: Crude Producers                             
20160429 277276101 US2772761019 EGP      NYSE         EASTGROUP PROPERTIES INC      25876    1546061.36  0.183445 10 Financial Services             1060 Real Estate Investment Trusts                    1060906 Equity REIT: Industrial                          
20160429 27890G100 US27890G1004 ECR      NYSE         ECLIPSE RESOURCES CORP        48043     116744.49  0.013852 06 Energy                         0620 Non-Renewable Energy                             0620670 Oil: Crude Producers                             
20160429 279870109 US2798701098 EDGE     NASDAQ       EDGE THERAPEUTICS INC           874       7199.14  0.000854 02 Health Care                    0230 Pharmaceuticals & Biotech                        0230412 Biotechnology                                    
20160429 28106W103 US28106W1036 EDIT     NASDAQ       EDITAS MEDICINE INC             705      23321.40  0.002767 02 Health Care                    0230 Pharmaceuticals & Biotech                        0230412 Biotechnology                                    
20160429 28140H203 US28140H2031 EDR      NYSE         EDUCATION REALTY TRUST        63220    2514259.40  0.298325 10 Financial Services             1060 Real Estate Investment Trusts                    1060907 Equity REIT: Residential                         
20160429 282914100 US2829141009 EGHT     NASDAQ       8X8 INC NEW                   56947     645769.82  0.076623 11 Utilities                      1110 Utilities                                        1110880 Utilities: Telecommunications                    
20160429 283677854 US2836778546 EE       NYSE         EL PASO ELECTRIC CO           40392    1821679.20  0.216148 11 Utilities                      1110 Utilities                                        1110870 Utilities: Electrical                            
20160429 28470R102 US28470R1023 ERI      NASDAQ       ELDORADO RESORTS INC          14522     190383.03  0.022590 03 Consumer Discretionary         0340 Leisure                                          0340434 Casinos & Gambling                               
20160429 285218103 US2852181039 ELRC     NASDAQ       ELECTRO RENT CORP             16657     166736.57  0.019784 08 Producer Durables              0840 Transportation & Freight                         0840808 Commercial Services: Rental & Leasing            
20160429 28660G106 US28660G1067 RDEN     NASDAQ       ELIZABETH ARDEN INC           26106     267064.38  0.031688 03 Consumer Discretionary         0320 Consumer Products                                0320450 Cosmetics                                        
20160429 288853104 US2888531041 PERY     NASDAQ       ELLIS PERRY INTL INC          12229     232962.45  0.027642 03 Consumer Discretionary         0320 Consumer Products                                0320850 Textiles Apparel & Shoes                         
20160429 290846203 US2908462037 EMKR     NASDAQ       EMCORE CORP                   19556     111469.20  0.013226 01 Technology                     0120 Electronics                                      0120476 Semiconductors & Components                      
20160429 29084Q100 US29084Q1004 EME      NYSE         EMCOR GROUP INC               62689    3039162.72  0.360607 08 Producer Durables              0820 Manufacturing & Production                       0820443 Construction                                     
20160429 29089Q105 US29089Q1058 EBS      NYSE         EMERGENT BIOSOLUTIONS          8924     343755.41  0.040788 02 Health Care                    0230 Pharmaceuticals & Biotech                        0230412 Biotechnology                                    
20160429 291641108 US2916411083 EDE      NYSE         EMPIRE DISTRICT ELECTRIC      43601    1468045.67  0.174188 11 Utilities                      1110 Utilities                                        1110870 Utilities: Electrical                            
20160429 292052305 US2920523055 NYNY     NASDAQ       EMPIRE RESORTS INC              176       2936.63  0.000348 03 Consumer Discretionary         0340 Leisure                                          0340434 Casinos & Gambling                               
20160429 292218104 US2922181043 EIG      NYSE         EMPLOYERS HOLDINGS INC        12629     375088.19  0.044505 10 Financial Services             1030 Insurance                                        1030542 Insurance: Property-Casualty                     
20160429 292554102 US2925541029 ECPG     NASDAQ       ENCORE CAPITAL GROUP INC      21759     612503.80  0.072676 10 Financial Services             1020 Consumer Finance & Credit Services               1020492 Consumer Lending                                 
20160429 292562105 US2925621052 WIRE     NASDAQ       ENCORE WIRE CORP               4687     179286.93  0.021273 08 Producer Durables              0830 Scientific Instruments & Services                0830465 Scientific Instruments: Electrical               
20160429 292671708 CA2926717083 UUUU     NYSE MKT     ENERGY FUELS INC              22609      53132.09  0.006304 07 Materials & Processing         0740 Metals & Minerals                                0740635 Metals & Minerals: Diversified                   
20160429 29269A102 US29269A1025 ECYT     NASDAQ       ENDOCYTE INC                  37539     146402.10  0.017371 02 Health Care                    0230 Pharmaceuticals & Biotech                        0230460 Pharmaceuticals                                  
20160429 29272U103 US29272U1034 GI       NYSE         ENDOCHOICE HOLDINGS INC        1076       5944.97  0.000705 02 Health Care                    0220 Medical Equipment & Services                     0220471 Medical Equipment                                
20160429 29275Y102 US29275Y1029 ENS      NYSE         ENERSYS INC                   32501    1897040.18  0.225090 08 Producer Durables              0830 Scientific Instruments & Services                0830465 Scientific Instruments: Electrical               
20160429 292764107 US2927641074 ENOC     NASDAQ       ENERNOC INC                   27074     184644.68  0.021909 06 Energy                         0630 Alternative Energy                               0630478 Alternative Energy                               
20160429 29286C107 US29286C1071 EGL      NYSE         ENGILITY HOLDINGS INC         17934     352761.78  0.041856 08 Producer Durables              0850 Commercial Services                              0850479 Engineering & Contracting Services               
20160429 293389102 US2933891028 EBF      NYSE         ENNIS INC                     25811     504346.94  0.059842 08 Producer Durables              0850 Commercial Services                              0850486 Forms and Bulk Printing Services                 
20160429 29355X107 US29355X1072 NPO      NYSE         ENPRO INDUSTRIES INC           9174     537462.48  0.063772 08 Producer Durables              0810 Machinery                                        0810584 Machinery: Industrial                            
20160429 29357K103 US29357K1034 ENVA     NYSE         ENOVA INTERNATIONAL INC        3206      28248.07  0.003352 10 Financial Services             1020 Consumer Finance & Credit Services               1020492 Consumer Lending                                 
20160429 29358P101 US29358P1012 ENSG     NASDAQ       ENSIGN GROUP INC               3613      81529.58  0.009674 02 Health Care                    0210 Health Care Services                             0210499 Health Care Services                             
20160429 29362U104 US29362U1043 ENTG     NASDAQ       ENTEGRIS INC                  58338     775314.36  0.091994 01 Technology                     0120 Electronics                                      0120738 Production Technology Equipment                  
20160429 293639100 US2936391000 ETM      NYSE         ENTERCOM COMMUNICATIONS       25400     288036.00  0.034176 03 Consumer Discretionary         0350 Media                                            0350760 Radio & TV Broadcasters                          
20160429 29363K105 US29363K1051 ENTL     NASDAQ       ENTELLUS MEDICAL INC            826      12021.85  0.001426 02 Health Care                    0220 Medical Equipment & Services                     0220507 Medical & Dental Instruments & Supplies          
20160429 293668109 US2936681095 EBTC     NASDAQ       ENTERPRISE BANCORP INC         7966     192219.58  0.022807 10 Financial Services             1010 Banks                                            1010400 Banks: Diversified                               
20160429 293712105 US2937121059 EFSC     NASDAQ       ENTERPRISE FINL SERVICES      19935     545620.95  0.064740 10 Financial Services             1010 Banks                                            1010400 Banks: Diversified                               
20160429 29382R107 US29382R1077 EVC      NYSE         ENTRAVISION COMM               3441      27357.14  0.003246 03 Consumer Discretionary         0350 Media                                            0350760 Radio & TV Broadcasters                          
20160429 294268107 US2942681071 PLUS     NASDAQ       EPLUS INC                      5243     421447.95  0.050006 01 Technology                     0130 Information Technology                           0130439 Computer Services Software & Systems             
20160429 29460X109 US29460X1090 EQBK     NASDAQ       EQUITY BANCSHARE INC           2231      46784.07  0.005551 10 Financial Services             1010 Banks                                            1010400 Banks: Diversified                               
20160429 294752100 US2947521009 EQY      NYSE         EQUITY ONE INC                72957    2064654.91  0.244978 10 Financial Services             1060 Real Estate Investment Trusts                    1060908 Equity REIT: Retail                              
20160429 295625107 US2956251076 ERN      NYSE MKT     ERIN ENERGY CORPORATION       11983      23965.63  0.002844 06 Energy                         0620 Non-Renewable Energy                             0620670 Oil: Crude Producers                             
20160429 296056104 US2960561049 ESCA     NASDAQ       ESCALADE INC                   7578      90405.06  0.010727 03 Consumer Discretionary         0340 Leisure                                          0340556 Leisure Time                                     
20160429 296315104 US2963151046 ESE      NYSE         ESCO TECHNOLOGIES INC         26090    1003943.20  0.119121 08 Producer Durables              0830 Scientific Instruments & Services                0830524 Scientific Instruments: Control & Filter         
20160429 296689102 US2966891028 ESND     NASDAQ       ESSENDANT INC                 38318    1179811.22  0.139988 08 Producer Durables              0820 Manufacturing & Production                       0820650 Office Supplies Equipment                        
20160429 297425100 US2974251009 ESL      NYSE         ESTERLINE TECHNOLOGIES        29546    2028628.36  0.240703 08 Producer Durables              0840 Transportation & Freight                         0840300 Aerospace                                        
20160429 297602104 US2976021046 ETH      NYSE         ETHAN ALLEN INTERIORS         25432     865705.28  0.102719 03 Consumer Discretionary         0320 Consumer Products                                0320523 Household Furnishings                            
20160429 29977G102 US29977G1022 EVER     NYSE         EVERBANK FINL CORP            96767    1459246.36  0.173144 10 Financial Services             1010 Banks                                            1010400 Banks: Diversified                               
20160429 30034T103 US30034T1034 EVRI     NYSE         EVERI HOLDINGS INC            65798     110540.64  0.013116 10 Financial Services             1020 Consumer Finance & Credit Services               1020489 Financial Data & Systems                         
20160429 300415106 US3004151060 EVDY     NYSE         EVERYDAY HEALTH INC            1856      10769.59  0.001278 01 Technology                     0130 Information Technology                           0130439 Computer Services Software & Systems             
20160429 300487105 US3004871055 EVLV     NASDAQ       EVINE LIVE INC                49893      76835.22  0.009117 03 Consumer Discretionary         0360 Retail                                           0360815 Diversified Retail                               
20160429 30050B101 US30050B1017 EVH      NYSE         EVOLENT HEALTH INC             2975      35737.26  0.004240 01 Technology                     0130 Information Technology                           0130439 Computer Services Software & Systems             
20160429 300645108 US3006451088 EXAR     NYSE         EXAR CORP                     32961     201057.32  0.023856 01 Technology                     0120 Electronics                                      0120476 Semiconductors & Components                      
20160429 30064E109 US30064E1091 EXAC     NASDAQ       EXACTECH INC                  10193     231788.82  0.027503 02 Health Care                    0220 Medical Equipment & Services                     0220507 Medical & Dental Instruments & Supplies          
20160429 302081104 US3020811044 EXLS     NASDAQ       EXLSERVICE HOLDINGS INC        2430     117627.72  0.013957 08 Producer Durables              0850 Commercial Services                              0850365 Back Office Support HR & Consulting              
20160429 302104104 US3021041047 XONE     NASDAQ       EXONE COMPANY                 10478     138519.16  0.016436 08 Producer Durables              0810 Machinery                                        0810584 Machinery: Industrial                            
20160429 30214U102 US30214U1025 EXPO     NASDAQ       EXPONENT INC                   1299      64747.14  0.007682 08 Producer Durables              0850 Commercial Services                              0850479 Engineering & Contracting Services               
20160429 30219E103 US30219E1038 EXPR     NYSE         EXPRESS INC                    8365     152088.39  0.018046 03 Consumer Discretionary         0360 Retail                                           0360834 Specialty Retail                                 
20160429 30226D106 US30226D1063 EXTR     NASDAQ       EXTREME NETWORKS INC          91949     322739.96  0.038294 01 Technology                     0140 Telecommunication                                0140448 Communications Technology                        
20160429 30227H106 US30227H1068 EXTN     NYSE         EXTERRAN CORPORATION          34705     530986.50  0.063003 06 Energy                         0610 Energy Equipment & Services                      0610600 Oil Well Equipment & Services                    
20160429 302301106 US3023011063 EZPW     NASDAQ       EZCORP INC                    51763     256226.85  0.030402 10 Financial Services             1020 Consumer Finance & Credit Services               1020492 Consumer Lending                                 
20160429 30239F106 US30239F1066 FFG      NYSE         FBL FINANCIAL GROUP INC        9616     581479.52  0.068994 10 Financial Services             1030 Insurance                                        1030528 Insurance: Life                                  
20160429 302520101 US3025201019 FNB      NYSE         FNB CORP                     202823    2681320.06  0.318147 10 Financial Services             1010 Banks                                            1010400 Banks: Diversified                               
20160429 30255G103 US30255G1031 FCB      NYSE         FCB FINANCIAL HOLDINGS        27975     977726.25  0.116010 10 Financial Services             1010 Banks                                            1010400 Banks: Diversified                               
20160429 30281V108 US30281V1089 FTD      NASDAQ       FTD COMPANIES INC             18260     507810.60  0.060253 03 Consumer Discretionary         0360 Retail                                           0360834 Specialty Retail                                 
20160429 30292L107 US30292L1070 FRPH     NASDAQ       FRP HOLDINGS INC               6887     251237.76  0.029810 10 Financial Services             1050 Real Estate                                      1050802 Real Estate Holding and Development              
20160429 302941109 US3029411093 FCN      NYSE         FTI CONSULTING INC            38187    1538934.65  0.182600 08 Producer Durables              0850 Commercial Services                              0850365 Back Office Support HR & Consulting              
20160429 303726103 US3037261035 FCS      NASDAQ       FAIRCHILD SEMICONDUCTOR      116433    2328660.00  0.276303 01 Technology                     0120 Electronics                                      0120476 Semiconductors & Components                      
20160429 30555Q108 US30555Q1085 FMSA     NYSE         FAIRMOUNT SANTROL HLDGS        6141      24564.86  0.002915 06 Energy                         0610 Energy Equipment & Services                      0610600 Oil Well Equipment & Services                    
20160429 30603D109 US30603D1090 FWM      NASDAQ       FAIRWAY GROUP HLDGS CORP      13744       2963.08  0.000352 04 Consumer Staples               0420 Personal Care/Drug & Grocery Stores              0420459 Drug & Grocery Store Chains                      
20160429 309562106 US3095621062 FFKT     NASDAQ       FARMERS CAPITAL BK CORP        7492     210600.12  0.024988 10 Financial Services             1010 Banks                                            1010400 Banks: Diversified                               
20160429 311642102 US3116421021 FARO     NASDAQ       FARO TECHNOLOGIES INC         13418     389640.13  0.046232 08 Producer Durables              0830 Scientific Instruments & Services                0830474 Scientific Instruments: Gauges & Meters          
20160429 313148306 US3131483063 AGM      NYSE         FEDERAL AGRIC MTG CO           9905     402935.40  0.047810 10 Financial Services             1020 Consumer Finance & Credit Services               1020487 Commercial Finance & Mortgage Co                 
20160429 313549404 US3135494041 FDML     NASDAQ       FEDERAL MOGUL HOLDINGS        30331     280258.44  0.033254 03 Consumer Discretionary         0310 Auto & Auto Parts                                0310340 Auto Parts                                       
20160429 313855108 US3138551086 FSS      NYSE         FEDERAL SIGNAL CORP           62525     855967.25  0.101563 08 Producer Durables              0820 Manufacturing & Production                       0820453 Diversified Manufacturing Operations             
20160429 31422T101 US31422T1016 FNHC     NASDAQ       FEDERATED NATL HOLDING        14173     269995.65  0.032036 10 Financial Services             1030 Insurance                                        1030542 Insurance: Property-Casualty                     
20160429 31430F101 US31430F1012 FCH      NYSE         FELCOR LODGING TRUST INC     143276    1025856.16  0.121721 10 Financial Services             1060 Real Estate Investment Trusts                    1060909 Equity REIT: Lodging and Resorts                 
20160429 31446L100 US31446L1008 FENX     NASDAQ       FENIX PTS INC                  4912      24760.51  0.002938 03 Consumer Discretionary         0310 Auto & Auto Parts                                0310340 Auto Parts                                       
20160429 315785105 US3157851052 FGL      NYSE         FIDELITY & GUARANTY           11257     297635.08  0.035315 10 Financial Services             1030 Insurance                                        1030528 Insurance: Life                                  
20160429 31620R402 US31620R4020 FNFV     NYSE         FNFV GROUP                    71842     773738.34  0.091807 10 Financial Services             1040 Investment Banking & Brokerage Services          1040457 Diversified Financial Services                   
20160429 316394105 US3163941053 LION     NASDAQ       FIDELITY SOUTHERN CORP        19323     312259.68  0.037051 10 Financial Services             1010 Banks                                            1010400 Banks: Diversified                               
20160429 317585404 US3175854047 FISI     NASDAQ       FINANCIAL INSTNS INC          14169     396732.00  0.047074 10 Financial Services             1010 Banks                                            1010400 Banks: Diversified                               
20160429 31787A507 US31787A5074 FNSR     NASDAQ       FINISAR CORP                 103913    1710407.98  0.202946 01 Technology                     0140 Telecommunication                                0140448 Communications Technology                        
20160429 317923100 US3179231002 FINL     NASDAQ       FINISH LINE INC               33156     654816.78  0.077696 03 Consumer Discretionary         0360 Retail                                           0360834 Specialty Retail                                 
20160429 31847R102 US31847R1023 FAF      NYSE         FIRST AMERICAN FINL CORP     108397    3904459.94  0.463277 10 Financial Services             1030 Insurance                                        1030542 Insurance: Property-Casualty                     
20160429 31866P102 US31866P1021 FNLC     NASDAQ       FIRST BANCORP INC             10739     213169.15  0.025293 10 Financial Services             1010 Banks                                            1010400 Banks: Diversified                               
20160429 318672706 PR3186727065 FBP      NYSE         FIRST BANCORP PR             116350     453765.00  0.053841 10 Financial Services             1010 Banks                                            1010400 Banks: Diversified                               
20160429 318910106 US3189101062 FBNC     NASDAQ       FIRST BANCORP NC              19740     402696.00  0.047781 10 Financial Services             1010 Banks                                            1010400 Banks: Diversified                               
20160429 319383204 US3193832041 BUSE     NASDAQ       FIRST BUSEY CORP              24110     492808.40  0.058473 10 Financial Services             1010 Banks                                            1010400 Banks: Diversified                               
20160429 319390100 US3193901002 FBIZ     NASDAQ       FIRST BUSINESS FINL SVCS       8670     219437.70  0.026037 10 Financial Services             1010 Banks                                            1010400 Banks: Diversified                               
20160429 31942D107 US31942D1072 FCFS     NASDAQ       FIRST CASH FINANCIAL           2171      99280.52  0.011780 10 Financial Services             1020 Consumer Finance & Credit Services               1020492 Consumer Lending                                 
20160429 31946M103 US31946M1036 FCNCA    NASDAQ       FIRST CITIZENS BANCSHRS        7706    1965030.00  0.233157 10 Financial Services             1010 Banks                                            1010400 Banks: Diversified                               
20160429 319829107 US3198291078 FCF      NYSE         FIRST COMMONWLTH FINL         88960     816652.80  0.096899 10 Financial Services             1010 Banks                                            1010400 Banks: Diversified                               
20160429 31983A103 US31983A1034 FCBC     NASDAQ       FIRST CMNTY BANCSHAR          15791     328610.71  0.038991 10 Financial Services             1010 Banks                                            1010400 Banks: Diversified                               
20160429 319850103 US3198501039 FBNK     NASDAQ       FIRST CONN BANCORP INC        16035     276283.05  0.032782 10 Financial Services             1010 Banks                                            1010400 Banks: Diversified                               
20160429 32006W106 US32006W1062 FDEF     NASDAQ       FIRST DEFIANCE FINANCIAL       9262     366589.96  0.043497 10 Financial Services             1010 Banks                                            1010820 Banks: Savings/Thrifts & Mortgage Lend           
20160429 320209109 US3202091092 FFBC     NASDAQ       FIRST FINANCIAL BANCORP       61686    1202877.00  0.142725 10 Financial Services             1010 Banks                                            1010400 Banks: Diversified                               
20160429 32020R109 US32020R1095 FFIN     NASDAQ       FIRST FINL BANKSHARES         26940     872319.14  0.103504 10 Financial Services             1010 Banks                                            1010400 Banks: Diversified                               
20160429 320218100 US3202181000 THFF     NASDAQ       FIRST FINANCIAL CORP          11051     391536.93  0.046457 10 Financial Services             1010 Banks                                            1010400 Banks: Diversified                               
20160429 32054K103 US32054K1034 FR       NYSE         FIRST INDUSTRIAL RLTY TR     110728    2540100.32  0.301391 10 Financial Services             1060 Real Estate Investment Trusts                    1060906 Equity REIT: Industrial                          
20160429 32055Y201 US32055Y2019 FIBK     NASDAQ       FIRST INTST BANCSYSTEM        19660     532786.00  0.063217 10 Financial Services             1010 Banks                                            1010400 Banks: Diversified                               
20160429 320734106 US3207341062 FLIC     NASDAQ       FIRST LONG ISLAND CORP        12236     374543.96  0.044441 10 Financial Services             1010 Banks                                            1010400 Banks: Diversified                               
20160429 320817109 US3208171096 FRME     NASDAQ       FIRST MERCHANTS CORP          40516    1039235.40  0.123309 10 Financial Services             1010 Banks                                            1010400 Banks: Diversified                               
20160429 320867104 US3208671046 FMBI     NASDAQ       FIRST MIDWEST BANCORP         77966    1440811.68  0.170957 10 Financial Services             1010 Banks                                            1010400 Banks: Diversified                               
20160429 32115D106 US32115D1063 FNBC     NASDAQ       FIRST NBC BK HLDG CO          15249     331513.26  0.039335 10 Financial Services             1010 Banks                                            1010400 Banks: Diversified                               
20160429 33610F109 US33610F1093 FPO      NYSE         FIRST POTOMAC REALTY TR       58727     493894.07  0.058602 10 Financial Services             1060 Real Estate Investment Trusts                    1060916 Equity REIT: Diversified                         
20160429 336901103 US3369011032 SRCE     NASDAQ       1ST SOURCE CORP               16363     563541.72  0.066866 10 Financial Services             1010 Banks                                            1010400 Banks: Diversified                               
20160429 337915102 US3379151026 FMER     NASDAQ       FIRSTMERIT CORP              165788    3673862.08  0.435916 10 Financial Services             1010 Banks                                            1010400 Banks: Diversified                               
20160429 337930705 US3379307057 FBC      NYSE         FLAGSTAR BANCORP INC          20571     486915.57  0.057774 10 Financial Services             1010 Banks                                            1010820 Banks: Savings/Thrifts & Mortgage Lend           
20160429 33832D106 US33832D1063 FVE      NYSE         FIVE STAR QUALITY CARE        43205     105420.20  0.012508 02 Health Care                    0210 Health Care Services                             0210504 Health Care Facilities                           
20160429 339382103 US3393821034 FLXS     NASDAQ       FLEXSTEEL INDUSTRIES INC       5869     239983.41  0.028475 03 Consumer Discretionary         0320 Consumer Products                                0320523 Household Furnishings                            
20160429 343389102 US3433891021 FTK      NYSE         FLOTEK INDUSTRIES INC         53487     505452.15  0.059974 06 Energy                         0610 Energy Equipment & Services                      0610600 Oil Well Equipment & Services                    
20160429 343873105 US3438731057 FFIC     NASDAQ       FLUSHING FINANCIAL CORP       29409     586709.55  0.069615 10 Financial Services             1010 Banks                                            1010820 Banks: Savings/Thrifts & Mortgage Lend           
20160429 344177100 US3441771009 FOGO     NASDAQ       FOGO DE CHAI INC                938      15661.40  0.001858 03 Consumer Discretionary         0340 Leisure                                          0340810 Restaurants                                      
20160429 346233109 US3462331097 FOR      NYSE         FORESTAR GROUP INC            33619     453856.50  0.053852 10 Financial Services             1050 Real Estate                                      1050802 Real Estate Holding and Development              
20160429 346375108 US3463751087 FORM     NASDAQ       FORMFACTOR INC                30692     236322.29  0.028040 01 Technology                     0120 Electronics                                      0120476 Semiconductors & Components                      
20160429 34984V100 US34984V1008 FET      NYSE         FORUM ENERGY TECH             59317     992966.58  0.117819 06 Energy                         0610 Energy Equipment & Services                      0610600 Oil Well Equipment & Services                    
20160429 350060109 US3500601097 FSTR     NASDAQ       FOSTER L B CO                 10390     204475.20  0.024262 07 Materials & Processing         0740 Metals & Minerals                                0740630 Metal Fabricating                                
20160429 35137T108 US35137T1088 FXCB     NASDAQ       FOX CHASE BANCORP             11674     230094.54  0.027301 10 Financial Services             1010 Banks                                            1010820 Banks: Savings/Thrifts & Mortgage Lend           
20160429 353469109 US3534691098 FC       NYSE         FRANKLIN COVEY CO             10998     181133.11  0.021492 03 Consumer Discretionary         0330 Consumer Services                                0330461 Education Services                               
20160429 353514102 US3535141028 FELE     NASDAQ       FRANKLIN ELECTRIC CO           3476     109831.20  0.013032 08 Producer Durables              0830 Scientific Instruments & Services                0830465 Scientific Instruments: Electrical               
20160429 35352P104 US35352P1049 FSB      NYSE         FRANKLIN FINANCIAL NTWK        5449     165322.66  0.019616 10 Financial Services             1010 Banks                                            1010400 Banks: Diversified                               
20160429 35471R106 US35471R1068 FSP      NYSE MKT     FRANKLIN STREET PPTYS CO      89934     955099.08  0.113326 10 Financial Services             1060 Real Estate Investment Trusts                    1060912 Equity REIT: Office                              
20160429 356108100 US3561081007 FRED     NASDAQ       FREDS INC                     37156     545078.52  0.064675 03 Consumer Discretionary         0360 Retail                                           0360815 Diversified Retail                               
20160429 357023100 US3570231007 RAIL     NASDAQ       FREIGHTCAR AMERICA INC         6246     107114.32  0.012709 08 Producer Durables              0840 Transportation & Freight                         0840770 Railroad Equipment                               
20160429 35952H502 US35952H5028 FCEL     NASDAQ       FUELCELL ENERGY INC           17170     102328.60  0.012142 06 Energy                         0610 Energy Equipment & Services                      0610477 Energy Equipment                                 
20160429 360271100 US3602711000 FULT     NASDAQ       FULTON FINANCIAL CORP        176691    2471907.09  0.293300 10 Financial Services             1010 Banks                                            1010400 Banks: Diversified                               
20160429 36116M106 US36116M1062 FF       NYSE         FUTUREFUEL CORPORATION        24407     274334.68  0.032551 07 Materials & Processing         0720 Chemicals and Synthetics                         0720833 Chemicals: Specialty                             
20160429 361268105 US3612681052 GK       NASDAQ       G&K SERVICES INC               5497     388419.57  0.046087 08 Producer Durables              0850 Commercial Services                              0850484 Environmental Maint & Security Service           
20160429 36162J106 US36162J1060 GEO      NYSE         GEO GROUP INC                 74656    2391231.68  0.283728 10 Financial Services             1060 Real Estate Investment Trusts                    1060915 Equity REIT: Other Specialty                     
20160429 36191C205 CA36191C2058 GSIG     NASDAQ       GSI GROUP INC                 34406     500607.30  0.059399 01 Technology                     0120 Electronics                                      0120738 Production Technology Equipment                  
20160429 36268W100 US36268W1009 GCAP     NYSE         GAIN CAPITAL HLDNGS INC       27398     187671.03  0.022268 10 Financial Services             1040 Investment Banking & Brokerage Services          1040823 Securities Brokerage & Services                  
20160429 36729W202 US36729W2026 GST      NYSE MKT     GASTAR EXPL INC               81146     161480.54  0.019160 06 Energy                         0620 Non-Renewable Energy                             0620670 Oil: Crude Producers                             
20160429 369300108 US3693001089 BGC      NYSE         GENERAL CABLE CORP             4155      64991.71  0.007711 08 Producer Durables              0830 Scientific Instruments & Services                0830465 Scientific Instruments: Electrical               
20160429 371532102 US3715321028 GCO      NYSE         GENESCO INC                   22091    1528255.38  0.181333 03 Consumer Discretionary         0360 Retail                                           0360834 Specialty Retail                                 
20160429 37185X106 US37185X1063 GEN      NYSE         GENESIS HEALTHCARE INC        18657      47015.35  0.005579 02 Health Care                    0210 Health Care Services                             0210504 Health Care Facilities                           
20160429 372284208 US3722842081 GNE      NYSE         GENIE ENERGY LTD               9618      70882.18  0.008410 11 Utilities                      1110 Utilities                                        1110870 Utilities: Electrical                            
20160429 37364X109 US37364X1090 GEOS     NASDAQ       GEOSPACE TECHNOLOGIES         13148     215101.28  0.025522 06 Energy                         0610 Energy Equipment & Services                      0610600 Oil Well Equipment & Services                    
20160429 373865104 US3738651047 GABC     NASDAQ       GERMAN AMERICAN BANCORP       14950     481838.50  0.057172 10 Financial Services             1010 Banks                                            1010400 Banks: Diversified                               
20160429 374163103 US3741631036 GERN     NASDAQ       GERON CORP                     8694      25649.78  0.003043 02 Health Care                    0230 Pharmaceuticals & Biotech                        0230412 Biotechnology                                    
20160429 374297109 US3742971092 GTY      NYSE         GETTY REALTY CORP             25552     502863.36  0.059666 10 Financial Services             1060 Real Estate Investment Trusts                    1060908 Equity REIT: Retail                              
20160429 374689107 US3746891072 ROCK     NASDAQ       GIBRALTAR INDUSTRIES INC      30964     818997.80  0.097177 07 Materials & Processing         0710 Building Materials & Services                    0710430 Building Materials                               
20160429 37637Q105 US37637Q1058 GBCI     NASDAQ       GLACIER BANCORP INC           75531    1955497.59  0.232026 10 Financial Services             1010 Banks                                            1010400 Banks: Diversified                               
20160429 376536108 US3765361080 GOOD     NASDAQ       GLADSTONE COMMERCIAL          22066     371370.78  0.044064 10 Financial Services             1060 Real Estate Investment Trusts                    1060932 Mortgage REIT: Diversified                       
20160429 377316104 US3773161043 GLT      NYSE         GLATFELTER                    43244     991584.92  0.117655 07 Materials & Processing         0730 Industrial Materials & Processes                 0730720 Paper                                            
20160429 377322102 US3773221029 GKOS     NYSE         GLAUKOS CORPORATION            1131      21316.25  0.002529 02 Health Care                    0220 Medical Equipment & Services                     0220471 Medical Equipment                                
20160429 37890U108 US37890U1088 GBT      NASDAQ       GLOBAL BLOOD THERA              717      14471.89  0.001717 02 Health Care                    0230 Pharmaceuticals & Biotech                        0230412 Biotechnology                                    
20160429 378973408 US3789734080 GSAT     NYSE MKT     GLOBALSTAR INC               476115     928424.25  0.110161 11 Utilities                      1110 Utilities                                        1110880 Utilities: Telecommunications                    
20160429 37953G103 US37953G1031 BRSS     NYSE         GLOBAL BRASS & COPPR HLD       2234      60564.60  0.007186 07 Materials & Processing         0740 Metals & Minerals                                0740630 Metal Fabricating                                
20160429 379890106 US3798901068 GLUU     NASDAQ       GLU MOBILE INC                57760     154220.05  0.018299 01 Technology                     0130 Information Technology                           0130469 Electronic Entertainment                         
20160429 383082104 US3830821043 GRC      NYSE MKT     GORMAN RUPP CO                14672     415059.00  0.049248 08 Producer Durables              0830 Scientific Instruments & Services                0830524 Scientific Instruments: Control & Filter         
20160429 38376A103 US38376A1034 GOV      NYSE         GOVERNMENT PPTY INCOME        70364    1331286.88  0.157962 10 Financial Services             1060 Real Estate Investment Trusts                    1060912 Equity REIT: Office                              
20160429 384556106 US3845561063 GHM      NYSE         GRAHAM CORP                   10127     187450.77  0.022242 08 Producer Durables              0810 Machinery                                        0810584 Machinery: Industrial                            
20160429 385002100 US3850021003 GPT      NYSE         GRAMERCY PROPERTY TRUST      419572    3553774.84  0.421667 10 Financial Services             1060 Real Estate Investment Trusts                    1060906 Equity REIT: Industrial                          
20160429 387328107 US3873281071 GVA      NYSE         GRANITE CONSTR INC            39346    1754438.14  0.208170 08 Producer Durables              0820 Manufacturing & Production                       0820443 Construction                                     
20160429 38983D300 US38983D3008 AJX      NYSE         GREAT AJAX CORP                4340      59110.80  0.007014 10 Financial Services             1060 Real Estate Investment Trusts                    1060932 Mortgage REIT: Diversified                       
20160429 390607109 US3906071093 GLDD     NASDAQ       GREAT LAKES DREDGE & DOC      55086     251741.70  0.029870 08 Producer Durables              0820 Manufacturing & Production                       0820443 Construction                                     
20160429 390905107 US3909051076 GSBC     NASDAQ       GREAT SOUTHERN BANCORP        10484     396924.24  0.047096 10 Financial Services             1010 Banks                                            1010400 Banks: Diversified                               
20160429 391416104 US3914161043 GWB      NYSE         GREAT WESTERN BANCORP         41326    1302595.52  0.154557 10 Financial Services             1010 Banks                                            1010400 Banks: Diversified                               
20160429 39153L106 US39153L1061 GB       NYSE         GREATBATCH INC                25517     887991.60  0.105363 02 Health Care                    0220 Medical Equipment & Services                     0220471 Medical Equipment                                
20160429 39260X100 US39260X1000 GNBC     NASDAQ       GREEN BANCORP INC             14270     116443.20  0.013816 10 Financial Services             1010 Banks                                            1010400 Banks: Diversified                               
20160429 392709101 US3927091013 GRBK     NASDAQ       GREEN BRICK PARTNERS INC      21614     159295.18  0.018901 06 Energy                         0630 Alternative Energy                               0630478 Alternative Energy                               
20160429 39304D102 US39304D1028 GDOT     NYSE         GREEN DOT CORP                45888    1020090.24  0.121037 10 Financial Services             1020 Consumer Finance & Credit Services               1020489 Financial Data & Systems                         
20160429 393222104 US3932221043 GPRE     NASDAQ       GREEN PLAINS INC              37949     686876.90  0.081500 06 Energy                         0630 Alternative Energy                               0630478 Alternative Energy                               
20160429 397624107 US3976241071 GEF      NYSE         GREIF INC                     30799    1068725.30  0.126808 07 Materials & Processing         0730 Industrial Materials & Processes                 0730442 Containers & Packaging                           
20160429 398433102 US3984331021 GFF      NYSE         GRIFFON CORP                  24523     387707.37  0.046003 07 Materials & Processing         0710 Building Materials & Services                    0710430 Building Materials                               
20160429 398905109 US3989051095 GPI      NYSE         GROUP 1 AUTOMOTIVE INC        18413    1212304.88  0.143844 03 Consumer Discretionary         0360 Retail                                           0360834 Specialty Retail                                 
20160429 40075T607 US40075T6073 GBNK     NASDAQ       GUARANTY BANCORP              14821     243360.82  0.028876 10 Financial Services             1010 Banks                                            1010400 Banks: Diversified                               
20160429 401617105 US4016171054 GES      NYSE         GUESS INC                     61914    1136121.90  0.134805 03 Consumer Discretionary         0320 Consumer Products                                0320850 Textiles Apparel & Shoes                         
20160429 402629208 US4026292080 GLF      NYSE         GULFMARK OFFSHORE INC         25636     173812.08  0.020623 08 Producer Durables              0840 Transportation & Freight                         0840830 Shipping                                         
20160429 404139107 US4041391073 HCHC     NYSE MKT     HC2 HLDGS INC                 10158      39211.28  0.004653 08 Producer Durables              0850 Commercial Services                              0850479 Engineering & Contracting Services               
20160429 40416E103 US40416E1038 HCI      NYSE         HCI GROUP INC                  7510     224998.04  0.026697 10 Financial Services             1030 Insurance                                        1030542 Insurance: Property-Casualty                     
20160429 40434J100 US40434J1007 HRG      NYSE         HRG GROUP INC                 43568     627366.44  0.074439 10 Financial Services             1040 Investment Banking & Brokerage Services          1040457 Diversified Financial Services                   
20160429 405024100 US4050241003 HAE      NYSE         HAEMONETICS CORP              26979     874913.60  0.103811 02 Health Care                    0220 Medical Equipment & Services                     0220471 Medical Equipment                                
20160429 40537Q506 US40537Q5062 HK       NYSE         HALCON RESOURCES CORP         73445      89602.90  0.010632 06 Energy                         0620 Non-Renewable Energy                             0620670 Oil: Crude Producers                             
20160429 40609P105 US40609P1057 HNRG     NASDAQ       HALLADOR ENERGY CO             8091      37782.76  0.004483 06 Energy                         0620 Non-Renewable Energy                             0620435 Coal                                             
20160429 40624Q203 US40624Q2030 HALL     NASDAQ       HALLMARK FINL SVCS INC        14136     159595.44  0.018937 10 Financial Services             1030 Insurance                                        1030542 Insurance: Property-Casualty                     
20160429 40650V100 US40650V1008 HYH      NYSE         HALYARD HEALTH INC            46536    1310453.76  0.155490 02 Health Care                    0220 Medical Equipment & Services                     0220507 Medical & Dental Instruments & Supplies          
20160429 409321502 US4093215022 HMPR     NASDAQ       HAMPTON ROADS BANKSHARES      34273      60320.48  0.007157 10 Financial Services             1010 Banks                                            1010400 Banks: Diversified                               
20160429 410120109 US4101201097 HBHC     NASDAQ       HANCOCK HOLDING CO            77892    2022855.24  0.240018 10 Financial Services             1010 Banks                                            1010400 Banks: Diversified                               
20160429 410315105 US4103151050 HNH      NASDAQ       HANDY & HARMAN HLDGS LTD       2229      61135.13  0.007254 07 Materials & Processing         0740 Metals & Minerals                                0740835 Steel                                            
20160429 410495204 US4104952043 HAFC     NASDAQ       HANMI FINANCIAL CORP          31936     738360.32  0.087609 10 Financial Services             1010 Banks                                            1010400 Banks: Diversified                               
20160429 41068X100 US41068X1000 HASI     NYSE         HANNON ARMSTRONG SUSTAIN      38270     742438.00  0.088093 10 Financial Services             1060 Real Estate Investment Trusts                    1060931 Mortgage REIT: Commercial                        
20160429 413160102 US4131601027 HLIT     NASDAQ       HARMONIC INC                  63853     220930.00  0.026214 01 Technology                     0140 Telecommunication                                0140448 Communications Technology                        
20160429 416196103 US4161961036 HHS      NYSE         HARTE HANKS INC               48230      87778.60  0.010415 03 Consumer Discretionary         0350 Media                                            0350301 Advertising Agencies                             
20160429 416906105 US4169061052 HBIO     NASDAQ       HARVARD BIOSCIENCE INC        33452      99352.44  0.011788 02 Health Care                    0230 Pharmaceuticals & Biotech                        0230412 Biotechnology                                    
20160429 41902R103 US41902R1032 HTS      NYSE         HATTERAS FINL CORP            96791    1538008.99  0.182490 10 Financial Services             1060 Real Estate Investment Trusts                    1060930 Mortgage REIT: Residential                       
20160429 419596101 US4195961010 HVT      NYSE         HAVERTY FURNITURE INC         20378     380457.26  0.045143 03 Consumer Discretionary         0360 Retail                                           0360834 Specialty Retail                                 
20160429 420031106 US4200311060 HCOM     NASDAQ       HAWAIIAN TELCOM HOLDCO        11466     264061.98  0.031332 11 Utilities                      1110 Utilities                                        1110880 Utilities: Telecommunications                    
20160429 420261109 US4202611095 HWKN     NASDAQ       HAWKINS INC                    8684     339800.54  0.040318 07 Materials & Processing         0720 Chemicals and Synthetics                         0720433 Chemicals: Diversified                           
20160429 420877201 US4208772016 HAYN     NASDAQ       HAYNES INTERNATIONAL INC      11638     436736.99  0.051820 07 Materials & Processing         0740 Metals & Minerals                                0740630 Metal Fabricating                                
20160429 421946104 US4219461047 HR       NYSE         HEALTHCARE REALTY TRUST      100392    3039869.76  0.360691 10 Financial Services             1060 Real Estate Investment Trusts                    1060910 Equity REIT: Health Care                         
20160429 422245100 US4222451001 HWAY     NASDAQ       HEALTHWAYS INC                31042     361639.30  0.042910 02 Health Care                    0210 Health Care Services                             0210499 Health Care Services                             
20160429 42234Q102 US42234Q1022 HTLF     NASDAQ       HEARTLAND FINANCIAL USA       18907     633573.57  0.075176 10 Financial Services             1010 Banks                                            1010400 Banks: Diversified                               
20160429 422704106 US4227041062 HL       NYSE         HECLA MINING CO              370348    1596199.88  0.189394 07 Materials & Processing         0740 Metals & Minerals                                0740635 Metals & Minerals: Diversified                   
20160429 422819102 US4228191023 HSII     NASDAQ       HEIDRICK & STRUGGLES          17386     343019.47  0.040700 08 Producer Durables              0850 Commercial Services                              0850365 Back Office Support HR & Consulting              
20160429 42330P107 US42330P1075 HLX      NYSE         HELIX ENERGY SOLUTIONS       105914     914037.82  0.108454 06 Energy                         0610 Energy Equipment & Services                      0610600 Oil Well Equipment & Services                    
20160429 42365Q103 US42365Q1031 HMTV     NASDAQ       HEMISPHERE MEDIA GROUP         9525     113910.63  0.013516 03 Consumer Discretionary         0350 Media                                            0350432 Cable Television Services                        
20160429 426927109 US4269271098 HTBK     NASDAQ       HERITAGE COMMERCE CORP        24295     253639.80  0.030095 10 Financial Services             1010 Banks                                            1010400 Banks: Diversified                               
20160429 42722X106 US42722X1063 HFWA     NASDAQ       HERITAGE FINANCIAL CORP       30243     557983.35  0.066207 10 Financial Services             1010 Banks                                            1010820 Banks: Savings/Thrifts & Mortgage Lend           
20160429 42724R107 US42724R1077 HEOP     NASDAQ       HERITAGE OAKS BANCORP         23459     195882.65  0.023242 10 Financial Services             1010 Banks                                            1010400 Banks: Diversified                               
20160429 42726M106 US42726M1062 HCCI     NASDAQ       HERITAGE CRYL CLEAN INC       11512     119718.27  0.014205 08 Producer Durables              0830 Scientific Instruments & Services                0830735 Scientific Instruments: Pollution Control        
20160429 42727J102 US42727J1025 HRTG     NYSE         HERITAGE INS HLDGS INC         9088     120791.00  0.014332 10 Financial Services             1030 Insurance                                        1030542 Insurance: Property-Casualty                     
20160429 427825500 US4278255009 HT       NYSE         HERSHA HOSPITALITY TRUST      46041     888130.89  0.105380 10 Financial Services             1060 Real Estate Investment Trusts                    1060909 Equity REIT: Lodging and Resorts                 
20160429 431284108 US4312841087 HIW      NYSE         HIGHWOODS PROPERTIES INC      94052    4395049.96  0.521487 10 Financial Services             1060 Real Estate Investment Trusts                    1060912 Equity REIT: Office                              
20160429 431466101 US4314661012 HIL      NYSE         HILL INTERNATIONAL INC        36582     155107.68  0.018404 08 Producer Durables              0850 Commercial Services                              0850479 Engineering & Contracting Services               
20160429 432748101 US4327481010 HTH      NYSE         HILLTOP HOLDINGS INC          48966     972446.75  0.115384 10 Financial Services             1030 Insurance                                        1030542 Insurance: Property-Casualty                     
20160429 433323102 US4333231029 HIFS     NASDAQ       HINGHAM INSTN SVGS MASS        1316     168434.84  0.019985 10 Financial Services             1010 Banks                                            1010820 Banks: Savings/Thrifts & Mortgage Lend           
20160429 436893200 US4368932004 HOMB     NASDAQ       HOME BANCSHARES INC           10447     449128.87  0.053291 10 Financial Services             1010 Banks                                            1010400 Banks: Diversified                               
20160429 43785V102 US43785V1026 HMST     NASDAQ       HOMESTREET INC                16915     364517.17  0.043251 10 Financial Services             1010 Banks                                            1010400 Banks: Diversified                               
20160429 437872104 US4378721041 HTBI     NASDAQ       HOMETRUST BANCSHARES INC      19155     355325.25  0.042161 10 Financial Services             1010 Banks                                            1010400 Banks: Diversified                               
20160429 439038100 US4390381006 HOFT     NASDAQ       HOOKER FURNITURE CORP         10066     249613.02  0.029617 03 Consumer Discretionary         0320 Consumer Products                                0320523 Household Furnishings                            
20160429 440327104 US4403271046 HMN      NYSE         HORACE MANN EDUCATORS         41141    1279485.10  0.151815 10 Financial Services             1030 Insurance                                        1030535 Insurance: Multi-Line                            
20160429 440407104 US4404071049 HBNC     NASDAQ       HORIZON BANCORP IND           11428     278843.20  0.033086 10 Financial Services             1010 Banks                                            1010400 Banks: Diversified                               
20160429 44052W104 US44052W1045 HZN      NYSE         HORIZON GLOBAL CORP           16993     208501.75  0.024739 03 Consumer Discretionary         0310 Auto & Auto Parts                                0310340 Auto Parts                                       
20160429 440543106 US4405431069 HOS      NYSE         HORNBECK OFFSHORE SVCS        31989     375550.86  0.044560 06 Energy                         0610 Energy Equipment & Services                      0610600 Oil Well Equipment & Services                    
20160429 44157R109 US44157R1095 HMHC     NASDAQ       HOUGHTON MIFFLIN HARCOUR     114752    2353543.19  0.279256 03 Consumer Discretionary         0330 Consumer Services                                0330461 Education Services                               
20160429 441593100 US4415931009 HLI      NYSE         HOULIHAN LOKEY INC             8030     202433.15  0.024019 10 Financial Services             1040 Investment Banking & Brokerage Services          1040457 Diversified Financial Services                   
20160429 442487203 US4424872038 HOV      NYSE         HOVNANIAN ENTERPRISES        119322     199267.74  0.023644 03 Consumer Discretionary         0320 Consumer Products                                0320501 Homebuilding                                     
20160429 443320106 US4433201062 HUBG     NASDAQ       HUB GROUP INC                  3139     120916.09  0.014347 08 Producer Durables              0840 Transportation & Freight                         0840860 Transportation Miscellaneous                     
20160429 444097109 US4440971095 HPP      NYSE         HUDSON PAC PPTYS INC          74444    2177487.00  0.258366 10 Financial Services             1060 Real Estate Investment Trusts                    1060912 Equity REIT: Office                              
20160429 447324104 US4473241044 HURC     NASDAQ       HURCO COMPANIES INC            6538     211700.44  0.025119 08 Producer Durables              0810 Machinery                                        0810610 Machinery: Specialty                             
20160429 447462102 US4474621020 HURN     NASDAQ       HURON CONSULTING GROUP        18925    1052386.55  0.124869 08 Producer Durables              0850 Commercial Services                              0850365 Back Office Support HR & Consulting              
20160429 448947507 US4489475073 IDT      NYSE         IDT CORP                      14239     218412.16  0.025915 11 Utilities                      1110 Utilities                                        1110880 Utilities: Telecommunications                    
20160429 449172105 US4491721050 HY       NYSE         HYSTER-YALE MATERIALS          6799     416413.88  0.049409 08 Producer Durables              0810 Machinery                                        0810577 Machinery: Construction & Handling               
20160429 44925C103 US44925C1036 ICFI     NASDAQ       ICF INTERNATIONAL INC         19525     768699.25  0.091209 08 Producer Durables              0850 Commercial Services                              0850365 Back Office Support HR & Consulting              
20160429 44930G107 US44930G1076 ICUI     NASDAQ       ICU MEDICAL INC                5045     501253.55  0.059475 02 Health Care                    0220 Medical Equipment & Services                     0220507 Medical & Dental Instruments & Supplies          
20160429 45031U101 US45031U1016 STAR     NYSE         ISTAR INC                     76069     745476.20  0.088453 10 Financial Services             1060 Real Estate Investment Trusts                    1060931 Mortgage REIT: Commercial                        
20160429 45071R109 US45071R1095 XXIA     NASDAQ       IXIA                           6184      62583.68  0.007426 01 Technology                     0140 Telecommunication                                0140448 Communications Technology                        
20160429 450828108 US4508281080 IBKC     NASDAQ       IBERIABANK CORP               38182    2252356.18  0.267249 10 Financial Services             1010 Banks                                            1010400 Banks: Diversified                               
20160429 451055107 US4510551074 ICON     NASDAQ       ICONIX BRAND GROUP INC        47735     404792.80  0.048030 03 Consumer Discretionary         0320 Consumer Products                                0320850 Textiles Apparel & Shoes                         
20160429 451107106 US4511071064 IDA      NYSE         IDACORP INC                   50347    3661737.31  0.434477 11 Utilities                      1110 Utilities                                        1110870 Utilities: Electrical                            
20160429 45168K306 US45168K3068 IDRA     NASDAQ       IDERA PHARMACEUTICALS          7350      12201.98  0.001448 02 Health Care                    0230 Pharmaceuticals & Biotech                        0230412 Biotechnology                                    
20160429 451731103 US4517311035 RXDX     NASDAQ       IGNYTA INC                     8736      60457.70  0.007174 02 Health Care                    0230 Pharmaceuticals & Biotech                        0230412 Biotechnology                                    
20160429 45245A107 US45245A1079 IMN      NYSE         IMATION CORP                  30520      47916.40  0.005685 01 Technology                     0130 Information Technology                           0130449 Computer Technology                              
20160429 45254P508 US45254P5089 IMH      NYSE MKT     IMPAC MTG HLDGS INC             741      10526.74  0.001249 10 Financial Services             1020 Consumer Finance & Credit Services               1020487 Commercial Finance & Mortgage Co                 
20160429 452907108 US4529071080 IMMU     NASDAQ       IMMUNOMEDICS INC               7620      27053.33  0.003210 02 Health Care                    0230 Pharmaceuticals & Biotech                        0230412 Biotechnology                                    
20160429 45336E109 US45336E1091 SAAS     NASDAQ       INCONTACT INC                  5779      53809.73  0.006385 11 Utilities                      1110 Utilities                                        1110880 Utilities: Telecommunications                    
20160429 453415309 US4534153097 ICD      NYSE         IND CONTRACT DRILLING         16565      65928.70  0.007823 06 Energy                         0610 Energy Equipment & Services                      0610600 Oil Well Equipment & Services                    
20160429 453440307 US4534403070 IHC      NYSE         INDEPENDENCE HOLDING CO        7052     108389.24  0.012861 10 Financial Services             1030 Insurance                                        1030528 Insurance: Life                                  
20160429 45378A106 US45378A1060 IRT      NYSE MKT     INDEPENDENCE RLTY TRUST       32224     231046.08  0.027414 10 Financial Services             1060 Real Estate Investment Trusts                    1060907 Equity REIT: Residential                         
20160429 453836108 US4538361084 INDB     NASDAQ       INDEPENDENT BANK MA           26148    1229740.44  0.145913 10 Financial Services             1010 Banks                                            1010400 Banks: Diversified                               
20160429 453838609 US4538386099 IBCP     NASDAQ       INDEPENDENT BANK CORP         21598     327209.70  0.038825 10 Financial Services             1010 Banks                                            1010400 Banks: Diversified                               
20160429 45384B106 US45384B1061 IBTX     NASDAQ       INDEPENDENT BK GROUP INC       9699     354983.40  0.042120 10 Financial Services             1010 Banks                                            1010400 Banks: Diversified                               
20160429 45665Q103 US45665Q1031 IPCC     NASDAQ       INFINITY PPTY & CAS CORP      11466     919114.56  0.109056 10 Financial Services             1030 Insurance                                        1030542 Insurance: Property-Casualty                     
20160429 45685L100 US45685L1008 HIFR     NYSE         INFRAREIT INC                 21904     363168.32  0.043091 10 Financial Services             1060 Real Estate Investment Trusts                    1060914 Equity REIT: Infrastructure                      
20160429 457030104 US4570301048 IMKTA    NASDAQ       INGLES MARKETS INC             9658     348343.72  0.041332 04 Consumer Staples               0420 Personal Care/Drug & Grocery Stores              0420459 Drug & Grocery Store Chains                      
20160429 45765U103 US45765U1034 NSIT     NASDAQ       INSIGHT ENTERPRISES INC       38763     957833.73  0.113650 01 Technology                     0130 Information Technology                           0130449 Computer Technology                              
20160429 45768S105 US45768S1050 IOSP     NASDAQ       INNOSPEC INC                  24240    1172246.40  0.139091 07 Materials & Processing         0720 Chemicals and Synthetics                         0720833 Chemicals: Specialty                             
20160429 45773H201 US45773H2013 INO      NASDAQ       INOVIO PHARMACEUTICALS         7683      80524.86  0.009555 02 Health Care                    0230 Pharmaceuticals & Biotech                        0230412 Biotechnology                                    
20160429 45773Y105 US45773Y1055 INWK     NASDAQ       INNERWORKINGS INC             22423     183195.06  0.021737 08 Producer Durables              0850 Commercial Services                              0850486 Forms and Bulk Printing Services                 
20160429 45774N108 US45774N1081 IPHS     NASDAQ       INNOPHOS HOLDINGS INC         19653     726374.88  0.086187 07 Materials & Processing         0720 Chemicals and Synthetics                         0720433 Chemicals: Diversified                           
20160429 45774W108 US45774W1080 IIIN     NASDAQ       INSTEEL INDUSTRIES INC         1640      47566.91  0.005644 07 Materials & Processing         0730 Industrial Materials & Processes                 0730452 Diversified Materials & Processing               
20160429 45781M101 US45781M1018 INVA     NASDAQ       INNOVIVA INC                  10983     135540.51  0.016082 02 Health Care                    0230 Pharmaceuticals & Biotech                        0230460 Pharmaceuticals                                  
20160429 45781U103 US45781U1034 INST     NYSE         INSTRUCTURE INC                3279      66023.59  0.007834 03 Consumer Discretionary         0330 Consumer Services                                0330461 Education Services                               
20160429 457985208 US4579852082 IART     NASDAQ       INTEGRA LIFESCIENCES          15824    1120599.45  0.132963 02 Health Care                    0220 Medical Equipment & Services                     0220507 Medical & Dental Instruments & Supplies          
20160429 45825N107 US45825N1072 IQNT     NASDAQ       INTELIQUENT INC               19591     325012.43  0.038564 11 Utilities                      1110 Utilities                                        1110880 Utilities: Telecommunications                    
20160429 458334109 US4583341098 IPAR     NASDAQ       INTER PARFUMS INC             10033     307186.73  0.036449 03 Consumer Discretionary         0320 Consumer Products                                0320450 Cosmetics                                        
20160429 45867G101 US45867G1013 IDCC     NASDAQ       INTERDIGITAL INC               3714     211675.06  0.025116 01 Technology                     0140 Telecommunication                                0140448 Communications Technology                        
20160429 459044103 US4590441030 IBOC     NASDAQ       INTERNATIONAL BANCSHARES      54162    1418502.78  0.168310 10 Financial Services             1010 Banks                                            1010400 Banks: Diversified                               
20160429 460335201 US4603352018 ISCA     NASDAQ       INTERNATIONAL SPEEDWAY        27908     934638.92  0.110898 03 Consumer Discretionary         0340 Leisure                                          0340556 Leisure Time                                     
20160429 46069S109 US46069S1096 ISIL     NASDAQ       INTERSIL CORP                131829    1541081.01  0.182854 01 Technology                     0120 Electronics                                      0120476 Semiconductors & Components                      
20160429 46090K109 US46090K1097 SNOW     NYSE         INTRAWEST RSRTS HLDG INC      15836     136823.04  0.016235 03 Consumer Discretionary         0340 Leisure                                          0340556 Leisure Time                                     
20160429 46116V105 US46116V1052 INTL     NASDAQ       INTL FCSTONE INC              11130     303838.08  0.036051 10 Financial Services             1040 Investment Banking & Brokerage Services          1040823 Securities Brokerage & Services                  
20160429 46118H104 US46118H1041 IL       NYSE         INTRALINKS HLDGS INC          18484     164698.14  0.019542 01 Technology                     0130 Information Technology                           0130439 Computer Services Software & Systems             
20160429 461203101 US4612031017 IVC      NYSE         INVACARE CORP                 32367     363805.08  0.043167 02 Health Care                    0220 Medical Equipment & Services                     0220507 Medical & Dental Instruments & Supplies          
20160429 46121Y102 US46121Y1029 IPI      NYSE         INTREPID POTASH INC           56163      71888.64  0.008530 07 Materials & Processing         0720 Chemicals and Synthetics                         0720485 Fertilizers                                      
20160429 46131B100 US46131B1008 IVR      NYSE         INVESCO MORTGAGE CAP         113390    1457061.50  0.172885 10 Financial Services             1060 Real Estate Investment Trusts                    1060932 Mortgage REIT: Diversified                       
20160429 46145F105 US46145F1057 ITG      NYSE         INVESTMENT TECHNOLOGY         29745     580605.46  0.068891 10 Financial Services             1040 Investment Banking & Brokerage Services          1040823 Securities Brokerage & Services                  
20160429 46146L101 US46146L1017 ISBC     NASDAQ       INVESTORS BANCORP INC        328014    3788561.70  0.449525 10 Financial Services             1010 Banks                                            1010400 Banks: Diversified                               
20160429 461730103 US4617301035 IRET     NYSE         INVESTORS REAL ESTATE TR     122600     738052.00  0.087572 10 Financial Services             1060 Real Estate Investment Trusts                    1060916 Equity REIT: Diversified                         
20160429 46187J205 US46187J2050 IVTY     NASDAQ       INVUITY INC                     754       5128.80  0.000609 02 Health Care                    0220 Medical Equipment & Services                     0220471 Medical Equipment                                
20160429 462044207 US4620442073 IO       NYSE         ION GEOPHYSICAL CORP           7638      69961.08  0.008301 06 Energy                         0610 Energy Equipment & Services                      0610600 Oil Well Equipment & Services                    
20160429 46269C102 US46269C1027 IRDM     NASDAQ       IRIDIUM COMMUNICATIONS        82144     662902.08  0.078656 11 Utilities                      1110 Utilities                                        1110880 Utilities: Telecommunications                    
20160429 462726100 US4627261005 IRBT     NASDAQ       IROBOT CORP                   24196     904421.66  0.107313 01 Technology                     0120 Electronics                                      0120475 Electronics                                      
20160429 464592104 US4645921044 ISLE     NASDAQ       ISLE OF CAPRI CASINOS          1127      16801.39  0.001994 03 Consumer Discretionary         0340 Leisure                                          0340434 Casinos & Gambling                               
20160429 465741106 US4657411066 ITRI     NASDAQ       ITRON INC                     38451    1581105.12  0.187603 08 Producer Durables              0830 Scientific Instruments & Services                0830474 Scientific Instruments: Gauges & Meters          
20160429 46600W106 US46600W1062 IXYS     NASDAQ       IXYS CORP                     24815     268002.00  0.031799 01 Technology                     0120 Electronics                                      0120476 Semiconductors & Components                      
20160429 46609J106 US46609J1060 JAX      NYSE         J ALEXANDERS HOLDINGS         13820     142346.00  0.016890 03 Consumer Discretionary         0340 Leisure                                          0340810 Restaurants                                      
20160429 46618D108 US46618D1081 JGW      NYSE         JG WENTWORTH CO               14492      16665.80  0.001977 10 Financial Services             1020 Consumer Finance & Credit Services               1020492 Consumer Lending                                 
20160429 47012E106 US47012E1064 JAKK     NASDAQ       JAKKS PACIFIC INC             14957     112174.32  0.013310 03 Consumer Discretionary         0320 Consumer Products                                0320858 Toys                                             
20160429 47102X105 US47102X1054 JNS      NYSE         JANUS CAPITAL GROUP INC      134490    1963552.07  0.232982 10 Financial Services             1040 Investment Banking & Brokerage Services          1040544 Asset Management & Custodian                     
20160429 479167108 US4791671088 JOUT     NASDAQ       JOHNSON OUTDOORS INC           5056     122001.28  0.014476 03 Consumer Discretionary         0340 Leisure                                          0340556 Leisure Time                                     
20160429 48019R108 US48019R1086 JONE     NYSE         JONES ENERGY INC              28965     139032.00  0.016497 06 Energy                         0620 Non-Renewable Energy                             0620670 Oil: Crude Producers                             
20160429 48244B100 US48244B1008 KCG      NYSE         KCG HOLDINGS INC              30030     411410.27  0.048815 10 Financial Services             1040 Investment Banking & Brokerage Services          1040823 Securities Brokerage & Services                  
20160429 482539103 US4825391034 KLXI     NASDAQ       KLX INC                       52748    1778662.56  0.211044 08 Producer Durables              0840 Transportation & Freight                         0840300 Aerospace                                        
20160429 482738101 US4827381017 KVHI     NASDAQ       KVH INDUSTRIES INC             3423      33409.68  0.003964 01 Technology                     0140 Telecommunication                                0140448 Communications Technology                        
20160429 48273U102 US48273U1025 LRN      NYSE         K12 INC                       33771     415045.59  0.049247 03 Consumer Discretionary         0330 Consumer Services                                0330461 Education Services                               
20160429 48282T104 US48282T1043 KAI      NYSE         KADANT INC                     9190     435123.20  0.051629 08 Producer Durables              0810 Machinery                                        0810584 Machinery: Industrial                            
20160429 483007704 US4830077040 KALU     NASDAQ       KAISER ALUMINUM CORP          11425    1083391.40  0.128548 07 Materials & Processing         0740 Metals & Minerals                                0740320 Aluminum                                         
20160429 483548103 US4835481031 KAMN     NYSE         KAMAN CORP                    24996    1052052.35  0.124829 08 Producer Durables              0810 Machinery                                        0810584 Machinery: Industrial                            
20160429 48666K109 US48666K1097 KBH      NYSE         KB HOME                       75377    1022865.89  0.121366 03 Consumer Discretionary         0320 Consumer Products                                0320501 Homebuilding                                     
20160429 48716P108 US48716P1084 KRNY     NASDAQ       KEARNY FINANCIAL CORP         93529    1180335.98  0.140051 10 Financial Services             1010 Banks                                            1010820 Banks: Savings/Thrifts & Mortgage Lend           
20160429 488152208 US4881522084 KELYA    NASDAQ       KELLY SERVICES INC            29756     558520.12  0.066270 08 Producer Durables              0850 Commercial Services                              0850365 Back Office Support HR & Consulting              
20160429 488401100 US4884011002 KMPR     NYSE         KEMPER CORPORATION            43493    1346543.28  0.159772 10 Financial Services             1030 Insurance                                        1030535 Insurance: Multi-Line                            
20160429 489398107 US4893981070 KW       NYSE         KENNEDY-WILSON HLDGS INC      84079    1816938.81  0.215586 10 Financial Services             1050 Real Estate                                      1050801 Real Estate Services                             
20160429 492914106 US4929141061 KEG      NYSE         KEY ENERGY SERVICES INC      133055      70372.79  0.008350 06 Energy                         0610 Energy Equipment & Services                      0610600 Oil Well Equipment & Services                    
20160429 493723100 US4937231003 KEYW     NASDAQ       KEYW HOLDING CORP             33503     230835.67  0.027389 01 Technology                     0130 Information Technology                           0130439 Computer Services Software & Systems             
20160429 494274103 US4942741038 KBAL     NASDAQ       KIMBALL INTERNATIONAL         22185     258225.09  0.030639 08 Producer Durables              0820 Manufacturing & Production                       0820650 Office Supplies Equipment                        
20160429 49428J109 US49428J1097 KE       NASDAQ       KIMBALL ELECTRONICS INC       29172     319141.68  0.037867 01 Technology                     0120 Electronics                                      0120643 Technology: Misc                                 
20160429 494580103 US4945801037 KND      NYSE         KINDRED HEALTHCARE INC        83454    1231781.04  0.146155 02 Health Care                    0210 Health Care Services                             0210504 Health Care Facilities                           
20160429 49803T300 US49803T3005 KRG      NYSE         KITE REALTY GROUP TRUST       83580    2275883.40  0.270041 10 Financial Services             1060 Real Estate Investment Trusts                    1060908 Equity REIT: Retail                              
20160429 49926D109 US49926D1090 KN       NYSE         KNOWLES CORPORATION           87281    1166946.97  0.138462 01 Technology                     0140 Telecommunication                                0140849 Telecommunications Equipment                     
20160429 50047H201 US50047H2013 KONA     NASDAQ       KONA GRILL INC                 4173      55588.52  0.006596 03 Consumer Discretionary         0340 Leisure                                          0340810 Restaurants                                      
20160429 500600101 US5006001011 KOPN     NASDAQ       KOPIN CORP                    66496     110383.36  0.013097 01 Technology                     0120 Electronics                                      0120476 Semiconductors & Components                      
20160429 500643200 US5006432000 KFY      NYSE         KORN FERRY INTERNATIONAL      22887     621166.80  0.073703 08 Producer Durables              0850 Commercial Services                              0850365 Back Office Support HR & Consulting              
20160429 50077B207 US50077B2079 KTOS     NASDAQ       KRATOS DEFENSE & SEC SOL      45243     240240.33  0.028505 08 Producer Durables              0840 Transportation & Freight                         0840300 Aerospace                                        
20160429 50077C106 US50077C1062 KRA      NYSE         KRATON PERF POLYMERS          31329     711481.59  0.084420 07 Materials & Processing         0720 Chemicals and Synthetics                         0720833 Chemicals: Specialty                             
20160429 50105F105 US50105F1057 KRO      NYSE         KRONOS WORLDWIDE INC          20953     139337.45  0.016533 07 Materials & Processing         0730 Industrial Materials & Processes                 0730714 Paints & Coatings                                
20160429 50187A107 US50187A1079 LHCG     NASDAQ       LHC GROUP INC                 12203     492246.51  0.058407 02 Health Care                    0210 Health Care Services                             0210499 Health Care Services                             
20160429 50187T106 US50187T1060 LGIH     NASDAQ       LGI HOMES INC                 10465     293111.21  0.034779 03 Consumer Discretionary         0320 Consumer Products                                0320501 Homebuilding                                     
20160429 502160104 US5021601043 LXU      NYSE         LSB INDUSTRIES INC            12453     163870.35  0.019444 07 Materials & Processing         0720 Chemicals and Synthetics                         0720433 Chemicals: Diversified                           
20160429 50216C108 US50216C1080 LYTS     NASDAQ       LSI INDUSTRIES INC            21644     273796.60  0.032487 07 Materials & Processing         0710 Building Materials & Services                    0710430 Building Materials                               
20160429 502175102 US5021751020 LTC      NYSE         LTC PROPERTIES INC            35266    1635988.81  0.194115 10 Financial Services             1060 Real Estate Investment Trusts                    1060910 Equity REIT: Health Care                         
20160429 505336107 US5053361078 LZB      NYSE         LA Z BOY INC                  31481     814403.64  0.096632 03 Consumer Discretionary         0320 Consumer Products                                0320523 Household Furnishings                            
20160429 505743104 US5057431042 LADR     NYSE         LADDER CAPITAL CORP           43711     520598.01  0.061771 10 Financial Services             1060 Real Estate Investment Trusts                    1060931 Mortgage REIT: Commercial                        
20160429 50575Q102 US50575Q1022 LTS      NYSE MKT     LADENBURG THALMAN FIN         94171     252376.63  0.029945 10 Financial Services             1040 Investment Banking & Brokerage Services          1040823 Securities Brokerage & Services                  
20160429 511637100 US5116371007 LBAI     NASDAQ       LAKELAND BANCORP INC          39984     443422.56  0.052614 10 Financial Services             1010 Banks                                            1010400 Banks: Diversified                               
20160429 511656100 US5116561003 LKFN     NASDAQ       LAKELAND FINANCIAL CORP       16611     785534.19  0.093206 10 Financial Services             1010 Banks                                            1010400 Banks: Diversified                               
20160429 513847103 US5138471033 LANC     NASDAQ       LANCASTER COLONY CORP          6444     750837.84  0.089089 04 Consumer Staples               0410 Food/Beverage & Tobacco                          0410494 Foods                                            
20160429 514766104 US5147661046 LNDC     NASDAQ       LANDEC CORP                   21181     238278.85  0.028273 07 Materials & Processing         0720 Chemicals and Synthetics                         0720433 Chemicals: Diversified                           
20160429 51509F105 US51509F1057 LE       NASDAQ       LANDS END INC                 13563     329967.72  0.039152 03 Consumer Discretionary         0360 Retail                                           0360815 Diversified Retail                               
20160429 516544103 US5165441032 LNTH     NASDAQ       LANTHEUS HOLDINGS INC          2009       4140.23  0.000491 02 Health Care                    0220 Medical Equipment & Services                     0220471 Medical Equipment                                
20160429 517942108 US5179421087 LHO      NYSE         LASALLE HOTEL PROPERTIES     112963    2699815.70  0.320342 10 Financial Services             1060 Real Estate Investment Trusts                    1060909 Equity REIT: Lodging and Resorts                 
20160429 518415104 US5184151042 LSCC     NASDAQ       LATTICE SEMICONDUCTOR         87953     489896.31  0.058128 01 Technology                     0120 Electronics                                      0120476 Semiconductors & Components                      
20160429 520776105 US5207761058 LAWS     NASDAQ       LAWSON PRODUCTS INC            1644      32213.01  0.003822 07 Materials & Processing         0740 Metals & Minerals                                0740630 Metal Fabricating                                
20160429 52471Y106 US52471Y1064 LTXB     NASDAQ       LEGACYTEXAS FIN GROUP         47605    1173939.30  0.139292 10 Financial Services             1010 Banks                                            1010820 Banks: Savings/Thrifts & Mortgage Lend           
20160429 525558201 US5255582018 LMAT     NASDAQ       LEMAITRE VASCULAR INC          7581     125677.69  0.014912 02 Health Care                    0220 Medical Equipment & Services                     0220507 Medical & Dental Instruments & Supplies          
20160429 528872302 US5288723027 LXRX     NASDAQ       LEXICON PHARMACEUTICALS       24927     344233.58  0.040844 02 Health Care                    0230 Pharmaceuticals & Biotech                        0230412 Biotechnology                                    
20160429 529043101 US5290431015 LXP      NYSE         LEXINGTON REALTY TRUST       205457    1803912.46  0.214040 10 Financial Services             1060 Real Estate Investment Trusts                    1060916 Equity REIT: Diversified                         
20160429 529898108 US5298981086 LBY      NYSE MKT     LIBBEY INC                     1376      25596.80  0.003037 03 Consumer Discretionary         0320 Consumer Products                                0320521 Household Equip & Products                       
20160429 531465102 US5314651028 LTRPA    NASDAQ       LIBERTY TRIPADVISOR HLDG      53029    1169818.55  0.138803 03 Consumer Discretionary         0340 Leisure                                          0340556 Leisure Time                                     
20160429 53222Q103 US53222Q1031 LCUT     NASDAQ       LIFETIME BRANDS INC           10764     185894.28  0.022057 03 Consumer Discretionary         0320 Consumer Products                                0320523 Household Furnishings                            
20160429 53261M104 US53261M1045 LLNW     NASDAQ       LIMELIGHT NETWORKS INC        60859     106503.25  0.012637 01 Technology                     0130 Information Technology                           0130439 Computer Services Software & Systems             
20160429 535555106 US5355551061 LNN      NYSE         LINDSAY CORP                   1659     126855.93  0.015052 08 Producer Durables              0810 Machinery                                        0810570 Machinery: Agricultural                          
20160429 53635B107 US53635B1070 LQDT     NASDAQ       LIQUIDITY SERVICES INC        24086     134399.88  0.015947 08 Producer Durables              0850 Commercial Services                              0850365 Back Office Support HR & Consulting              
20160429 537008104 US5370081045 LFUS     NASDAQ       LITTELFUSE INC                 3070     357616.90  0.042432 08 Producer Durables              0830 Scientific Instruments & Services                0830465 Scientific Instruments: Electrical               
20160429 53803X105 US53803X1054 LOB      NASDAQ       LIVE OAK BANCSHARES INC        4800      75552.00  0.008964 10 Financial Services             1010 Banks                                            1010400 Banks: Diversified                               
20160429 546347105 US5463471053 LPX      NYSE         LOUISIANA PACIFIC CORP        11396     193733.36  0.022987 07 Materials & Processing         0710 Building Materials & Services                    0710430 Building Materials                               
20160429 548862101 US5488621013 LOXO     NASDAQ       LOXO ONCOLOGY INC              9123     210285.15  0.024951 02 Health Care                    0230 Pharmaceuticals & Biotech                        0230412 Biotechnology                                    
20160429 55003T107 US55003T1079 LL       NYSE         LUMBER LIQUIDATORS HLDGS      27081     403777.71  0.047910 03 Consumer Discretionary         0360 Retail                                           0360834 Specialty Retail                                 
20160429 55027E102 US55027E1029 LMNX     NASDAQ       LUMINEX CORP                  40099     805977.20  0.095632 02 Health Care                    0220 Medical Equipment & Services                     0220471 Medical Equipment                                
20160429 550283105 US5502831051 LMOS     NASDAQ       LUMOS NETWORKS CORP            3367      42936.80  0.005095 11 Utilities                      1110 Utilities                                        1110880 Utilities: Telecommunications                    
20160429 550819106 US5508191062 LDL      NYSE         LYDALL INC                    11350     417529.89  0.049541 08 Producer Durables              0820 Manufacturing & Production                       0820453 Diversified Manufacturing Operations             
20160429 552074700 US5520747008 WLH      NYSE         WILLIAM LYON HOMES            16700     235465.83  0.027939 03 Consumer Discretionary         0320 Consumer Products                                0320501 Homebuilding                                     
20160429 55262C100 US55262C1009 MBI      NYSE         MBIA INC                     117380     915564.00  0.108635 10 Financial Services             1030 Insurance                                        1030542 Insurance: Property-Casualty                     
20160429 55264U108 US55264U1088 MBFI     NASDAQ       MB FINANCIAL INC              75124    2611310.24  0.309841 10 Financial Services             1010 Banks                                            1010400 Banks: Diversified                               
20160429 552676108 US5526761086 MDC      NYSE         MDC HOLDINGS INC              25395     624967.26  0.074154 03 Consumer Discretionary         0320 Consumer Products                                0320501 Homebuilding                                     
20160429 552697104 CA5526971042 MDCA     NASDAQ       MDC CORP                      31370     634917.79  0.075335 03 Consumer Discretionary         0350 Media                                            0350301 Advertising Agencies                             
20160429 55276F107 US55276F1075 MCFT     NASDAQ       MCBC HOLDINGS INC              2199      29515.01  0.003502 03 Consumer Discretionary         0340 Leisure                                          0340804 Recreational Vehicles & Boats                    
20160429 55277P104 US55277P1049 MGEE     NASDAQ       MGE ENERGY INC                34668    1728199.80  0.205057 11 Utilities                      1110 Utilities                                        1110870 Utilities: Electrical                            
20160429 552848103 US5528481030 MTG      NYSE         MGIC INVESTMENT CORP         187481    1355485.66  0.160833 10 Financial Services             1020 Consumer Finance & Credit Services               1020492 Consumer Lending                                 
20160429 55305B101 US55305B1017 MHO      NYSE         M/I HOMES INC                 20158     405173.91  0.048075 03 Consumer Discretionary         0320 Consumer Products                                0320501 Homebuilding                                     
20160429 55306N104 US55306N1046 MKSI     NASDAQ       MKS INSTRUMENTS INC           53372    1913919.92  0.227093 01 Technology                     0120 Electronics                                      0120738 Production Technology Equipment                  
20160429 55345K103 US55345K1034 MRC      NYSE         MRC GLOBAL INC               102997    1439898.06  0.170849 07 Materials & Processing         0740 Metals & Minerals                                0740630 Metal Fabricating                                
20160429 553498106 US5534981064 MSA      NYSE         MSA SAFETY INC                10486     504314.73  0.059839 08 Producer Durables              0830 Scientific Instruments & Services                0830524 Scientific Instruments: Control & Filter         
20160429 55405W104 US55405W1045 MYRG     NASDAQ       MYR GROUP INC                 19415     495276.65  0.058766 08 Producer Durables              0850 Commercial Services                              0850479 Engineering & Contracting Services               
20160429 554489104 US5544891048 CLI      NYSE         MACK CALI REALTY CORP         89129    2278137.24  0.270309 10 Financial Services             1060 Real Estate Investment Trusts                    1060912 Equity REIT: Office                              
20160429 559079207 US5590792074 MGLN     NASDAQ       MAGELLAN HEALTH INC           24959    1758611.14  0.208665 02 Health Care                    0210 Health Care Services                             0210503 Health Care Management Services                  
20160429 56062Y102 US56062Y1029 MSFG     NASDAQ       MAINSOURCE FINANCIAL GRP      21669     473467.65  0.056178 10 Financial Services             1010 Banks                                            1010400 Banks: Diversified                               
20160429 564563104 US5645631046 MANT     NASDAQ       MANTECH INTERNATIONAL         24233     819075.40  0.097186 01 Technology                     0130 Information Technology                           0130439 Computer Services Software & Systems             
20160429 56624R108 US56624R1086 MCHX     NASDAQ       MARCHEX INC                   32563     138392.75  0.016421 03 Consumer Discretionary         0350 Media                                            0350301 Advertising Agencies                             
20160429 566330106 US5663301068 MCS      NYSE         MARCUS CORP                   18360     355266.00  0.042153 03 Consumer Discretionary         0340 Leisure                                          0340514 Hotel/Motel                                      
20160429 567908108 US5679081084 HZO      NYSE         MARINEMAX INC                 12339     234566.21  0.027832 03 Consumer Discretionary         0360 Retail                                           0360834 Specialty Retail                                 
20160429 56804T106 US56804T1060 MRIN     NYSE         MARIN SOFTWARE INC            27455      70284.26  0.008339 01 Technology                     0130 Information Technology                           0130439 Computer Services Software & Systems             
20160429 571157106 US5711571068 MRLN     NASDAQ       MARLIN BUSINESS SVCS           8677     128332.83  0.015227 08 Producer Durables              0840 Transportation & Freight                         0840808 Commercial Services: Rental & Leasing            
20160429 57164Y107 US57164Y1073 VAC      NYSE         MARRIOTT VAC WORLD CORP       10126     634341.25  0.075267 03 Consumer Discretionary         0340 Leisure                                          0340556 Leisure Time                                     
20160429 573075108 US5730751089 MRTN     NASDAQ       MARTEN TRANS LTD              21486     400920.33  0.047571 08 Producer Durables              0840 Transportation & Freight                         0840865 Truckers                                         
20160429 576323109 US5763231090 MTZ      NYSE         MASTEC INC                    66762    1512826.92  0.179502 08 Producer Durables              0850 Commercial Services                              0850479 Engineering & Contracting Services               
20160429 576485205 US5764852050 MTDR     NYSE         MATADOR RES CO                32380     697801.07  0.082796 06 Energy                         0620 Non-Renewable Energy                             0620670 Oil: Crude Producers                             
20160429 576690101 US5766901012 MTRN     NYSE         MATERION CORPORATION          20151     584177.49  0.069315 07 Materials & Processing         0740 Metals & Minerals                                0740635 Metals & Minerals: Diversified                   
20160429 576853105 US5768531056 MTRX     NASDAQ       MATRIX SERVICE CO             26719     503385.96  0.059728 06 Energy                         0610 Energy Equipment & Services                      0610600 Oil Well Equipment & Services                    
20160429 57686G105 US57686G1058 MATX     NYSE         MATSON INC                     3606     140227.80  0.016638 08 Producer Durables              0840 Transportation & Freight                         0840830 Shipping                                         
20160429 577128101 US5771281012 MATW     NASDAQ       MATTHEWS INTERNATIONAL        31282    1646678.53  0.195384 03 Consumer Discretionary         0330 Consumer Services                                0330495 Funeral Parlors & Cemetery                       
20160429 580037109 PA5800371096 MDR      NYSE         MCDERMOTT INTL INC           238604    1083262.16  0.128533 06 Energy                         0610 Energy Equipment & Services                      0610600 Oil Well Equipment & Services                    
20160429 580589109 US5805891091 MGRC     NASDAQ       MCGRATH RENTCORP              23885     582316.30  0.069094 08 Producer Durables              0840 Transportation & Freight                         0840808 Commercial Services: Rental & Leasing            
20160429 58441K100 US58441K1007 MEG      NYSE         MEDIA GENERAL INC             95824    1660629.92  0.197039 03 Consumer Discretionary         0350 Media                                            0350740 Publishing                                       
20160429 58463J304 US58463J3041 MPW      NYSE         MEDICAL PROPERTIES TRUST     233916    3113421.96  0.369418 10 Financial Services             1060 Real Estate Investment Trusts                    1060910 Equity REIT: Health Care                         
20160429 584688105 US5846881051 MDCO     NASDAQ       MEDICINES CO                  59674    2123770.26  0.251992 02 Health Care                    0230 Pharmaceuticals & Biotech                        0230460 Pharmaceuticals                                  
20160429 587200106 US5872001061 MENT     NASDAQ       MENTOR GRAPHICS CORP          92087    1838056.52  0.218091 01 Technology                     0130 Information Technology                           0130439 Computer Services Software & Systems             
20160429 587376104 US5873761044 MBWM     NASDAQ       MERCANTILE BANK CORP          16892     407435.04  0.048344 10 Financial Services             1010 Banks                                            1010400 Banks: Diversified                               
20160429 588448100 US5884481004 MBVT     NASDAQ       MERCHANTS BANCSHARES           4975     151439.00  0.017969 10 Financial Services             1010 Banks                                            1010400 Banks: Diversified                               
20160429 589378108 US5893781089 MRCY     NASDAQ       MERCURY SYSTEMS INC           34198     718841.96  0.085293 01 Technology                     0130 Information Technology                           0130439 Computer Services Software & Systems             
20160429 589433101 US5894331017 MDP      NYSE         MEREDITH CORP                 36745    1885385.95  0.223707 03 Consumer Discretionary         0350 Media                                            0350740 Publishing                                       
20160429 589584101 US5895841014 VIVO     NASDAQ       MERIDIAN BIOSCIENCE INC        6715     128341.88  0.015228 02 Health Care                    0220 Medical Equipment & Services                     0220507 Medical & Dental Instruments & Supplies          
20160429 58958U103 US58958U1034 EBSB     NASDAQ       MERIDIAN BANCORP INC          46924     686027.18  0.081399 10 Financial Services             1010 Banks                                            1010400 Banks: Diversified                               
20160429 589889104 US5898891040 MMSI     NASDAQ       MERIT MED SYSTEMS INC         44029     891587.25  0.105790 02 Health Care                    0220 Medical Equipment & Services                     0220507 Medical & Dental Instruments & Supplies          
20160429 59001A102 US59001A1025 MTH      NYSE         MERITAGE HOMES CORP           36997    1258982.35  0.149382 03 Consumer Discretionary         0320 Consumer Products                                0320501 Homebuilding                                     
20160429 59001K100 US59001K1007 MTOR     NYSE         MERITOR INC                   40276     342350.51  0.040621 03 Consumer Discretionary         0310 Auto & Auto Parts                                0310340 Auto Parts                                       
20160429 590328100 US5903281005 MACK     NASDAQ       MERRIMACK PHARMACEUTICAL       6472      45822.78  0.005437 02 Health Care                    0230 Pharmaceuticals & Biotech                        0230412 Biotechnology                                    
20160429 59100U108 US59100U1088 CASH     NASDAQ       META FINANCIAL GROUP INC       7549     374581.38  0.044445 10 Financial Services             1010 Banks                                            1010820 Banks: Savings/Thrifts & Mortgage Lend           
20160429 59116R107 US59116R1077 MPG      NYSE         METALDYNE PERFORM GROUP        4819      76776.36  0.009110 03 Consumer Discretionary         0310 Auto & Auto Parts                                0310340 Auto Parts                                       
20160429 595137100 US5951371005 MSCC     NASDAQ       MICROSEMI CORP                 8798     297308.28  0.035277 01 Technology                     0120 Electronics                                      0120476 Semiconductors & Components                      
20160429 596680108 US5966801087 MSEX     NASDAQ       MIDDLESEX WATER CO            16142     590474.36  0.070062 11 Utilities                      1110 Utilities                                        1110882 Utilities: Water                                 
20160429 598511103 US5985111039 MOFG     NASDAQ       MIDWESTONE FINL GROUP          7874     223306.64  0.026496 10 Financial Services             1040 Investment Banking & Brokerage Services          1040457 Diversified Financial Services                   
20160429 59870L106 US59870L1061 MCRN     NYSE         MILACRON HOLDINGS CORP         8645     148085.01  0.017571 08 Producer Durables              0810 Machinery                                        0810584 Machinery: Industrial                            
20160429 600551204 US6005512040 MLR      NYSE         MILLER INDUSTRIES INC         10508     223394.64  0.026507 08 Producer Durables              0840 Transportation & Freight                         0840350 Commercial Vehicles & Parts                      
20160429 60255W105 US60255W1053 MB       NASDAQ       MINDBODY INC                   1608      21892.03  0.002598 01 Technology                     0130 Information Technology                           0130439 Computer Services Software & Systems             
20160429 603158106 US6031581068 MTX      NYSE         MINERALS TECHNOLOGIES          2153     128983.99  0.015304 07 Materials & Processing         0740 Metals & Minerals                                0740635 Metals & Minerals: Diversified                   
20160429 60649T107 US60649T1079 MG       NYSE         MISTRAS GROUP INC              7339     178854.55  0.021222 08 Producer Durables              0850 Commercial Services                              0850479 Engineering & Contracting Services               
20160429 60740F105 US60740F1057 MINI     NASDAQ       MOBILE MINI INC               41478    1337664.21  0.158718 08 Producer Durables              0840 Transportation & Freight                         0840808 Commercial Services: Rental & Leasing            
20160429 607828100 US6078281002 MOD      NYSE         MODINE MANUFACTURING CO       47896     517755.76  0.061433 08 Producer Durables              0840 Transportation & Freight                         0840350 Commercial Vehicles & Parts                      
20160429 60786L206 US60786L2060 MLNK     NASDAQ       MODUSLINK GLB SOLUTIONS       37743      55104.78  0.006538 01 Technology                     0130 Information Technology                           0130439 Computer Services Software & Systems             
20160429 60786M105 US60786M1053 MC       NYSE         MOELIS & CO                    2040      57363.29  0.006806 10 Financial Services             1040 Investment Banking & Brokerage Services          1040457 Diversified Financial Services                   
20160429 609027107 US6090271072 MCRI     NASDAQ       MONARCH CASINO & RESORT        9609     182561.92  0.021662 03 Consumer Discretionary         0340 Leisure                                          0340434 Casinos & Gambling                               
20160429 60935Y208 US60935Y2081 MGI      NASDAQ       MONEYGRAM INTERNATIONAL       29256     179924.40  0.021349 10 Financial Services             1020 Consumer Finance & Credit Services               1020492 Consumer Lending                                 
20160429 609720107 US6097201072 MNR      NYSE         MONMOUTH REAL ESTATE          63085     725477.50  0.086080 10 Financial Services             1060 Real Estate Investment Trusts                    1060906 Equity REIT: Industrial                          
20160429 60979P105 US60979P1057 MORE     NYSE         MONOGRAM RESIDENTIAL TR      166516    1686807.08  0.200145 10 Financial Services             1060 Real Estate Investment Trusts                    1060907 Equity REIT: Residential                         
20160429 611742107 US6117421072 MWW      NYSE         MONSTER WORLDWIDE INC         91003     291209.60  0.034553 08 Producer Durables              0850 Commercial Services                              0850365 Back Office Support HR & Consulting              
20160429 615394202 US6153942023 MOG.A    NYSE         MOOG INC                      33395    1631644.03  0.193600 08 Producer Durables              0840 Transportation & Freight                         0840300 Aerospace                                        
20160429 61748W108 US61748W1080 MHGC     NASDAQ       MORGANS HOTEL GROUP CO        18084      26944.72  0.003197 03 Consumer Discretionary         0340 Leisure                                          0340514 Hotel/Motel                                      
20160429 620071100 US6200711009 MPAA     NASDAQ       MOTORCAR PTS AMERICA INC       1329      42629.43  0.005058 03 Consumer Discretionary         0310 Auto & Auto Parts                                0310340 Auto Parts                                       
20160429 624580106 US6245801062 MOV      NYSE         MOVADO GROUP INC              16041     452516.61  0.053693 03 Consumer Discretionary         0320 Consumer Products                                0320547 Luxury Items                                     
20160429 624756102 US6247561029 MLI      NYSE         MUELLER INDUSTRIES INC        18515     584341.29  0.069334 07 Materials & Processing         0740 Metals & Minerals                                0740630 Metal Fabricating                                
20160429 62541B101 US62541B1017 MFLX     NASDAQ       MULTI-FINELINE ELECTRON        9091     209093.00  0.024810 01 Technology                     0120 Electronics                                      0120463 Electronic Components                            
20160429 62857M105 US62857M1053 MYOK     NASDAQ       MYOKARDIA INC                   650       7440.76  0.000883 02 Health Care                    0230 Pharmaceuticals & Biotech                        0230412 Biotechnology                                    
20160429 628778102 US6287781024 NBTB     NASDAQ       NBT BANCORP INC               44051    1248405.34  0.148127 10 Financial Services             1010 Banks                                            1010400 Banks: Diversified                               
20160429 629156407 US6291564077 NL       NYSE         NL INDUSTRIES INC              6811      20909.77  0.002481 07 Materials & Processing         0730 Industrial Materials & Processes                 0730452 Diversified Materials & Processing               
20160429 629209305 US6292093050 NMIH     NASDAQ       NMI HLDGS INC                 49831     313436.99  0.037190 10 Financial Services             1030 Insurance                                        1030542 Insurance: Property-Casualty                     
20160429 62942X306 US62942X3061 NYLD.A   NYSE         NRG YIELD INC CL A            34507     522090.91  0.061948 11 Utilities                      1110 Utilities                                        1110870 Utilities: Electrical                            
20160429 62942X405 US62942X4051 NYLD     NYSE         NRG YIELD INC CL C            62784    1015845.12  0.120533 11 Utilities                      1110 Utilities                                        1110870 Utilities: Electrical                            
20160429 629445206 US6294452064 NVEC     NASDAQ       NVE CORP                       2653     152198.61  0.018059 01 Technology                     0120 Electronics                                      0120463 Electronic Components                            
20160429 629579103 US6295791031 NC       NYSE         NACCO INDUSTRIES INC           4140     246412.80  0.029238 08 Producer Durables              0810 Machinery                                        0810577 Machinery: Construction & Handling               
20160429 630077105 US6300771051 NANO     NASDAQ       NANOMETRICS INC               23984     428354.24  0.050826 01 Technology                     0120 Electronics                                      0120738 Production Technology Equipment                  
20160429 63016Q102 US63016Q1022 NK       NASDAQ       NANTKWEST INC                   691       5734.23  0.000680 02 Health Care                    0230 Pharmaceuticals & Biotech                        0230412 Biotechnology                                    
20160429 632307104 US6323071042 NTRA     NASDAQ       NATERA INC                     1040      10212.80  0.001212 02 Health Care                    0230 Pharmaceuticals & Biotech                        0230412 Biotechnology                                    
20160429 633707104 US6337071046 NBHC     NYSE         NATIONAL BANK HOLDINGS        30018     600059.82  0.071199 10 Financial Services             1010 Banks                                            1010400 Banks: Diversified                               
20160429 634865109 US6348651091 NKSH     NASDAQ       NATIONAL BANKSHARES INC        6950     250130.50  0.029679 10 Financial Services             1010 Banks                                            1010400 Banks: Diversified                               
20160429 635017106 US6350171061 FIZZ     NASDAQ       NATIONAL BEVERAGE CORP          605      28289.85  0.003357 04 Consumer Staples               0410 Food/Beverage & Tobacco                          0410410 Beverage: Soft Drinks                            
20160429 635309107 US6353091076 NCMI     NASDAQ       NATIONAL CINEMEDIA INC        46223     656358.53  0.077879 03 Consumer Discretionary         0350 Media                                            0350301 Advertising Agencies                             
20160429 63546L102 US63546L1026 NCOM     NASDAQ       NATIONAL COMM CORP             6038     144489.34  0.017144 10 Financial Services             1010 Banks                                            1010400 Banks: Diversified                               
20160429 635906100 US6359061008 NHC      NYSE MKT     NATIONAL HEALTHCARE CORP      10080     649656.00  0.077084 02 Health Care                    0210 Health Care Services                             0210504 Health Care Facilities                           
20160429 636220303 US6362203035 NGHC     NASDAQ       NATIONAL GEN HLDGS CORP       35931     725436.71  0.086075 10 Financial Services             1030 Insurance                                        1030535 Insurance: Multi-Line                            
20160429 63633D104 US63633D1046 NHI      NYSE         NATIONAL HEALTH INVS INC      24719    1683077.76  0.199703 10 Financial Services             1060 Real Estate Investment Trusts                    1060910 Equity REIT: Health Care                         
20160429 63654U100 US63654U1007 NATL     NASDAQ       NATIONAL INTERSTATE CORP       5498     169259.71  0.020083 10 Financial Services             1030 Insurance                                        1030542 Insurance: Property-Casualty                     
20160429 637215104 US6372151042 NPK      NYSE         NATIONAL PRESTO INDS INC       4851     422958.69  0.050185 03 Consumer Discretionary         0320 Consumer Products                                0320470 Household Appliance                              
20160429 637372202 US6373722023 NRCIA    NASDAQ       NATIONAL RESEARCH CORP         1167      16795.32  0.001993 02 Health Care                    0210 Health Care Services                             0210503 Health Care Management Services                  
20160429 637870106 US6378701063 NSA      NYSE         NATIONAL STORAGE AFFIL         1351      26375.78  0.003130 10 Financial Services             1060 Real Estate Investment Trusts                    1060911 Equity REIT: Storage                             
20160429 638517102 US6385171029 NWLI     NASDAQ       NATIONAL WESTERN LIFE          2229     483024.30  0.057312 10 Financial Services             1030 Insurance                                        1030528 Insurance: Life                                  
20160429 63861C109 US63861C1099 NSM      NYSE         NATIONSTAR MTG HLDGS INC      36980     428598.20  0.050855 10 Financial Services             1020 Consumer Finance & Credit Services               1020487 Commercial Finance & Mortgage Co                 
20160429 63886Q109 US63886Q1094 NGS      NYSE         NATURAL GAS SERVICES GRP      12734     292754.66  0.034736 06 Energy                         0610 Energy Equipment & Services                      0610600 Oil Well Equipment & Services                    
20160429 638904102 US6389041020 NAVG     NASDAQ       NAVIGATORS GROUP INC          10607     876244.27  0.103969 10 Financial Services             1030 Insurance                                        1030542 Insurance: Property-Casualty                     
20160429 639027101 US6390271012 NATR     NASDAQ       NATURES SUNSHINE PRODS        10581     101365.98  0.012027 04 Consumer Staples               0410 Food/Beverage & Tobacco                          0410494 Foods                                            
20160429 63934E108 US63934E1082 NAV      NYSE         NAVISTAR INTL CORP            48004     724368.79  0.085949 08 Producer Durables              0840 Transportation & Freight                         0840350 Commercial Vehicles & Parts                      
20160429 63935N107 US63935N1072 NCI      NYSE         NAVIGANT CONSULTING INC       48238     769878.48  0.091349 08 Producer Durables              0850 Commercial Services                              0850365 Back Office Support HR & Consulting              
20160429 63937X103 US63937X1037 NAVB     NYSE MKT     NAVIDEA BIOPHARMA INC         31201      43057.53  0.005109 02 Health Care                    0220 Medical Equipment & Services                     0220507 Medical & Dental Instruments & Supplies          
20160429 640079109 US6400791090 NP       NYSE         NEENAH PAPER INC               7576     493149.50  0.058514 07 Materials & Processing         0730 Industrial Materials & Processes                 0730720 Paper                                            
20160429 640094207 US6400942073 NEFF     NYSE         NEFF CORP                      6653      56876.82  0.006749 08 Producer Durables              0840 Transportation & Freight                         0840808 Commercial Services: Rental & Leasing            
20160429 64031N108 US64031N1081 NNI      NYSE         NELNET INC                    22254     932665.14  0.110664 10 Financial Services             1020 Consumer Finance & Credit Services               1020492 Consumer Lending                                 
20160429 64051T100 US64051T1007 NPTN     NYSE         NEOPHOTONICS CORP             29522     353968.78  0.042000 01 Technology                     0140 Telecommunication                                0140448 Communications Technology                        
20160429 64052L106 US64052L1061 NEOS     NASDAQ       NEOS THERAPEUTICS INC           605       5488.95  0.000651 02 Health Care                    0230 Pharmaceuticals & Biotech                        0230412 Biotechnology                                    
20160429 64111Q104 US64111Q1040 NTGR     NASDAQ       NETGEAR INC                   32143    1362863.20  0.161708 01 Technology                     0140 Telecommunication                                0140448 Communications Technology                        
20160429 64115T104 US64115T1043 NTCT     NASDAQ       NETSCOUT SYSTEMS INC          44173     983311.46  0.116673 01 Technology                     0130 Information Technology                           0130439 Computer Services Software & Systems             
20160429 64126X201 US64126X2018 NSR      NYSE         NEUSTAR INC                   39032     916852.75  0.108788 01 Technology                     0140 Telecommunication                                0140448 Communications Technology                        
20160429 645370107 US6453701079 NWHM     NYSE         NEW HOME COMPANY INC           8977      99913.55  0.011855 03 Consumer Discretionary         0320 Consumer Products                                0320501 Homebuilding                                     
20160429 646025106 US6460251068 NJR      NYSE         NEW JERSEY RESOURCES          85581    3053530.08  0.362311 11 Utilities                      1110 Utilities                                        1110875 Utilities: Gas Distributors                      
20160429 64704V106 US64704V1061 NEWM     NYSE         NEW MEDIA INVT GROUP INC      44672     716985.60  0.085073 03 Consumer Discretionary         0350 Media                                            0350740 Publishing                                       
20160429 64828T201 US64828T2015 NRZ      NYSE         NEW RESIDENTIAL INVT         230421    2788094.10  0.330817 10 Financial Services             1060 Real Estate Investment Trusts                    1060930 Mortgage REIT: Residential                       
20160429 648691103 US6486911034 SNR      NYSE         NEW SR INVT GROUP INC         82114     886831.20  0.105225 10 Financial Services             1060 Real Estate Investment Trusts                    1060910 Equity REIT: Health Care                         
20160429 649604501 US6496045013 NYMT     NASDAQ       NEW YORK MTG TR INC          109366     568703.20  0.067479 10 Financial Services             1060 Real Estate Investment Trusts                    1060930 Mortgage REIT: Residential                       
20160429 64976L109 US64976L1098 NYRT     NYSE         NEW YORK REIT INC            162463    1597011.29  0.189491 10 Financial Services             1060 Real Estate Investment Trusts                    1060912 Equity REIT: Office                              
20160429 650111107 US6501111073 NYT      NYSE         NEW YORK TIMES CO            110008    1410292.30  0.167336 03 Consumer Discretionary         0350 Media                                            0350740 Publishing                                       
20160429 651718504 US6517185046 NR       NYSE         NEWPARK RESOURCES INC         84108     392784.36  0.046605 06 Energy                         0610 Energy Equipment & Services                      0610600 Oil Well Equipment & Services                    
20160429 651824104 US6518241046 NEWP     NASDAQ       NEWPORT CORP                      0          0.00  0.000000 01 Technology                     0120 Electronics                                      0120475 Electronics                                      
20160429 65251F105 US65251F1057 NEWS     NASDAQ       NEWSTAR FINANCIAL INC         24156     232380.72  0.027573 10 Financial Services             1020 Consumer Finance & Credit Services               1020487 Commercial Finance & Mortgage Co                 
20160429 65341D102 US65341D1028 NXRT     NYSE         NEXPOINT RESIDENTIAL TR       18952     266465.12  0.031617 10 Financial Services             1060 Real Estate Investment Trusts                    1060907 Equity REIT: Residential                         
20160429 65481J109 US65481J1097 NVLS     NASDAQ       NIVALIS THERAPEUTICS            522       2210.60  0.000262 02 Health Care                    0230 Pharmaceuticals & Biotech                        0230412 Biotechnology                                    
20160429 65540B105 US65540B1052 NDLS     NASDAQ       NOODLES & COMPANY              3414      38076.14  0.004518 03 Consumer Discretionary         0340 Leisure                                          0340810 Restaurants                                      
20160429 665531109 US6655311099 NOG      NYSE MKT     NORTHERN OIL & GAS INC        61614     336412.44  0.039916 06 Energy                         0620 Non-Renewable Energy                             0620670 Oil: Crude Producers                             
20160429 66611T108 US66611T1088 NFBK     NASDAQ       NORTHFIELD BANCORP INC        46903     743881.58  0.088264 10 Financial Services             1010 Banks                                            1010820 Banks: Savings/Thrifts & Mortgage Lend           
20160429 667340103 US6673401039 NWBI     NASDAQ       NORTHWEST BANCSHARES INC     101519    1423296.38  0.168879 10 Financial Services             1010 Banks                                            1010820 Banks: Savings/Thrifts & Mortgage Lend           
20160429 667655104 US6676551046 NWN      NYSE         NORTHWEST NATURAL GAS CO      27333    1408742.82  0.167152 11 Utilities                      1110 Utilities                                        1110875 Utilities: Gas Distributors                      
20160429 667746101 US6677461013 NWPX     NASDAQ       NORTHWEST PIPE CO              9554     103087.66  0.012232 07 Materials & Processing         0740 Metals & Minerals                                0740630 Metal Fabricating                                
20160429 668074305 US6680743050 NWE      NYSE         NORTHWESTERN CORP             47040    2673753.60  0.317250 11 Utilities                      1110 Utilities                                        1110870 Utilities: Electrical                            
20160429 66987M604 US66987M6049 MIFI     NASDAQ       NOVATEL WIRELESS INC           4446       6802.57  0.000807 01 Technology                     0140 Telecommunication                                0140448 Communications Technology                        
20160429 67020Q305 US67020Q3056 NTLS     NASDAQ       NTELOS HOLDINGS CORP          17367     160644.75  0.019061 11 Utilities                      1110 Utilities                                        1110880 Utilities: Telecommunications                    
20160429 67060Y101 US67060Y1010 NUTR     NASDAQ       NUTRACEUTICAL INTL CORP        8387     197849.33  0.023475 04 Consumer Staples               0410 Food/Beverage & Tobacco                          0410494 Foods                                            
20160429 67075N108 US67075N1081 NVTR     NASDAQ       NUVECTRA CORPORATION           8505      71484.53  0.008482 02 Health Care                    0220 Medical Equipment & Services                     0220471 Medical Equipment                                
20160429 67103X102 PR67103X1020 OFG      NYSE         OFG BANCORP                   44572     393570.76  0.046698 10 Financial Services             1010 Banks                                            1010400 Banks: Diversified                               
20160429 671044105 US6710441055 OSIS     NASDAQ       OSI SYSTEMS INC               14739     750049.39  0.088996 08 Producer Durables              0820 Manufacturing & Production                       0820453 Diversified Manufacturing Operations             
20160429 674215108 US6742151086 OAS      NYSE         OASIS PETE INC               180626    1750265.94  0.207675 06 Energy                         0620 Non-Renewable Energy                             0620670 Oil: Crude Producers                             
20160429 675234108 US6752341080 OCFC     NASDAQ       OCEANFIRST FINANCIAL          13297     259025.56  0.030734 10 Financial Services             1010 Banks                                            1010820 Banks: Savings/Thrifts & Mortgage Lend           
20160429 67555N206 US67555N2062 OCLR     NASDAQ       OCLARO INC                    97780     493789.00  0.058590 01 Technology                     0140 Telecommunication                                0140448 Communications Technology                        
20160429 675746309 US6757463095 OCN      NYSE         OCWEN FINANCIAL CORP         107434     242800.84  0.028809 10 Financial Services             1020 Consumer Finance & Credit Services               1020487 Commercial Finance & Mortgage Co                 
20160429 677864100 US6778641000 ODC      NYSE         OIL DRI CORP OF AMERICA        4906     163664.16  0.019419 07 Materials & Processing         0740 Metals & Minerals                                0740635 Metals & Minerals: Diversified                   
20160429 678026105 US6780261052 OIS      NYSE         OIL STATES INTERNATIONAL      51592    1787146.88  0.212051 06 Energy                         0610 Energy Equipment & Services                      0610600 Oil Well Equipment & Services                    
20160429 680033107 US6800331075 ONB      NASDAQ       OLD NATIONAL BANCORP         116983    1567572.20  0.185998 10 Financial Services             1010 Banks                                            1010400 Banks: Diversified                               
20160429 680277100 US6802771005 OSBC     NASDAQ       OLD SECOND BANCORP INC        29471     211012.36  0.025037 10 Financial Services             1010 Banks                                            1010400 Banks: Diversified                               
20160429 680665205 US6806652052 OLN      NYSE         OLIN CORP                     91738    1998966.14  0.237184 07 Materials & Processing         0720 Chemicals and Synthetics                         0720433 Chemicals: Diversified                           
20160429 681116109 US6811161099 OLLI     NASDAQ       OLLIES BARGAIN OUTLET          2596      68685.15  0.008150 03 Consumer Discretionary         0360 Retail                                           0360815 Diversified Retail                               
20160429 68162K106 US68162K1060 ZEUS     NASDAQ       OLYMPIC STEEL INC              7118     161003.82  0.019104 07 Materials & Processing         0740 Metals & Minerals                                0740835 Steel                                            
20160429 68210P107 US68210P1075 OME      NYSE         OMEGA PROTEIN CORP            21718     403737.62  0.047905 04 Consumer Staples               0410 Food/Beverage & Tobacco                          0410494 Foods                                            
20160429 682129101 US6821291019 OMN      NYSE         OMNOVA SOLUTIONS INC          19160     136994.10  0.016255 07 Materials & Processing         0720 Chemicals and Synthetics                         0720833 Chemicals: Specialty                             
20160429 682143102 US6821431029 OMER     NASDAQ       OMEROS CORP                    2534      33585.36  0.003985 02 Health Care                    0230 Pharmaceuticals & Biotech                        0230412 Biotechnology                                    
20160429 68235P108 US68235P1084 OGS      NYSE         ONE GAS INC                   52594    3075171.18  0.364879 11 Utilities                      1110 Utilities                                        1110875 Utilities: Gas Distributors                      
20160429 682406103 US6824061039 OLP      NYSE         ONE LIBERTY PROPERTIES        12528     293405.76  0.034814 10 Financial Services             1060 Real Estate Investment Trusts                    1060916 Equity REIT: Diversified                         
20160429 683797104 US6837971042 OPY      NYSE         OPPENHEIMER HOLDINGS INC      10362     158331.36  0.018787 10 Financial Services             1040 Investment Banking & Brokerage Services          1040544 Asset Management & Custodian                     
20160429 684000102 US6840001027 OPB      NASDAQ       OPUS BK IRVINE CALIF          10414     376153.68  0.044632 10 Financial Services             1010 Banks                                            1010400 Banks: Diversified                               
20160429 68554V108 US68554V1089 OSUR     NASDAQ       ORASURE TECHNOLOGIES INC      51961     373073.21  0.044266 02 Health Care                    0220 Medical Equipment & Services                     0220507 Medical & Dental Instruments & Supplies          
20160429 68555P100 US68555P1003 ORBC     NASDAQ       ORBCOMM INC                   59771     592330.61  0.070282 11 Utilities                      1110 Utilities                                        1110880 Utilities: Telecommunications                    
20160429 68571X103 US68571X1037 ORC      NYSE         ORCHID ISLAND CAPITAL         21768     210714.24  0.025002 10 Financial Services             1060 Real Estate Investment Trusts                    1060930 Mortgage REIT: Residential                       
20160429 68572N104 US68572N1046 TIS      NYSE MKT     ORCHIDS PAPER PRODS COMP       6701     205509.55  0.024384 04 Consumer Staples               0420 Personal Care/Drug & Grocery Stores              0420832 Personal Care                                    
20160429 68628V308 US68628V3087 ORN      NYSE         ORION MARINE GROUP INC        27954     163251.36  0.019370 08 Producer Durables              0820 Manufacturing & Production                       0820443 Construction                                     
20160429 68633D103 US68633D1037 ORIT     NASDAQ       ORITANI FINANCIAL CORP        44002     762554.66  0.090480 10 Financial Services             1010 Banks                                            1010820 Banks: Savings/Thrifts & Mortgage Lend           
20160429 686688102 US6866881021 ORA      NYSE         ORMAT TECHNOLOGIES INC        21760     944369.24  0.112053 11 Utilities                      1110 Utilities                                        1110868 Utilities: Miscellaneous                         
20160429 68827R108 US68827R1086 OSIR     NASDAQ       OSIRIS THERAPEUTICS            1659       9307.98  0.001104 02 Health Care                    0230 Pharmaceuticals & Biotech                        0230412 Biotechnology                                    
20160429 689648103 US6896481032 OTTR     NASDAQ       OTTER TAIL CORP               37484    1084037.28  0.128625 11 Utilities                      1110 Utilities                                        1110870 Utilities: Electrical                            
20160429 690732102 US6907321029 OMI      NYSE         OWENS & MINOR INC             63102    2296281.78  0.272461 02 Health Care                    0220 Medical Equipment & Services                     0220507 Medical & Dental Instruments & Supplies          
20160429 69290R104 US69290R1041 PDVW     NASDAQ       PDVWIRELESS INC                4090     165190.74  0.019600 01 Technology                     0140 Telecommunication                                0140448 Communications Technology                        
20160429 69318J100 US69318J1007 PCCC     NASDAQ       P C CONNECTION                10689     254077.53  0.030147 01 Technology                     0130 Information Technology                           0130449 Computer Technology                              
20160429 69327R101 US69327R1014 PDCE     NASDAQ       PDC ENERGY INC                46192    2900395.68  0.344142 06 Energy                         0620 Non-Renewable Energy                             0620670 Oil: Crude Producers                             
20160429 693282105 US6932821050 PDFS     NASDAQ       PDF SOLUTIONS INC              2024      27232.22  0.003231 01 Technology                     0130 Information Technology                           0130439 Computer Services Software & Systems             
20160429 69329Y104 US69329Y1047 PDLI     NASDAQ       PDL BIOPHARMA INC            164092     618626.84  0.073402 02 Health Care                    0230 Pharmaceuticals & Biotech                        0230412 Biotechnology                                    
20160429 693320202 US6933202029 PHH      NYSE         PHH CORPORATION               44419     569895.77  0.067620 08 Producer Durables              0840 Transportation & Freight                         0840808 Commercial Services: Rental & Leasing            
20160429 693366205 US6933662057 PICO     NASDAQ       PICO HOLDINGS INC             23005     228439.65  0.027105 10 Financial Services             1050 Real Estate                                      1050802 Real Estate Holding and Development              
20160429 69336T205 US69336T2050 PHIIK    NASDAQ       PHI INC                       11733     263039.96  0.031211 08 Producer Durables              0840 Transportation & Freight                         0840310 Air Transport                                    
20160429 69349H107 US69349H1077 PNM      NYSE         PNM RESOURCES INC             79654    2523438.72  0.299414 11 Utilities                      1110 Utilities                                        1110870 Utilities: Electrical                            
20160429 69360J107 US69360J1079 PSB      NYSE         PS BUSINESS PARKS INC         17467    1672603.91  0.198460 10 Financial Services             1060 Real Estate Investment Trusts                    1060916 Equity REIT: Diversified                         
20160429 69412V108 US69412V1089 PCBK     NASDAQ       PACIFIC CONTINENTAL CORP      19512     325069.92  0.038571 10 Financial Services             1010 Banks                                            1010400 Banks: Diversified                               
20160429 69423U305 US69423U3059 PEIX     NASDAQ       PACIFIC ETHANOL INC           31865     150721.45  0.017884 06 Energy                         0630 Alternative Energy                               0630478 Alternative Energy                               
20160429 69478X105 US69478X1054 PPBI     NASDAQ       PACIFIC PREMIER BANCORP       27326     635602.76  0.075416 10 Financial Services             1010 Banks                                            1010400 Banks: Diversified                               
20160429 698477106 US6984771062 PHX      NYSE         PANHANDLE OIL AND GAS          8812     166450.29  0.019750 06 Energy                         0620 Non-Renewable Energy                             0620670 Oil: Crude Producers                             
20160429 69888T207 US69888T2078 PARR     NYSE MKT     PAR PACIFIC HOLDINGS INC       1473      28159.81  0.003341 06 Energy                         0620 Non-Renewable Energy                             0620605 Oil: Refining & Marketing                        
20160429 700215304 US7002153044 PCYG     NASDAQ       PARK CITY GROUP INC             723       6875.38  0.000816 01 Technology                     0130 Information Technology                           0130439 Computer Services Software & Systems             
20160429 700416209 US7004162092 PKE      NYSE         PARK ELECTROCHEMICAL          20387     332511.97  0.039454 01 Technology                     0120 Electronics                                      0120463 Electronic Components                            
20160429 700658107 US7006581075 PRK      NYSE MKT     PARK NATIONAL CORP            13048    1197806.40  0.142124 10 Financial Services             1010 Banks                                            1010400 Banks: Diversified                               
20160429 70086Y105 US70086Y1055 PSTB     NASDAQ       PARK STERLING CORP            48305     352626.50  0.041840 10 Financial Services             1010 Banks                                            1010400 Banks: Diversified                               
20160429 701081101 US7010811013 PKD      NYSE         PARKER DRILLING CO           122285     374192.10  0.044399 06 Energy                         0610 Energy Equipment & Services                      0610600 Oil Well Equipment & Services                    
20160429 70159Q104 US70159Q1040 PKY      NYSE         PARKWAY PROPERTIES INC        84636    1392262.20  0.165197 10 Financial Services             1060 Real Estate Investment Trusts                    1060912 Equity REIT: Office                              
20160429 701877102 US7018771029 PE       NYSE         PARSLEY ENERGY INC            64476    1510015.98  0.179168 06 Energy                         0620 Non-Renewable Energy                             0620670 Oil: Crude Producers                             
20160429 70338P100 US70338P1003 PEGI     NASDAQ       PATTERN ENERGY GROUP INC      55761    1170981.00  0.138941 11 Utilities                      1110 Utilities                                        1110870 Utilities: Electrical                            
20160429 704699107 US7046991078 PGC      NASDAQ       PEAPACK-GLADSTONE FINL        16347     312881.58  0.037124 10 Financial Services             1010 Banks                                            1010400 Banks: Diversified                               
20160429 70509V100 US70509V1008 PEB      NYSE         PEBBLEBROOK HOTEL TRUST       71855    1986072.20  0.235654 10 Financial Services             1060 Real Estate Investment Trusts                    1060909 Equity REIT: Lodging and Resorts                 
20160429 70686R104 US70686R1041 PCO      NASDAQ       PENDRELL CORPORATION         166238      85595.95  0.010156 11 Utilities                      1110 Utilities                                        1110880 Utilities: Telecommunications                    
20160429 707569109 US7075691094 PENN     NASDAQ       PENN NATIONAL GAMING INC      74306    1198554.22  0.142212 03 Consumer Discretionary         0340 Leisure                                          0340434 Casinos & Gambling                               
20160429 708430103 US7084301032 PWOD     NASDAQ       PENNS WOODS BANCORP INC        4786     199193.32  0.023635 10 Financial Services             1010 Banks                                            1010400 Banks: Diversified                               
20160429 709102107 US7091021078 PEI      NYSE         PENNSYLVANIA REAL ESTATE      69117    1585543.98  0.188130 10 Financial Services             1060 Real Estate Investment Trusts                    1060908 Equity REIT: Retail                              
20160429 70931T103 US70931T1034 PMT      NYSE         PENNYMAC MORTGAGE INV         74585    1013610.15  0.120268 10 Financial Services             1060 Real Estate Investment Trusts                    1060930 Mortgage REIT: Residential                       
20160429 70932B101 US70932B1017 PFSI     NYSE         PENNYMAC FINL SVCS INC        11465     146052.74  0.017330 10 Financial Services             1020 Consumer Finance & Credit Services               1020487 Commercial Finance & Mortgage Co                 
20160429 70975L107 US70975L1070 PEN      NYSE         PENUMBRA INC                    754      41114.80  0.004878 02 Health Care                    0220 Medical Equipment & Services                     0220471 Medical Equipment                                
20160429 709789101 US7097891011 PEBO     NASDAQ       PEOPLES BANCORP INC           18377     394921.73  0.046859 10 Financial Services             1010 Banks                                            1010400 Banks: Diversified                               
20160429 711040105 US7110401053 PFIS     NASDAQ       PEOPLES FINL SVCS CORP         7548     297542.16  0.035304 10 Financial Services             1010 Banks                                            1010400 Banks: Diversified                               
20160429 712706209 US7127062096 PUB      NASDAQ       PEOPLES UTAH BANCORP           2874      47248.56  0.005606 10 Financial Services             1010 Banks                                            1010400 Banks: Diversified                               
20160429 713661304 US7136613046 PPHM     NASDAQ       PEREGRINE PHARMACEUTICAL      16079       5693.62  0.000676 02 Health Care                    0230 Pharmaceuticals & Biotech                        0230412 Biotechnology                                    
20160429 71375U101 US71375U1016 PRFT     NASDAQ       PERFICIENT INC                11480     239715.26  0.028443 01 Technology                     0130 Information Technology                           0130439 Computer Services Software & Systems             
20160429 71377A103 US71377A1034 PFGC     NYSE         PERFORMANCE FOOD GROUP         7020     181682.13  0.021557 04 Consumer Staples               0410 Food/Beverage & Tobacco                          0410494 Foods                                            
20160429 71377G100 CA71377G1000 PSG      NYSE         PERFORMANCE SPORTS GROUP      42211     156601.36  0.018581 03 Consumer Discretionary         0360 Retail                                           0360834 Specialty Retail                                 
20160429 717098206 US7170982067 PFSW     NASDAQ       PFSWEB INC                      831      11723.45  0.001391 08 Producer Durables              0850 Commercial Services                              0850365 Back Office Support HR & Consulting              
20160429 71714F104 US71714F1049 PMC      NYSE         PHARMERICA CORP               30388     718372.32  0.085237 02 Health Care                    0210 Health Care Services                             0210499 Health Care Services                             
20160429 719405102 US7194051022 PLAB     NASDAQ       PHOTRONICS INC                66445     702988.10  0.083412 01 Technology                     0120 Electronics                                      0120738 Production Technology Equipment                  
20160429 71943U104 US71943U1043 DOC      NYSE         PHYSICIANS REALTY TRUST      108599    1968899.87  0.233616 10 Financial Services             1060 Real Estate Investment Trusts                    1060910 Equity REIT: Health Care                         
20160429 720186105 US7201861058 PNY      NYSE         PIEDMONT NAT GAS INC          78779    4710984.20  0.558974 11 Utilities                      1110 Utilities                                        1110875 Utilities: Gas Distributors                      
20160429 72346Q104 US72346Q1040 PNFP     NASDAQ       PINNACLE FINANCIAL            33222    1633485.22  0.193818 10 Financial Services             1010 Banks                                            1010400 Banks: Diversified                               
20160429 723664108 US7236641087 PES      NYSE         PIONEER ENERGY SERVICES       64413     200324.43  0.023769 06 Energy                         0610 Energy Equipment & Services                      0610600 Oil Well Equipment & Services                    
20160429 724078100 US7240781002 PJC      NYSE         PIPER JAFFRAY COMPANIES       13311     555201.81  0.065877 10 Financial Services             1040 Investment Banking & Brokerage Services          1040457 Diversified Financial Services                   
20160429 72703H101 US72703H1014 PLNT     NYSE         PLANET FITNESS INC             6427      98724.10  0.011714 03 Consumer Discretionary         0340 Leisure                                          0340556 Leisure Time                                     
20160429 729132100 US7291321005 PLXS     NASDAQ       PLEXUS CORP                   20903     872880.47  0.103570 01 Technology                     0120 Electronics                                      0120643 Technology: Misc                                 
20160429 72919P202 US72919P2020 PLUG     NASDAQ       PLUG POWER INC                70243     144700.99  0.017169 08 Producer Durables              0830 Scientific Instruments & Services                0830465 Scientific Instruments: Electrical               
20160429 73172K104 US73172K1043 PLCM     NASDAQ       POLYCOM INC                  135055    1613907.25  0.191495 01 Technology                     0140 Telecommunication                                0140448 Communications Technology                        
20160429 736508847 US7365088472 POR      NYSE         PORTLAND GEN ELEC CO          88766    3525785.52  0.418346 11 Utilities                      1110 Utilities                                        1110870 Utilities: Electrical                            
20160429 737446104 US7374461041 POST     NYSE         POST HOLDINGS INC             61580    4423907.20  0.524911 04 Consumer Staples               0410 Food/Beverage & Tobacco                          0410494 Foods                                            
20160429 737630103 US7376301039 PCH      NASDAQ       POTLATCH CORP                 11064     389679.15  0.046237 10 Financial Services             1060 Real Estate Investment Trusts                    1060913 Equity REIT: Timber                              
20160429 739128106 US7391281067 POWL     NASDAQ       POWELL INDUSTRIES INC          9105     283347.60  0.033620 08 Producer Durables              0820 Manufacturing & Production                       0820734 Power Transmission Equip                         
20160429 739276103 US7392761034 POWI     NASDAQ       POWER INTEGRATIONS INC         9858     475683.00  0.056441 01 Technology                     0120 Electronics                                      0120476 Semiconductors & Components                      
20160429 73936N105 US73936N1054 POWR     NYSE         POWERSECURE INTL INC          18407     344570.43  0.040884 06 Energy                         0610 Energy Equipment & Services                      0610477 Energy Equipment                                 
20160429 740367404 US7403674044 PFBC     NASDAQ       PREFERRED BANK                11678     370893.28  0.044008 10 Financial Services             1010 Banks                                            1010400 Banks: Diversified                               
20160429 74039L103 US74039L1035 APTS     NYSE         PREFERRED APT CMNTYS INC      22226     274268.84  0.032543 10 Financial Services             1060 Real Estate Investment Trusts                    1060907 Equity REIT: Residential                         
20160429 740444104 US7404441047 PLPC     NASDAQ       PREFORMED LINE PRODUCTS        2667     111933.99  0.013281 08 Producer Durables              0830 Scientific Instruments & Services                0830465 Scientific Instruments: Electrical               
20160429 74164F103 US74164F1030 PRIM     NASDAQ       PRIMORIS SVCS CORP            12331     288424.10  0.034222 08 Producer Durables              0820 Manufacturing & Production                       0820443 Construction                                     
20160429 74164M108 US74164M1080 PRI      NYSE         PRIMERICA INC                 48362    2396820.72  0.284391 10 Financial Services             1030 Insurance                                        1030528 Insurance: Life                                  
20160429 742962103 US7429621037 PVTB     NASDAQ       PRIVATEBANCORP INC            78612    3271045.32  0.388120 10 Financial Services             1010 Banks                                            1010400 Banks: Diversified                               
20160429 743312100 US7433121008 PRGS     NASDAQ       PROGRESS SOFTWARE CORP        50596    1291209.92  0.153206 01 Technology                     0130 Information Technology                           0130439 Computer Services Software & Systems             
20160429 743606105 US7436061052 PB       NYSE         PROSPERITY BANCSHARES         70044    3696221.88  0.438569 10 Financial Services             1010 Banks                                            1010400 Banks: Diversified                               
20160429 74386T105 US74386T1051 PFS      NYSE         PROVIDENT FINANCIAL SVCS      65623    1311147.54  0.155572 10 Financial Services             1010 Banks                                            1010400 Banks: Diversified                               
20160429 74624M102 US74624M1027 PSTG     NYSE         PURE STORAGE INC              10321     150174.19  0.017819 01 Technology                     0130 Information Technology                           0130449 Computer Technology                              
20160429 747277101 US7472771010 QLGC     NASDAQ       QLOGIC CORP                   82840    1084375.60  0.128665 01 Technology                     0140 Telecommunication                                0140448 Communications Technology                        
20160429 74727A104 US74727A1043 QCRH     NASDAQ       QCR HOLDINGS INC              11676     300890.52  0.035702 10 Financial Services             1010 Banks                                            1010400 Banks: Diversified                               
20160429 74727D306 US74727D3061 QADA     NASDAQ       QAD INC                        7568     148393.58  0.017607 01 Technology                     0130 Information Technology                           0130439 Computer Services Software & Systems             
20160429 747301109 US7473011093 QUAD     NYSE         QUAD / GRAPHICS INC           28728     360536.40  0.042779 08 Producer Durables              0850 Commercial Services                              0850486 Forms and Bulk Printing Services                 
20160429 747316107 US7473161070 KWR      NYSE         QUAKER CHEMICAL CORP           3826     340768.85  0.040433 07 Materials & Processing         0720 Chemicals and Synthetics                         0720833 Chemicals: Specialty                             
20160429 74736A103 US74736A1034 QTS      NYSE         QTS REALTY TRUST INC           1396      67628.21  0.008024 10 Financial Services             1060 Real Estate Investment Trusts                    1060914 Equity REIT: Infrastructure                      
20160429 747619104 US7476191041 NX       NYSE         QUANEX BUILDING PRODUCTS      31059     585147.60  0.069430 07 Materials & Processing         0710 Building Materials & Services                    0710430 Building Materials                               
20160429 747906204 US7479062041 QTM      NYSE         QUANTUM CORP                 215411      99153.68  0.011765 01 Technology                     0130 Information Technology                           0130449 Computer Technology                              
20160429 74838J101 US74838J1016 QDEL     NASDAQ       QUIDEL CORP                   15913     275289.28  0.032664 02 Health Care                    0220 Medical Equipment & Services                     0220507 Medical & Dental Instruments & Supplies          
20160429 74874Q100 US74874Q1004 QNST     NASDAQ       QUINSTREET INC                35579     125238.08  0.014860 03 Consumer Discretionary         0350 Media                                            0350301 Advertising Agencies                             
20160429 749227609 US7492276099 RAS      NYSE         RAIT FINANCIAL TRUST          90896     276323.84  0.032787 10 Financial Services             1060 Real Estate Investment Trusts                    1060931 Mortgage REIT: Commercial                        
20160429 749607107 US7496071074 RLI      NYSE         RLI CORP                      43190    2685554.20  0.318650 10 Financial Services             1030 Insurance                                        1030542 Insurance: Property-Casualty                     
20160429 74965L101 US74965L1017 RLJ      NYSE         RLJ LODGING TR                79386    1672656.19  0.198466 10 Financial Services             1060 Real Estate Investment Trusts                    1060909 Equity REIT: Lodging and Resorts                 
20160429 74967R106 US74967R1068 RMR      NASDAQ       RMR GROUP INC                  6965     173567.80  0.020594 10 Financial Services             1050 Real Estate                                      1050801 Real Estate Services                             
20160429 74972G103 US74972G1031 RPXC     NASDAQ       RPX CORP                      47381     524974.05  0.062290 08 Producer Durables              0850 Commercial Services                              0850365 Back Office Support HR & Consulting              
20160429 74975N105 US74975N1054 RTIX     NASDAQ       RTI SURGICAL INC               9923      39593.89  0.004698 02 Health Care                    0220 Medical Equipment & Services                     0220507 Medical & Dental Instruments & Supplies          
20160429 74978Q105 US74978Q1058 RSPP     NYSE         RSP PERMIAN INC               65662    2009913.82  0.238483 06 Energy                         0620 Non-Renewable Energy                             0620670 Oil: Crude Producers                             
20160429 750236101 US7502361014 RDN      NYSE         RADIAN GROUP INC             181245    2318123.55  0.275053 10 Financial Services             1030 Insurance                                        1030542 Insurance: Property-Casualty                     
20160429 75025X100 US75025X1000 RLGT     NYSE MKT     RADIANT LOGISTICS INC          1629       6419.30  0.000762 08 Producer Durables              0850 Commercial Services                              0850546 International Trade & Diversified Logistics      
20160429 751452202 US7514522025 RPT      NYSE         RAMCO-GERSHENSON PPTYS        79148    1401711.08  0.166318 10 Financial Services             1060 Real Estate Investment Trusts                    1060908 Equity REIT: Retail                              
20160429 753422104 US7534221046 RPD      NASDAQ       RAPID7 INC                     1801      22550.09  0.002676 01 Technology                     0130 Information Technology                           0130439 Computer Services Software & Systems             
20160429 754212108 US7542121089 RAVN     NASDAQ       RAVEN INDUSTRIES INC          33190     534015.48  0.063363 08 Producer Durables              0820 Manufacturing & Production                       0820453 Diversified Manufacturing Operations             
20160429 75508B104 US75508B1044 RYAM     NYSE         RAYONIER ADV MATERIALS        40663     416795.75  0.049454 07 Materials & Processing         0720 Chemicals and Synthetics                         0720433 Chemicals: Diversified                           
20160429 75524W108 US75524W1080 RMAX     NYSE         RE/MAX HOLDINGS INC           11775     433320.00  0.051415 10 Financial Services             1050 Real Estate                                      1050801 Real Estate Services                             
20160429 755408101 US7554081015 RDI      NASDAQ       READING INTERNATIONAL         12854     166705.15  0.019780 03 Consumer Discretionary         0350 Media                                            0350480 Entertainment                                    
20160429 75601W104 US75601W1045 RELY     NASDAQ       REAL INDUSTRY INC              8836      78111.98  0.009268 10 Financial Services             1040 Investment Banking & Brokerage Services          1040457 Diversified Financial Services                   
20160429 75605L708 US75605L7082 RNWK     NASDAQ       REALNETWORKS INC              23188     105737.28  0.012546 01 Technology                     0130 Information Technology                           0130439 Computer Services Software & Systems             
20160429 758075402 US7580754023 RWT      NYSE         REDWOOD TRUST INC             77252    1001185.92  0.118794 10 Financial Services             1060 Real Estate Investment Trusts                    1060932 Mortgage REIT: Diversified                       
20160429 758932107 US7589321071 RGS      NYSE         REGIS CORP                    36002     492147.34  0.058395 03 Consumer Discretionary         0360 Retail                                           0360834 Specialty Retail                                 
20160429 75901B107 US75901B1070 RGNX     NASDAQ       REGENXBIO INC                   753       7850.18  0.000931 02 Health Care                    0230 Pharmaceuticals & Biotech                        0230412 Biotechnology                                    
20160429 75902K106 US75902K1060 RM       NYSE         REGIONAL MGMT CORP             9897     163497.75  0.019400 10 Financial Services             1020 Consumer Finance & Credit Services               1020492 Consumer Lending                                 
20160429 75936P105 US75936P1057 REIS     NASDAQ       REIS INC                       3049      76754.51  0.009107 01 Technology                     0130 Information Technology                           0130439 Computer Services Software & Systems             
20160429 75970E107 US75970E1073 RNST     NASDAQ       RENASANT CORP                 37420    1284991.91  0.152469 10 Financial Services             1010 Banks                                            1010400 Banks: Diversified                               
20160429 75972A301 US75972A3014 REGI     NASDAQ       RENEWABLE ENER GROUP INC      43936     427057.92  0.050672 06 Energy                         0630 Alternative Energy                               0630478 Alternative Energy                               
20160429 76009N100 US76009N1000 RCII     NASDAQ       RENT A CENTER INC             53028     779511.60  0.092492 03 Consumer Discretionary         0330 Consumer Services                                0330809 Rental & Leasing Services: Consumer              
20160429 760281204 US7602812049 RBCAA    NASDAQ       REPUBLIC BANCORP INC KY        9934     271297.54  0.032190 10 Financial Services             1010 Banks                                            1010400 Banks: Diversified                               
20160429 761195205 US7611952059 REXI     NASDAQ       RESOURCE AMERICA INC          12478      78857.62  0.009357 10 Financial Services             1040 Investment Banking & Brokerage Services          1040544 Asset Management & Custodian                     
20160429 76120W708 US76120W7083 RSO      NYSE         RESOURCE CAPITAL CORP         31716     376786.08  0.044707 10 Financial Services             1060 Real Estate Investment Trusts                    1060932 Mortgage REIT: Diversified                       
20160429 76122Q105 US76122Q1058 RECN     NASDAQ       RESOURCES CONNECTION          30622     452286.87  0.053665 08 Producer Durables              0850 Commercial Services                              0850365 Back Office Support HR & Consulting              
20160429 76131N101 US76131N1019 ROIC     NASDAQ       RETAIL OPPORTUNITY INVTS      99491    1956987.97  0.232203 10 Financial Services             1060 Real Estate Investment Trusts                    1060908 Equity REIT: Retail                              
20160429 76132B106 US76132B1061 SALE     NASDAQ       RETAILMENOT INC               33082     278876.06  0.033090 01 Technology                     0130 Information Technology                           0130439 Computer Services Software & Systems             
20160429 761525609 US7615256093 REV      NYSE         REVLON INC                     8387     305517.13  0.036251 03 Consumer Discretionary         0320 Consumer Products                                0320450 Cosmetics                                        
20160429 761565100 US7615651004 REXX     NASDAQ       REX ENERGY CORP               48099      48579.99  0.005764 06 Energy                         0620 Non-Renewable Energy                             0620670 Oil: Crude Producers                             
20160429 761624105 US7616241052 REX      NYSE         REX AMERICAN RESOURCES         5800     315346.00  0.037417 06 Energy                         0630 Alternative Energy                               0630478 Alternative Energy                               
20160429 76169C100 US76169C1009 REXR     NYSE         REXFORD INDUSTRIAL RLTY       55352    1038957.04  0.123276 10 Financial Services             1060 Real Estate Investment Trusts                    1060906 Equity REIT: Industrial                          
20160429 766559603 US7665596034 RIGL     NASDAQ       RIGEL PHARMACEUTICALS         19656      55626.80  0.006600 02 Health Care                    0230 Pharmaceuticals & Biotech                        0230412 Biotechnology                                    
20160429 76680V108 US76680V1089 REI      NYSE MKT     RING ENERGY INC               24349     175312.80  0.020801 06 Energy                         0620 Non-Renewable Energy                             0620670 Oil: Crude Producers                             
20160429 76973Q105 US76973Q1058 RRTS     NYSE         ROADRUNNER TRNSN SVCS         16963     200495.45  0.023789 08 Producer Durables              0840 Transportation & Freight                         0840865 Truckers                                         
20160429 773111109 US7731111099 FUEL     NASDAQ       ROCKET FUEL INC               26400      75504.00  0.008959 01 Technology                     0130 Information Technology                           0130439 Computer Services Software & Systems             
20160429 774374102 US7743741024 RMTI     NASDAQ       ROCKWELL MEDICAL INC           5278      48823.77  0.005793 02 Health Care                    0220 Medical Equipment & Services                     0220507 Medical & Dental Instruments & Supplies          
20160429 775043102 US7750431022 RSTI     NASDAQ       ROFIN SINAR TECHNOLOGIES      24811     798657.14  0.094763 01 Technology                     0120 Electronics                                      0120475 Electronics                                      
20160429 775133101 US7751331015 ROG      NYSE         ROGERS CORP                   12777     732874.38  0.086958 01 Technology                     0120 Electronics                                      0120463 Electronic Components                            
20160429 779287101 US7792871011 RSE      NYSE         ROUSE PROPERTIES INC          36595     675909.65  0.080199 10 Financial Services             1060 Real Estate Investment Trusts                    1060908 Equity REIT: Retail                              
20160429 779376102 US7793761021 ROVI     NASDAQ       ROVI CORPORATION              82645    1456204.90  0.172784 01 Technology                     0130 Information Technology                           0130439 Computer Services Software & Systems             
20160429 781182100 US7811821005 RT       NYSE         RUBY TUESDAY INC              62075     273130.00  0.032408 03 Consumer Discretionary         0340 Leisure                                          0340810 Restaurants                                      
20160429 781270103 US7812701032 RTEC     NYSE         RUDOLPH TECHNOLOGIES INC      27082     375623.57  0.044569 01 Technology                     0120 Electronics                                      0120738 Production Technology Equipment                  
20160429 781846209 US7818462092 RUSHA    NASDAQ       RUSH ENTERPRISES INC          35400     697026.00  0.082704 08 Producer Durables              0840 Transportation & Freight                         0840350 Commercial Vehicles & Parts                      
20160429 783332109 US7833321091 RUTH     NASDAQ       RUTH'S HOSPITALITY GROUP      11729     186268.59  0.022101 03 Consumer Discretionary         0340 Leisure                                          0340810 Restaurants                                      
20160429 783754104 US7837541041 RYI      NYSE         RYERSON HOLDING CORP           9779      86831.75  0.010303 07 Materials & Processing         0740 Metals & Minerals                                0740835 Steel                                            
20160429 783859101 US7838591011 STBA     NASDAQ       S & T BANCORP INC             34796     893213.32  0.105983 10 Financial Services             1010 Banks                                            1010400 Banks: Diversified                               
20160429 784305104 US7843051043 SJW      NYSE         SJW CORP                      15839     545019.99  0.064668 11 Utilities                      1110 Utilities                                        1110882 Utilities: Water                                 
20160429 78469C103 US78469C1036 SP       NASDAQ       SP PLUS CORPORATION            1055      23515.18  0.002790 08 Producer Durables              0850 Commercial Services                              0850484 Environmental Maint & Security Service           
20160429 78573L106 US78573L1061 SBRA     NASDAQ       SABRA HEALTH CARE REIT        55364    1167624.65  0.138543 10 Financial Services             1060 Real Estate Investment Trusts                    1060910 Equity REIT: Health Care                         
20160429 786449207 US7864492076 SFE      NYSE         SAFEGUARD SCIENTIFICS         20709     285784.20  0.033909 10 Financial Services             1040 Investment Banking & Brokerage Services          1040457 Diversified Financial Services                   
20160429 78648T100 US78648T1007 SAFT     NASDAQ       SAFETY INSURANCE GRP INC      15092     854358.12  0.101372 10 Financial Services             1030 Insurance                                        1030542 Insurance: Property-Casualty                     
20160429 786598300 US7865983008 SGA      NYSE MKT     SAGA COMMUNICATIONS INC        3633     152767.65  0.018126 03 Consumer Discretionary         0350 Media                                            0350760 Radio & TV Broadcasters                          
20160429 790148100 US7901481009 JOE      NYSE         ST JOE CO                     55123     928822.55  0.110208 10 Financial Services             1050 Real Estate                                      1050802 Real Estate Holding and Development              
20160429 79970Y105 US79970Y1055 SN       NYSE         SANCHEZ ENERGY CORP           52731     474051.69  0.056248 06 Energy                         0620 Non-Renewable Energy                             0620670 Oil: Crude Producers                             
20160429 800013104 US8000131040 SAFM     NASDAQ       SANDERSON FARMS INC           22411    2055985.14  0.243949 04 Consumer Staples               0410 Food/Beverage & Tobacco                          0410305 Agriculture Fishing & Ranching                   
20160429 800363103 US8003631038 SASR     NASDAQ       SANDY SPRING BANCORP          24672     705372.48  0.083695 10 Financial Services             1010 Banks                                            1010400 Banks: Diversified                               
20160429 800422107 US8004221078 JBSS     NASDAQ       SANFILIPPO JOHN B & SON        6204     343252.71  0.040728 04 Consumer Staples               0410 Food/Beverage & Tobacco                          0410494 Foods                                            
20160429 801056102 US8010561020 SANM     NASDAQ       SANMINA CORPORATION           78405    1854278.25  0.220016 01 Technology                     0120 Electronics                                      0120643 Technology: Misc                                 
20160429 804395101 US8043951016 BFS      NYSE         SAUL CENTERS INC               1228      65338.33  0.007753 10 Financial Services             1060 Real Estate Investment Trusts                    1060908 Equity REIT: Retail                              
20160429 806037107 US8060371072 SCSC     NASDAQ       SCANSOURCE INC                26764    1088759.52  0.129185 01 Technology                     0120 Electronics                                      0120463 Electronic Components                            
20160429 806882106 US8068821060 SCHN     NASDAQ       SCHNITZER STEEL INDS          26480     546017.60  0.064787 07 Materials & Processing         0740 Metals & Minerals                                0740835 Steel                                            
20160429 807066105 US8070661058 SCHL     NASDAQ       SCHOLASTIC CORP               26665     970072.70  0.115102 03 Consumer Discretionary         0350 Media                                            0350740 Publishing                                       
20160429 808194104 US8081941044 SHLM     NASDAQ       SCHULMAN A INC                 3016      84137.63  0.009983 07 Materials & Processing         0730 Industrial Materials & Processes                 0730733 Plastics                                         
20160429 808541106 US8085411069 SWM      NYSE         SCHWEITZER-MAUDUIT INTL       25081     862504.71  0.102339 07 Materials & Processing         0730 Industrial Materials & Processes                 0730720 Paper                                            
20160429 80908T101 US80908T1016 SQI      NASDAQ       SCIQUEST INC                  11808     163187.83  0.019363 01 Technology                     0130 Information Technology                           0130439 Computer Services Software & Systems             
20160429 811054402 US8110544025 SSP      NYSE         SCRIPPS E W CO                21289     323177.34  0.038346 03 Consumer Discretionary         0350 Media                                            0350760 Radio & TV Broadcasters                          
20160429 811543107 US8115431079 SEB      NYSE MKT     SEABOARD CORP                   240     719909.19  0.085420 04 Consumer Staples               0410 Food/Beverage & Tobacco                          0410305 Agriculture Fishing & Ranching                   
20160429 811699107 US8116991071 SEAC     NASDAQ       SEACHANGE INTERNATIONAL       33348     124388.04  0.014759 01 Technology                     0140 Telecommunication                                0140448 Communications Technology                        
20160429 811707801 US8117078019 SBCF     NASDAQ       SEACOAST BANKING CORP FL      23804     386100.88  0.045812 10 Financial Services             1010 Banks                                            1010400 Banks: Diversified                               
20160429 811904101 US8119041015 CKH      NYSE         SEACOR HOLDINGS INC           17166    1008845.82  0.119703 06 Energy                         0610 Energy Equipment & Services                      0610600 Oil Well Equipment & Services                    
20160429 81255T108 US81255T1088 SPNE     NASDAQ       SEASPINE HOLDINGS CORP         4764      71073.60  0.008433 02 Health Care                    0220 Medical Equipment & Services                     0220507 Medical & Dental Instruments & Supplies          
20160429 81618T100 US81618T1007 SIR      NYSE         SELECT INCOME REIT            62658    1450532.70  0.172110 10 Financial Services             1060 Real Estate Investment Trusts                    1060916 Equity REIT: Diversified                         
20160429 81619Q105 US81619Q1058 SEM      NYSE         SELECT MEDICAL HOLDINGS        6510      87111.27  0.010336 02 Health Care                    0210 Health Care Services                             0210504 Health Care Facilities                           
20160429 816300107 US8163001071 SIGI     NASDAQ       SELECTIVE INSURANCE GRP       56948    1976665.08  0.234538 10 Financial Services             1030 Insurance                                        1030542 Insurance: Property-Casualty                     
20160429 816850101 US8168501018 SMTC     NASDAQ       SEMTECH CORP                  43950     951067.57  0.112847 01 Technology                     0120 Electronics                                      0120476 Semiconductors & Components                      
20160429 817070501 US8170705011 SENEA    NASDAQ       SENECA FOODS CORP              7485     243936.15  0.028944 04 Consumer Staples               0410 Food/Beverage & Tobacco                          0410494 Foods                                            
20160429 81725T100 US81725T1007 SXT      NYSE         SENSIENT TECHNOLOGIES         16590    1115715.83  0.132383 07 Materials & Processing         0720 Chemicals and Synthetics                         0720433 Chemicals: Diversified                           
20160429 81734P107 US81734P1075 SQBG     NASDAQ       SEQUENTIAL BRANDS GROUP        7565      41989.17  0.004982 03 Consumer Discretionary         0320 Consumer Products                                0320850 Textiles Apparel & Shoes                         
20160429 81750R102 US81750R1023 MCRB     NASDAQ       SERES THERAPEUTICS INC          891      26329.01  0.003124 02 Health Care                    0230 Pharmaceuticals & Biotech                        0230412 Biotechnology                                    
20160429 81763U100 US81763U1007 SREV     NASDAQ       SERVICESOURCE INTL            24438      98487.24  0.011686 08 Producer Durables              0850 Commercial Services                              0850365 Back Office Support HR & Consulting              
20160429 81768T108 US81768T1088 SFBS     NASDAQ       SERVISFIRST BANCSHARES        22283    1098106.24  0.130294 10 Financial Services             1010 Banks                                            1010400 Banks: Diversified                               
20160429 818097107 US8180971074 SSE      NYSE         SEVENTY SEVEN ENERGY          56207      10718.67  0.001272 06 Energy                         0610 Energy Equipment & Services                      0610600 Oil Well Equipment & Services                    
20160429 819047101 US8190471016 SHAK     NYSE         SHAKE SHACK INC                 776      28348.65  0.003364 03 Consumer Discretionary         0340 Leisure                                          0340810 Restaurants                                      
20160429 82312B106 US82312B1061 SHEN     NASDAQ       SHENANDOAH TELECOMM CO         6818     195622.13  0.023211 11 Utilities                      1110 Utilities                                        1110880 Utilities: Telecommunications                    
20160429 824889109 US8248891090 SCVL     NASDAQ       SHOE CARNIVAL INC             14976     383834.88  0.045543 03 Consumer Discretionary         0360 Retail                                           0360834 Specialty Retail                                 
20160429 825211105 US8252111054 SHOR     NASDAQ       SHORETEL INC                  50741     310530.21  0.036845 01 Technology                     0140 Telecommunication                                0140448 Communications Technology                        
20160429 82568P304 US82568P3047 SFLY     NASDAQ       SHUTTERFLY INC                12840     590387.80  0.070051 03 Consumer Discretionary         0360 Retail                                           0360834 Specialty Retail                                 
20160429 82620P102 US82620P1021 BSRR     NASDAQ       SIERRA BANCORP                11807     207921.27  0.024671 10 Financial Services             1010 Banks                                            1010400 Banks: Diversified                               
20160429 826565103 US8265651039 SIGM     NASDAQ       SIGMA DESIGNS INC             35397     224063.01  0.026586 01 Technology                     0120 Electronics                                      0120476 Semiconductors & Components                      
20160429 826919102 US8269191024 SLAB     NASDAQ       SILICON LABORATORIES INC      12471     583671.44  0.069255 01 Technology                     0120 Electronics                                      0120476 Semiconductors & Components                      
20160429 82735Q102 US82735Q1022 SBY      NYSE         SILVER BAY RLTY TR CORP       36359     530841.40  0.062986 10 Financial Services             1060 Real Estate Investment Trusts                    1060907 Equity REIT: Residential                         
20160429 82817Q103 US82817Q1031 SSNI     NYSE         SILVER SPRING NETWORKS         2222      31230.04  0.003706 01 Technology                     0130 Information Technology                           0130439 Computer Services Software & Systems             
20160429 828730200 US8287302009 SFNC     NASDAQ       SIMMONS FIRST NATIONAL        29851    1394041.70  0.165408 10 Financial Services             1010 Banks                                            1010400 Banks: Diversified                               
20160429 829073105 US8290731053 SSD      NYSE         SIMPSON MANUFACTURING         38662    1453675.03  0.172483 07 Materials & Processing         0710 Building Materials & Services                    0710430 Building Materials                               
20160429 83013P105 US83013P1057 SZMK     NASDAQ       SIZMEK INC                    21520      57028.00  0.006767 03 Consumer Discretionary         0350 Media                                            0350301 Advertising Agencies                             
20160429 83083J104 US83083J1043 SKUL     NASDAQ       SKULLCANDY INC                14617      49840.68  0.005914 03 Consumer Discretionary         0320 Consumer Products                                0320451 Consumer Electronics                             
20160429 830879102 US8308791024 SKYW     NASDAQ       SKYWEST INC                   51676    1214386.00  0.144091 08 Producer Durables              0840 Transportation & Freight                         0840310 Air Transport                                    
20160429 83190B101 US83190B1017 SFS      NYSE         SMART & FINAL STORES INC      24278     386505.76  0.045860 04 Consumer Staples               0420 Personal Care/Drug & Grocery Stores              0420459 Drug & Grocery Store Chains                      
20160429 833551104 US8335511049 LNCE     NASDAQ       SNYDER'S-LANCE INC            49936    1596422.53  0.189421 04 Consumer Staples               0410 Food/Beverage & Tobacco                          0410494 Foods                                            
20160429 835451105 US8354511052 SONC     NASDAQ       SONIC CORP                    13704     471013.39  0.055887 03 Consumer Discretionary         0340 Leisure                                          0340810 Restaurants                                      
20160429 83545G102 US83545G1022 SAH      NYSE         SONIC AUTOMOTIVE INC          29787     558804.12  0.066304 03 Consumer Discretionary         0360 Retail                                           0360834 Specialty Retail                                 
20160429 835916503 US8359165037 SONS     NASDAQ       SONUS NETWORKS INC            49444     408407.44  0.048459 01 Technology                     0140 Telecommunication                                0140448 Communications Technology                        
20160429 838518108 US8385181081 SJI      NYSE         SOUTH JERSEY INDUSTRIES       68424    1909713.84  0.226594 11 Utilities                      1110 Utilities                                        1110875 Utilities: Gas Distributors                      
20160429 840441109 US8404411097 SSB      NASDAQ       SOUTH STATE CORPORATION       22880    1601073.12  0.189973 10 Financial Services             1010 Banks                                            1010400 Banks: Diversified                               
20160429 84470P109 US84470P1093 SBSI     NASDAQ       SOUTHSIDE BANCSHARES INC      25331     739918.51  0.087794 10 Financial Services             1010 Banks                                            1010400 Banks: Diversified                               
20160429 844767103 US8447671038 OKSB     NASDAQ       SOUTHWEST BANCORP INC OK      19033     305479.65  0.036246 10 Financial Services             1010 Banks                                            1010400 Banks: Diversified                               
20160429 844895102 US8448951025 SWX      NYSE         SOUTHWEST GAS CORP            46843    3040579.13  0.360775 11 Utilities                      1110 Utilities                                        1110875 Utilities: Gas Distributors                      
20160429 84610H108 US84610H1086 SSS      NYSE         SOVRAN SELF STORAGE            4998     530910.08  0.062994 10 Financial Services             1060 Real Estate Investment Trusts                    1060911 Equity REIT: Storage                             
20160429 846511103 US8465111032 SPKE     NASDAQ       SPARK ENERGY INC                376       9693.28  0.001150 11 Utilities                      1110 Utilities                                        1110870 Utilities: Electrical                            
20160429 847215100 US8472151005 SPTN     NASDAQ       SPARTANNASH COMPANY           37611    1041824.70  0.123616 04 Consumer Staples               0420 Personal Care/Drug & Grocery Stores              0420459 Drug & Grocery Store Chains                      
20160429 847235108 US8472351084 SPA      NYSE         SPARTON CORP                   4112      88257.47  0.010472 01 Technology                     0120 Electronics                                      0120643 Technology: Misc                                 
20160429 84763A108 US84763A1088 SPPI     NASDAQ       SPECTRUM PHARMACEUTICALS      49041     347696.01  0.041255 02 Health Care                    0230 Pharmaceuticals & Biotech                        0230460 Pharmaceuticals                                  
20160429 847788106 US8477881069 TRK      NYSE         SPEEDWAY MOTORSPORTS INC      11704     205054.08  0.024330 03 Consumer Discretionary         0340 Leisure                                          0340556 Leisure Time                                     
20160429 84857L101 US84857L1017 SR       NYSE         SPIRE INC                     43319    2770683.24  0.328751 11 Utilities                      1110 Utilities                                        1110875 Utilities: Gas Distributors                      
20160429 84863T106 US84863T1060 SPOK     NASDAQ       SPOK HOLDINGS INC             20656     350945.44  0.041641 11 Utilities                      1110 Utilities                                        1110880 Utilities: Telecommunications                    
20160429 84920Y106 US84920Y1064 SPWH     NASDAQ       SPORTSMANS WHSE HLDGS         10695     121703.75  0.014441 03 Consumer Discretionary         0360 Retail                                           0360834 Specialty Retail                                 
20160429 85254C305 US85254C3051 SSI      NYSE         STAGE STORES INC              31922     234945.92  0.027877 03 Consumer Discretionary         0360 Retail                                           0360834 Specialty Retail                                 
20160429 85254J102 US85254J1025 STAG     NYSE         STAG INDL INC                 65126    1299914.96  0.154239 10 Financial Services             1060 Real Estate Investment Trusts                    1060906 Equity REIT: Industrial                          
20160429 853666105 US8536661056 SMP      NYSE         STANDARD MOTOR PRODUCTS       19937     707962.87  0.084002 03 Consumer Discretionary         0310 Auto & Auto Parts                                0310340 Auto Parts                                       
20160429 854231107 US8542311076 SXI      NYSE         STANDEX INTERNATIONAL          3398     260644.92  0.030926 08 Producer Durables              0820 Manufacturing & Production                       0820453 Diversified Manufacturing Operations             
20160429 855707105 US8557071052 STFC     NASDAQ       STATE AUTO FINANCIAL          14989     307424.39  0.036477 10 Financial Services             1030 Insurance                                        1030542 Insurance: Property-Casualty                     
20160429 856190103 US8561901039 STBZ     NASDAQ       STATE BK FINL CORP            35739     746230.32  0.088543 10 Financial Services             1010 Banks                                            1010400 Banks: Diversified                               
20160429 85711T305 US85711T3059 SNC      NASDAQ       STATE NATIONAL COMPANIES      28802     324880.20  0.038548 10 Financial Services             1030 Insurance                                        1030542 Insurance: Property-Casualty                     
20160429 858375108 US8583751081 SMRT     NASDAQ       STEIN MART INC                29339     212414.36  0.025204 03 Consumer Discretionary         0360 Retail                                           0360834 Specialty Retail                                 
20160429 858586100 US8585861003 SCL      NYSE         STEPAN CO                      9838     602964.89  0.071544 07 Materials & Processing         0720 Chemicals and Synthetics                         0720833 Chemicals: Specialty                             
20160429 85858C107 US85858C1071 STML     NASDAQ       STEMLINE THERAPEUTICS         13029      71658.11  0.008502 02 Health Care                    0230 Pharmaceuticals & Biotech                        0230412 Biotechnology                                    
20160429 85917A100 US85917A1007 STL      NYSE         STERLING BANCORP             119881    1958855.54  0.232425 10 Financial Services             1010 Banks                                            1010820 Banks: Savings/Thrifts & Mortgage Lend           
20160429 860372101 US8603721015 STC      NYSE         STEWART INFORMATION           22949     799084.18  0.094814 10 Financial Services             1030 Insurance                                        1030542 Insurance: Property-Casualty                     
20160429 860630102 US8606301021 SF       NYSE         STIFEL FINANCIAL CORP         67882    2233996.62  0.265071 10 Financial Services             1040 Investment Banking & Brokerage Services          1040457 Diversified Financial Services                   
20160429 86074Q102 US86074Q1022 SWC      NYSE         STILLWATER MINING CO          81831     998332.49  0.118455 07 Materials & Processing         0740 Metals & Minerals                                0740549 Precious Metals & Minerals                       
20160429 861025104 US8610251048 SYBT     NASDAQ       STOCK YARDS BANCORP INC       14806     598754.64  0.071044 10 Financial Services             1010 Banks                                            1010400 Banks: Diversified                               
20160429 861642106 US8616421066 SGY      NYSE         STONE ENERGY CORP             57190      56051.92  0.006651 06 Energy                         0620 Non-Renewable Energy                             0620670 Oil: Crude Producers                             
20160429 861811107 US8618111079 SGBK     NASDAQ       STONEGATE BANK                11130     350595.00  0.041599 10 Financial Services             1010 Banks                                            1010400 Banks: Diversified                               
20160429 86181Q300 US86181Q3002 SGM      NYSE         STONEGATE MORTGAGE CORP       12072      69650.07  0.008264 10 Financial Services             1020 Consumer Finance & Credit Services               1020487 Commercial Finance & Mortgage Co                 
20160429 862121100 US8621211007 STOR     NYSE         STORE CAPITAL CORP            40490    1039378.30  0.123326 10 Financial Services             1060 Real Estate Investment Trusts                    1060916 Equity REIT: Diversified                         
20160429 863111100 US8631111007 STRT     NASDAQ       STRATTEC SEC CORP              2974     157304.66  0.018665 03 Consumer Discretionary         0310 Auto & Auto Parts                                0310340 Auto Parts                                       
20160429 863236105 US8632361056 STRA     NASDAQ       STRAYER EDUCATION INC          6508     323036.37  0.038329 03 Consumer Discretionary         0330 Consumer Services                                0330461 Education Services                               
20160429 864739107 US8647391072 SCNB     NYSE         SUFFOLK BANCORP               11728     281354.72  0.033384 10 Financial Services             1010 Banks                                            1010400 Banks: Diversified                               
20160429 866082100 US8660821005 INN      NYSE         SUMMIT HOTEL PPTYS            87269     994866.60  0.118044 10 Financial Services             1060 Real Estate Investment Trusts                    1060909 Equity REIT: Lodging and Resorts                 
20160429 86663B201 US86663B2016 SNBC     NASDAQ       SUN BANCORP INC NJ             9598     206261.02  0.024474 10 Financial Services             1010 Banks                                            1010400 Banks: Diversified                               
20160429 866674104 US8666741041 SUI      NYSE         SUN COMMUNITIES INC           42639    2893843.64  0.343364 10 Financial Services             1060 Real Estate Investment Trusts                    1060907 Equity REIT: Residential                         
20160429 86722A103 US86722A1034 SXC      NYSE         SUNCOKE ENERGY INC            18656     138614.57  0.016447 06 Energy                         0620 Non-Renewable Energy                             0620435 Coal                                             
20160429 86771W105 US86771W1053 RUN      NASDAQ       SUNRUN INC                    15787     124400.91  0.014761 06 Energy                         0610 Energy Equipment & Services                      0610477 Energy Equipment                                 
20160429 867892101 US8678921011 SHO      NYSE         SUNSTONE HOTEL INVS INC      208685    2673254.85  0.317191 10 Financial Services             1060 Real Estate Investment Trusts                    1060909 Equity REIT: Lodging and Resorts                 
20160429 868168105 US8681681057 SUP      NYSE         SUPERIOR INDUSTRIES INTL      23436     612148.32  0.072633 03 Consumer Discretionary         0310 Auto & Auto Parts                                0310340 Auto Parts                                       
20160429 868536103 US8685361037 SVU      NYSE         SUPERVALU INC                261789    1316798.67  0.156243 04 Consumer Staples               0420 Personal Care/Drug & Grocery Stores              0420459 Drug & Grocery Store Chains                      
20160429 86881A100 US86881A1007 SGRY     NASDAQ       SURGERY PARTNERS INC           6600     107518.50  0.012757 02 Health Care                    0210 Health Care Services                             0210504 Health Care Facilities                           
20160429 86881L106 US86881L1061 SCAI     NASDAQ       SURGICAL CARE AFFILIATES       1140      55146.08  0.006543 02 Health Care                    0210 Health Care Services                             0210504 Health Care Facilities                           
20160429 868873100 US8688731004 SRDX     NASDAQ       SURMODICS INC                 10500     211257.53  0.025066 02 Health Care                    0220 Medical Equipment & Services                     0220507 Medical & Dental Instruments & Supplies          
20160429 871237103 US8712371033 SYKE     NASDAQ       SYKES ENTERPRISES INC         38982    1136325.30  0.134829 08 Producer Durables              0850 Commercial Services                              0850365 Back Office Support HR & Consulting              
20160429 87162W100 US87162W1009 SNX      NYSE         SYNNEX CORP                   28750    2373887.50  0.281670 01 Technology                     0130 Information Technology                           0130439 Computer Services Software & Systems             
20160429 87164C102 US87164C1027 SYUT     NASDAQ       SYNUTRA INTL INC               2853      14440.22  0.001713 04 Consumer Staples               0410 Food/Beverage & Tobacco                          0410494 Foods                                            
20160429 87164P103 US87164P1030 SYRG     NYSE MKT     SYNERGY RES CORP             106457     768616.88  0.091199 06 Energy                         0620 Non-Renewable Energy                             0620670 Oil: Crude Producers                             
20160429 871851101 US8718511012 SYX      NYSE         SYSTEMAX INC                  11305     102310.25  0.012139 03 Consumer Discretionary         0360 Retail                                           0360834 Specialty Retail                                 
20160429 872625108 US8726251080 TRR      NYSE         TRC COS INC                   17101     146384.56  0.017369 08 Producer Durables              0830 Scientific Instruments & Services                0830735 Scientific Instruments: Pollution Control        
20160429 87265H109 US87265H1095 TPH      NYSE         TRI POINTE GROUP INC         152431    1768191.39  0.209802 03 Consumer Discretionary         0320 Consumer Products                                0320501 Homebuilding                                     
20160429 87305R109 US87305R1095 TTMI     NASDAQ       TTM TECHNOLOGIES INC          59031     384882.12  0.045668 01 Technology                     0120 Electronics                                      0120463 Electronic Components                            
20160429 874054109 US8740541094 TTWO     NASDAQ       TAKE-TWO INTERACTIVE          40781    1393912.97  0.165392 01 Technology                     0130 Information Technology                           0130469 Electronic Entertainment                         
20160429 874083108 US8740831081 TAL      NYSE         TAL INTERNATIONAL GROUP       33254     568643.40  0.067471 08 Producer Durables              0840 Transportation & Freight                         0840808 Commercial Services: Rental & Leasing            
20160429 87422J105 US87422J1051 TLN      NYSE         TALEN ENERGY CORP             83446     972980.36  0.115447 11 Utilities                      1110 Utilities                                        1110870 Utilities: Electrical                            
20160429 87482X101 US87482X1019 TLMR     NASDAQ       TALMER BANCORP INC            50884     987149.60  0.117129 10 Financial Services             1010 Banks                                            1010400 Banks: Diversified                               
20160429 87724P106 US87724P1066 TMHC     NYSE         TAYLOR MORRISON HOME          32510     468144.00  0.055547 03 Consumer Discretionary         0320 Consumer Products                                0320501 Homebuilding                                     
20160429 878237106 US8782371061 TECD     NASDAQ       TECH DATA CORP                36645    2517145.05  0.298668 01 Technology                     0120 Electronics                                      0120463 Electronic Components                            
20160429 87874R100 US87874R1005 TTGT     NASDAQ       TECHTARGET INC                14038     108930.43  0.012925 01 Technology                     0130 Information Technology                           0130439 Computer Services Software & Systems             
20160429 879080109 US8790801091 TRC      NYSE         TEJON RANCH CO                13738     309379.76  0.036709 10 Financial Services             1050 Real Estate                                      1050802 Real Estate Holding and Development              
20160429 87918A105 US87918A1051 TDOC     NYSE         TELADOC INC                    2172      26398.94  0.003132 02 Health Care                    0210 Health Care Services                             0210499 Health Care Services                             
20160429 879360105 US8793601050 TDY      NYSE         TELEDYNE TECHNOLOGIES         26255    2440369.53  0.289558 08 Producer Durables              0840 Transportation & Freight                         0840300 Aerospace                                        
20160429 879455103 US8794551031 TNAV     NASDAQ       TELENAV INC                   28257     161064.90  0.019111 01 Technology                     0140 Telecommunication                                0140448 Communications Technology                        
20160429 879939106 US8799391060 TTEC     NASDAQ       TELETECH HOLDINGS INC          7351     204293.41  0.024240 08 Producer Durables              0850 Commercial Services                              0850365 Back Office Support HR & Consulting              
20160429 880345103 US8803451033 TNC      NYSE         TENNANT CO                     1269      67816.71  0.008047 08 Producer Durables              0810 Machinery                                        0810584 Machinery: Industrial                            
20160429 88104M101 US88104M1018 GLBL     NASDAQ       TERRAFORM GLOBAL INC          33884      98600.15  0.011699 06 Energy                         0630 Alternative Energy                               0630478 Alternative Energy                               
20160429 88145X108 US88145X1081 TBNK     NASDAQ       TERRITORIAL BANCORP INC        8521     223505.83  0.026520 10 Financial Services             1010 Banks                                            1010820 Banks: Savings/Thrifts & Mortgage Lend           
20160429 88146M101 US88146M1018 TRNO     NYSE         TERRENO REALTY CORP           43012     979383.24  0.116207 10 Financial Services             1060 Real Estate Investment Trusts                    1060906 Equity REIT: Industrial                          
20160429 88157K101 CA88157K1012 TESO     NASDAQ       TESCO CORP                    38964     368599.44  0.043736 06 Energy                         0610 Energy Equipment & Services                      0610600 Oil Well Equipment & Services                    
20160429 88162F105 US88162F1057 TTI      NYSE         TETRA TECHNOLOGIES INC        79638     573393.60  0.068035 06 Energy                         0610 Energy Equipment & Services                      0610600 Oil Well Equipment & Services                    
20160429 88162G103 US88162G1031 TTEK     NASDAQ       TETRA TECH INC                60259    1771614.60  0.210208 08 Producer Durables              0850 Commercial Services                              0850479 Engineering & Contracting Services               
20160429 88164L100 US88164L1008 TSRA     NASDAQ       TESSERA TECHNOLOGIES INC      20362     584796.78  0.069388 01 Technology                     0120 Electronics                                      0120738 Production Technology Equipment                  
20160429 88224Q107 US88224Q1076 TCBI     NASDAQ       TEXAS CAPITAL BANCSHARES      42525    1948494.35  0.231195 10 Financial Services             1010 Banks                                            1010400 Banks: Diversified                               
20160429 88362T103 US88362T1034 THR      NYSE         THERMON GROUP HLDGS INC       27711     519289.30  0.061615 08 Producer Durables              0830 Scientific Instruments & Services                0830524 Scientific Instruments: Control & Filter         
20160429 885807206 US8858072064 THLD     NASDAQ       THRESHOLD PHARMACEUTICAL       3577       1573.62  0.000187 02 Health Care                    0230 Pharmaceuticals & Biotech                        0230412 Biotechnology                                    
20160429 886423102 US8864231027 TDW      NYSE         TIDEWATER INC                 47029     411974.04  0.048882 08 Producer Durables              0840 Transportation & Freight                         0840830 Shipping                                         
20160429 886885102 US8868851028 TLYS     NYSE         TILLYS INC                    11261      70831.69  0.008404 03 Consumer Discretionary         0360 Retail                                           0360834 Specialty Retail                                 
20160429 887228104 US8872281048 TIME     NYSE         TIME INC                     109522    1609973.40  0.191029 03 Consumer Discretionary         0350 Media                                            0350740 Publishing                                       
20160429 887399103 US8873991033 TMST     NYSE         TIMKENSTEEL CORPORATION       39922     508606.28  0.060348 07 Materials & Processing         0740 Metals & Minerals                                0740835 Steel                                            
20160429 88822Q103 US88822Q1031 TIPT     NASDAQ       TIPTREE FINANCIAL INC         29939     165562.67  0.019645 10 Financial Services             1040 Investment Banking & Brokerage Services          1040457 Diversified Financial Services                   
20160429 88830M102 US88830M1027 TWI      NYSE         TITAN INTERNATIONAL INC       40567     268957.08  0.031913 08 Producer Durables              0810 Machinery                                        0810570 Machinery: Agricultural                          
20160429 88830R101 US88830R1014 TITN     NASDAQ       TITAN MACHINERY INC           17324     225212.00  0.026722 08 Producer Durables              0810 Machinery                                        0810570 Machinery: Agricultural                          
20160429 88907J107 US88907J1079 TKAI     NASDAQ       TOKAI PHARMACEUTICALS          5633      41284.82  0.004899 02 Health Care                    0230 Pharmaceuticals & Biotech                        0230412 Biotechnology                                    
20160429 890110109 US8901101092 TMP      NYSE MKT     TOMPKINS FINANCIAL CORP       14973     978335.82  0.116083 10 Financial Services             1010 Banks                                            1010400 Banks: Diversified                               
20160429 890516107 US8905161076 TR       NYSE         TOOTSIE ROLL INDUSTRIES       12359     440451.95  0.052261 04 Consumer Staples               0410 Food/Beverage & Tobacco                          0410494 Foods                                            
20160429 891826109 US8918261095 TOWR     NYSE         TOWER INTERNATIONAL INC        9433     216488.29  0.025687 03 Consumer Discretionary         0310 Auto & Auto Parts                                0310340 Auto Parts                                       
20160429 89214P109 US89214P1093 TOWN     NASDAQ       TOWNEBANK PORTSMOUTH VA       45536     956256.00  0.113463 10 Financial Services             1010 Banks                                            1010400 Banks: Diversified                               
20160429 892231101 US8922311019 TSQ      NYSE         TOWNSQUARE MEDIA INC           6843      72809.52  0.008639 03 Consumer Discretionary         0350 Media                                            0350760 Radio & TV Broadcasters                          
20160429 89366M201 US89366M2017 TRXC     NYSE MKT     TRANSENTERIX INC              42378      63566.61  0.007542 02 Health Care                    0220 Medical Equipment & Services                     0220507 Medical & Dental Instruments & Supplies          
20160429 894650100 US8946501009 TG       NYSE         TREDEGAR CORP                 19569     312317.03  0.037057 07 Materials & Processing         0730 Industrial Materials & Processes                 0730452 Diversified Materials & Processing               
20160429 89469A104 US89469A1043 THS      NYSE         TREEHOUSE FOODS INC           56395    4985318.00  0.591524 04 Consumer Staples               0410 Food/Beverage & Tobacco                          0410494 Foods                                            
20160429 89600B201 US89600B2016 TPLM     NYSE MKT     TRIANGLE PETE CORP            46631      20932.66  0.002484 06 Energy                         0620 Non-Renewable Energy                             0620670 Oil: Crude Producers                             
20160429 896082104 US8960821044 TPUB     NYSE         TRIBUNE PUBG CO               11602     131453.71  0.015597 03 Consumer Discretionary         0350 Media                                            0350740 Publishing                                       
20160429 896095106 US8960951064 TCBK     NASDAQ       TRICO BANCSHARES              22741     612187.72  0.072638 10 Financial Services             1010 Banks                                            1010400 Banks: Diversified                               
20160429 896215209 US8962152091 TRS      NASDAQ       TRIMAS CORP                   42483     768941.54  0.091237 08 Producer Durables              0820 Manufacturing & Production                       0820453 Diversified Manufacturing Operations             
20160429 896288107 US8962881079 TNET     NYSE         TRINET GROUP INC               3292      54722.35  0.006493 08 Producer Durables              0850 Commercial Services                              0850365 Back Office Support HR & Consulting              
20160429 896749108 PR8967491088 GTS      NYSE         TRIPLE-S MANAGEMENT CORP      24154     628970.16  0.074629 02 Health Care                    0210 Health Care Services                             0210503 Health Care Management Services                  
20160429 89678F100 US89678F1003 TSC      NASDAQ       TRISTATE CAP HLDGS INC        21275     284234.00  0.033725 10 Financial Services             1010 Banks                                            1010400 Banks: Diversified                               
20160429 89679E300 US89679E3009 TBK      NASDAQ       TRIUMPH BANCORP INC           14859     236109.51  0.028015 10 Financial Services             1010 Banks                                            1010400 Banks: Diversified                               
20160429 898202106 US8982021060 TRUP     NYSE         TRUPANION INC                  2450      30554.62  0.003625 10 Financial Services             1030 Insurance                                        1030528 Insurance: Life                                  
20160429 898349105 US8983491056 TRST     NASDAQ       TRUSTCO BANK CORP NY          95056     609308.96  0.072297 10 Financial Services             1010 Banks                                            1010400 Banks: Diversified                               
20160429 898402102 US8984021027 TRMK     NASDAQ       TRUSTMARK CORP                67557    1655822.07  0.196469 10 Financial Services             1010 Banks                                            1010400 Banks: Diversified                               
20160429 899035505 US8990355054 TUES     NASDAQ       TUESDAY MORNING CORP           7842      68069.83  0.008077 03 Consumer Discretionary         0360 Retail                                           0360815 Diversified Retail                               
20160429 901109108 US9011091082 TPC      NYSE         TUTOR PERINI CORP             37527     593677.14  0.070442 08 Producer Durables              0820 Manufacturing & Production                       0820443 Construction                                     
20160429 901476101 US9014761012 TWIN     NASDAQ       TWIN DISC INC                  8361     110783.25  0.013145 08 Producer Durables              0810 Machinery                                        0810584 Machinery: Industrial                            
20160429 902104108 US9021041085 IIVI     NASDAQ       II VI INC                     52441    1094443.67  0.129859 01 Technology                     0120 Electronics                                      0120475 Electronics                                      
20160429 902788108 US9027881088 UMBF     NASDAQ       UMB FINANCIAL CORP            39370    2194877.50  0.260429 10 Financial Services             1010 Banks                                            1010400 Banks: Diversified                               
20160429 902925106 US9029251066 USAK     NASDAQ       USA TRUCK INC                  5641      99953.17  0.011860 08 Producer Durables              0840 Transportation & Freight                         0840865 Truckers                                         
20160429 903002103 US9030021037 UMH      NYSE         UMH PROPERTIES INC            23620     231476.00  0.027465 10 Financial Services             1060 Real Estate Investment Trusts                    1060907 Equity REIT: Residential                         
20160429 90347A100 US90347A1007 UBNT     NASDAQ       UBIQUITI NETWORKS INC          1789      63753.25  0.007565 01 Technology                     0140 Telecommunication                                0140849 Telecommunications Equipment                     
20160429 90385V107 US90385V1070 UCTT     NASDAQ       ULTRA CLEAN HOLDINGS INC      31615     179889.35  0.021344 01 Technology                     0120 Electronics                                      0120738 Production Technology Equipment                  
20160429 903914109 CA9039141093 UPL      NYSE         ULTRA PETROLEUM CORP          78590      24535.50  0.002911 06 Energy                         0620 Non-Renewable Energy                             0620670 Oil: Crude Producers                             
20160429 904034105 US9040341052 UTEK     NASDAQ       ULTRATECH INC                 27602     598687.38  0.071036 01 Technology                     0120 Electronics                                      0120738 Production Technology Equipment                  
20160429 904214103 US9042141039 UMPQ     NASDAQ       UMPQUA HOLDINGS CORP         220558    3491433.14  0.414270 10 Financial Services             1010 Banks                                            1010400 Banks: Diversified                               
20160429 904677200 US9046772003 UFI      NYSE         UNIFI INC                     14014     360979.83  0.042831 07 Materials & Processing         0730 Industrial Materials & Processes                 0730852 Textile Products                                 
20160429 904708104 US9047081040 UNF      NYSE         UNIFIRST CORP MASS            14857    1610201.66  0.191056 08 Producer Durables              0850 Commercial Services                              0850484 Environmental Maint & Security Service           
20160429 90478E103 US90478E1038 UNIS     NASDAQ       UNILIFE CORP                  22879      12581.20  0.001493 02 Health Care                    0220 Medical Equipment & Services                     0220507 Medical & Dental Instruments & Supplies          
20160429 90539J109 US90539J1097 UBSH     NASDAQ       UNION BANKSHARES CORP         45113    1191434.33  0.141368 10 Financial Services             1010 Banks                                            1010400 Banks: Diversified                               
20160429 909214306 US9092143067 UIS      NYSE         UNISYS CORP                   18419     142016.21  0.016851 01 Technology                     0130 Information Technology                           0130439 Computer Services Software & Systems             
20160429 909218109 US9092181091 UNT      NYSE         UNIT CORP                     50401     638076.66  0.075710 06 Energy                         0620 Non-Renewable Energy                             0620670 Oil: Crude Producers                             
20160429 909839102 US9098391025 UCFC     NASDAQ       UNITED CMNTY FINL CO          49140     291891.60  0.034634 10 Financial Services             1010 Banks                                            1010820 Banks: Savings/Thrifts & Mortgage Lend           
20160429 90984P303 US90984P3038 UCBI     NASDAQ       UNITED COMMUNITY BANKS        53269    1072304.97  0.127233 10 Financial Services             1010 Banks                                            1010400 Banks: Diversified                               
20160429 909907107 US9099071071 UBSI     NASDAQ       UNITED BANKSHARES INC         69448    2686943.12  0.318815 10 Financial Services             1010 Banks                                            1010400 Banks: Diversified                               
20160429 910187103 US9101871039 UDF      NASDAQ       UNITED DEV FDG IV             30642      98054.40  0.011634 10 Financial Services             1060 Real Estate Investment Trusts                    1060930 Mortgage REIT: Residential                       
20160429 910304104 US9103041045 UBNK     NASDAQ       UNITED FINANCIAL BANCORP      40310     523222.50  0.062082 10 Financial Services             1010 Banks                                            1010400 Banks: Diversified                               
20160429 910340108 US9103401082 UFCS     NASDAQ       UNITED FIRE GROUP INC         20246     907425.72  0.107669 10 Financial Services             1030 Insurance                                        1030542 Insurance: Property-Casualty                     
20160429 910710102 US9107101027 UIHC     NASDAQ       UNITED INS HLDGS CORP         17140     279553.40  0.033170 10 Financial Services             1030 Insurance                                        1030542 Insurance: Property-Casualty                     
20160429 911163103 US9111631035 UNFI     NASDAQ       UNITED NATURAL FOODS INC       3955     141107.84  0.016743 04 Consumer Staples               0410 Food/Beverage & Tobacco                          0410494 Foods                                            
20160429 911268209 US9112682094 UNTD     NASDAQ       UNITED ONLINE INC             14677     158951.91  0.018860 01 Technology                     0130 Information Technology                           0130439 Computer Services Software & Systems             
20160429 911922102 US9119221029 USLM     NASDAQ       UNITED STATES LIME & MIN       1832      98133.22  0.011644 07 Materials & Processing         0740 Metals & Minerals                                0740635 Metals & Minerals: Diversified                   
20160429 913259107 US9132591077 UTL      NYSE         UNITIL CORP                   13967     551975.84  0.065494 11 Utilities                      1110 Utilities                                        1110870 Utilities: Electrical                            
20160429 91336L107 US91336L1070 UNVR     NYSE         UNIVAR INC                    20769     361380.60  0.042879 07 Materials & Processing         0720 Chemicals and Synthetics                         0720433 Chemicals: Diversified                           
20160429 91338E101 US91338E1010 UAM      NYSE         UNIVERSAL AMERICAN CORP       49839     370802.16  0.043997 02 Health Care                    0210 Health Care Services                             0210503 Health Care Management Services                  
20160429 913456109 US9134561094 UVV      NYSE         UNIVERSAL CORP                22593    1232448.15  0.146234 04 Consumer Staples               0410 Food/Beverage & Tobacco                          0410856 Tobacco                                          
20160429 913483103 US9134831034 UEIC     NASDAQ       UNIVERSAL ELECTRONICS          2392     158874.97  0.018851 03 Consumer Discretionary         0320 Consumer Products                                0320451 Consumer Electronics                             
20160429 913543104 US9135431040 UFPI     NASDAQ       UNIVERSAL FOREST PRODS        20120    1542198.00  0.182987 07 Materials & Processing         0730 Industrial Materials & Processes                 0730496 Forest Products                                  
20160429 91388P105 US91388P1057 UACL     NASDAQ       UNIVERSAL TRUCKLOAD SVCS       2767      39463.84  0.004683 08 Producer Durables              0840 Transportation & Freight                         0840865 Truckers                                         
20160429 913915104 US9139151040 UTI      NYSE         UNIVERSAL TECHNICAL INST      21140      83503.00  0.009908 03 Consumer Discretionary         0330 Consumer Services                                0330461 Education Services                               
20160429 915271100 US9152711001 UVSP     NASDAQ       UNIVEST CORP OF PENN          19672     388325.28  0.046076 10 Financial Services             1010 Banks                                            1010400 Banks: Diversified                               
20160429 917286205 US9172862057 UBA      NYSE         URSTADT BIDDLE PPTYS INS      24394     501540.06  0.059509 10 Financial Services             1060 Real Estate Investment Trusts                    1060908 Equity REIT: Retail                              
20160429 918284100 US9182841000 VSEC     NASDAQ       VSE CORP                       4160     258086.40  0.030623 08 Producer Durables              0850 Commercial Services                              0850479 Engineering & Contracting Services               
20160429 91829F104 US91829F1049 VOXX     NASDAQ       VOXX INTERNATIONAL CORP       18624      83618.11  0.009922 03 Consumer Discretionary         0320 Consumer Products                                0320451 Consumer Electronics                             
20160429 918385105 US9183851057 VTVT     NASDAQ       VTV THERAPEAUTICS INC           639       4026.86  0.000478 02 Health Care                    0230 Pharmaceuticals & Biotech                        0230412 Biotechnology                                    
20160429 918905100 US9189051009 VHI      NYSE         VALHI INC                      9491      18698.66  0.002219 07 Materials & Processing         0720 Chemicals and Synthetics                         0720833 Chemicals: Specialty                             
20160429 919794107 US9197941076 VLY      NYSE         VALLEY NATIONAL BANCORP      232525    2199686.50  0.261000 10 Financial Services             1010 Banks                                            1010400 Banks: Diversified                               
20160429 921659108 US9216591084 VNDA     NASDAQ       VANDA PHARMACEUTICALS          8401      74774.23  0.008872 02 Health Care                    0230 Pharmaceuticals & Biotech                        0230412 Biotechnology                                    
20160429 922417100 US9224171002 VECO     NASDAQ       VEECO INSTRUMENTS INC         40384     743469.44  0.088215 01 Technology                     0120 Electronics                                      0120738 Production Technology Equipment                  
20160429 92242T101 US92242T1016 VEC      NYSE         VECTRUS INC                     600      12940.53  0.001535 08 Producer Durables              0850 Commercial Services                              0850546 International Trade & Diversified Logistics      
20160429 92335C106 US92335C1062 VRA      NASDAQ       VERA BRADLEY INC              21273     373128.42  0.044273 03 Consumer Discretionary         0320 Consumer Products                                0320850 Textiles Apparel & Shoes                         
20160429 92337C104 US92337C1045 VSTM     NASDAQ       VERASTEM INC                  27881      46002.13  0.005458 02 Health Care                    0230 Pharmaceuticals & Biotech                        0230412 Biotechnology                                    
20160429 92343X100 US92343X1000 VRNT     NASDAQ       VERINT SYS INC                 3374     114199.51  0.013550 01 Technology                     0130 Information Technology                           0130439 Computer Services Software & Systems             
20160429 923454102 US9234541020 VRTV     NYSE         VERITIV CORPORATION            8145     334107.90  0.039643 07 Materials & Processing         0730 Industrial Materials & Processes                 0730442 Containers & Packaging                           
20160429 92529L102 US92529L1026 VSAR     NASDAQ       VERSARTIS INC                 20652     187101.03  0.022200 02 Health Care                    0230 Pharmaceuticals & Biotech                        0230412 Biotechnology                                    
20160429 92552R406 US92552R4065 VVI      NYSE         VIAD CORP                     20056     596666.00  0.070796 03 Consumer Discretionary         0350 Media                                            0350301 Advertising Agencies                             
20160429 92552V100 US92552V1008 VSAT     NASDAQ       VIASAT INC                     6364     488171.26  0.057923 01 Technology                     0140 Telecommunication                                0140448 Communications Technology                        
20160429 925815102 US9258151029 VICR     NASDAQ       VICOR CORP                     1959      18788.88  0.002229 08 Producer Durables              0820 Manufacturing & Production                       0820734 Power Transmission Equip                         
20160429 927107409 US9271074091 VLGEA    NASDAQ       VILLAGE SUPER MARKET INC       7160     174704.00  0.020729 04 Consumer Staples               0420 Personal Care/Drug & Grocery Stores              0420459 Drug & Grocery Store Chains                      
20160429 92765X208 US92765X2080 VA       NASDAQ       VIRGIN AMERICA INC             1612      89774.06  0.010652 08 Producer Durables              0840 Transportation & Freight                         0840310 Air Transport                                    
20160429 92828Q109 US92828Q1094 VRTS     NASDAQ       VIRTUS INVESTMENT PTNRS        6085     475920.05  0.056469 10 Financial Services             1040 Investment Banking & Brokerage Services          1040544 Asset Management & Custodian                     
20160429 928298108 US9282981086 VSH      NYSE         VISHAY INTERTECHNOLOGY       135440    1646950.40  0.195416 01 Technology                     0120 Electronics                                      0120476 Semiconductors & Components                      
20160429 92835K103 US92835K1034 VPG      NYSE         VISHAY PRECISION GROUP        12600     188496.00  0.022366 08 Producer Durables              0830 Scientific Instruments & Services                0830474 Scientific Instruments: Gauges & Meters          
20160429 92849E101 US92849E1010 VSI      NYSE         VITAMIN SHOPPE INC            24240     663442.78  0.078720 03 Consumer Discretionary         0360 Retail                                           0360834 Specialty Retail                                 
20160429 92854Q106 US92854Q1067 VSLR     NYSE         VIVINT SOLAR INC               7851      26224.21  0.003112 06 Energy                         0630 Alternative Energy                               0630478 Alternative Energy                               
20160429 92857F107 US92857F1075 VCRA     NYSE         VOCERA COMMUNICATIONS          8927     104627.59  0.012414 01 Technology                     0140 Telecommunication                                0140849 Telecommunications Equipment                     
20160429 928703107 US9287031077 VISI     NYSE MKT     VOLT INFORMATION SCIENCE       3482      26156.05  0.003104 08 Producer Durables              0850 Commercial Services                              0850365 Back Office Support HR & Consulting              
20160429 92886T201 US92886T2015 VG       NYSE         VONAGE HLDGS CORP            166347     776839.93  0.092175 11 Utilities                      1110 Utilities                                        1110880 Utilities: Telecommunications                    
20160429 92915B106 US92915B1061 VYGR     NASDAQ       VOYAGER THERAPEUTICS INC        598       6966.70  0.000827 02 Health Care                    0230 Pharmaceuticals & Biotech                        0230412 Biotechnology                                    
20160429 92922P106 US92922P1066 WTI      NYSE         W&T OFFSHORE INC              34994      84335.54  0.010007 06 Energy                         0620 Non-Renewable Energy                             0620670 Oil: Crude Producers                             
20160429 92923C807 US92923C8073 WCIC     NYSE         WCI COMMUNITIES INC           15439     246715.22  0.029274 03 Consumer Discretionary         0320 Consumer Products                                0320501 Homebuilding                                     
20160429 92924F106 US92924F1066 WGL      NYSE         WGL HOLDINGS INC              49729    3376101.81  0.400586 11 Utilities                      1110 Utilities                                        1110875 Utilities: Gas Distributors                      
20160429 929328102 US9293281021 WSFS     NASDAQ       WSFS FINANCIAL CORP           29117     994050.01  0.117947 10 Financial Services             1010 Banks                                            1010820 Banks: Savings/Thrifts & Mortgage Lend           
20160429 93148P102 US93148P1021 WD       NYSE         WALKER & DUNLOP INC           13419     295872.68  0.035106 10 Financial Services             1020 Consumer Finance & Credit Services               1020487 Commercial Finance & Mortgage Co                 
20160429 93317W102 US93317W1027 WAC      NYSE         WALTER INV MGMT CORP          35573     257904.25  0.030601 10 Financial Services             1020 Consumer Finance & Credit Services               1020487 Commercial Finance & Mortgage Co                 
20160429 938824109 US9388241096 WAFD     NASDAQ       WASHINGTON FED INC            94832    2303469.28  0.273314 10 Financial Services             1010 Banks                                            1010400 Banks: Diversified                               
20160429 939653101 US9396531017 WRE      NYSE         WASHINGTON REAL ESTATE        68142    1953631.14  0.231805 10 Financial Services             1060 Real Estate Investment Trusts                    1060912 Equity REIT: Office                              
20160429 940610108 US9406101082 WASH     NASDAQ       WASHINGTON TRUST BANCORP      14824     543003.12  0.064429 10 Financial Services             1010 Banks                                            1010400 Banks: Diversified                               
20160429 94188P101 US94188P1012 WSBF     NASDAQ       WATERSTONE FINANCIAL INC      26999     378525.98  0.044913 10 Financial Services             1010 Banks                                            1010820 Banks: Savings/Thrifts & Mortgage Lend           
20160429 942749102 US9427491025 WTS      NYSE         WATTS WATER TECH INC          28170    1573857.90  0.186743 08 Producer Durables              0830 Scientific Instruments & Services                0830524 Scientific Instruments: Control & Filter         
20160429 947890109 US9478901096 WBS      NYSE         WEBSTER FINANCIAL CORP        90781    3326215.84  0.394666 10 Financial Services             1010 Banks                                            1010400 Banks: Diversified                               
20160429 948626106 US9486261061 WTW      NYSE         WEIGHT WATCHERS INTL INC       2208      28597.74  0.003393 03 Consumer Discretionary         0330 Consumer Services                                0330638 Consumer Services: Misc                          
20160429 948849104 US9488491047 WMK      NYSE         WEIS MARKETS INC              11016     501448.32  0.059498 04 Consumer Staples               0420 Personal Care/Drug & Grocery Stores              0420459 Drug & Grocery Store Chains                      
20160429 950755108 US9507551086 WERN     NASDAQ       WERNER ENTERPRISES INC        33850     857752.21  0.101775 08 Producer Durables              0840 Transportation & Freight                         0840865 Truckers                                         
20160429 950810101 US9508101014 WSBC     NASDAQ       WESBANCO INC                  38450    1235398.50  0.146584 10 Financial Services             1010 Banks                                            1010400 Banks: Diversified                               
20160429 950814103 US9508141036 WAIR     NYSE         WESCO AIRCRAFT HLDGS INC      61717     890576.31  0.105670 08 Producer Durables              0840 Transportation & Freight                         0840300 Aerospace                                        
20160429 95123P106 US95123P1066 WTBA     NASDAQ       WEST BANCORPORATION INC       16039     299127.35  0.035492 10 Financial Services             1010 Banks                                            1010400 Banks: Diversified                               
20160429 952355204 US9523552043 WSTC     NASDAQ       WEST CORP                     45197     968561.85  0.114923 11 Utilities                      1110 Utilities                                        1110880 Utilities: Telecommunications                    
20160429 954235107 US9542351070 WMAR     NASDAQ       WEST MARINE INC               17981     180169.62  0.021378 03 Consumer Discretionary         0340 Leisure                                          0340556 Leisure Time                                     
20160429 957090103 US9570901036 WABC     NASDAQ       WESTAMERICA BANCORP           25551    1244844.72  0.147705 10 Financial Services             1010 Banks                                            1010400 Banks: Diversified                               
20160429 957638109 US9576381092 WAL      NYSE         WESTERN ALLIANCE BANCORP      41965    1535100.18  0.182145 10 Financial Services             1010 Banks                                            1010400 Banks: Diversified                               
20160429 95790D105 US95790D1054 WMC      NYSE         WESTERN ASSET MTG CAP         41920     417942.40  0.049590 10 Financial Services             1060 Real Estate Investment Trusts                    1060932 Mortgage REIT: Diversified                       
20160429 960878106 US9608781061 WLB      NASDAQ       WESTMORELAND COAL CO          17909     127691.17  0.015151 06 Energy                         0620 Non-Renewable Energy                             0620435 Coal                                             
20160429 962149100 US9621491003 WEYS     NASDAQ       WEYCO GROUP INC                6211     174143.54  0.020663 03 Consumer Discretionary         0320 Consumer Products                                0320850 Textiles Apparel & Shoes                         
20160429 966084204 US9660842041 WSR      NYSE         WHITESTONE REIT               26979     362327.97  0.042991 10 Financial Services             1060 Real Estate Investment Trusts                    1060916 Equity REIT: Diversified                         
20160429 969490101 US9694901011 CWEI     NYSE         WILLIAMS CLAYTON ENERGY        5898     106930.74  0.012688 06 Energy                         0620 Non-Renewable Energy                             0620670 Oil: Crude Producers                             
20160429 97186T108 US97186T1088 WIBC     NASDAQ       WILSHIRE BANCORP INC          70574     760081.98  0.090186 10 Financial Services             1010 Banks                                            1010400 Banks: Diversified                               
20160429 97382A200 US97382A2006 WIN      NASDAQ       WINDSTREAM HOLDINGS INC        5308      46078.35  0.005467 11 Utilities                      1110 Utilities                                        1110880 Utilities: Telecommunications                    
20160429 974155103 US9741551033 WING     NASDAQ       WINGSTOP INC                   1240      30936.42  0.003671 03 Consumer Discretionary         0340 Leisure                                          0340810 Restaurants                                      
20160429 974637100 US9746371007 WGO      NYSE         WINNEBAGO INDUSTRIES INC       2423      52450.82  0.006223 03 Consumer Discretionary         0340 Leisure                                          0340804 Recreational Vehicles & Boats                    
20160429 97650W108 US97650W1080 WTFC     NASDAQ       WINTRUST FINANCIAL CORP       47420    2466788.40  0.292693 10 Financial Services             1010 Banks                                            1010400 Banks: Diversified                               
20160429 980745103 US9807451037 WWD      NASDAQ       WOODWARD INC                  19193    1040504.57  0.123459 08 Producer Durables              0810 Machinery                                        0810584 Machinery: Industrial                            
20160429 981419104 US9814191048 WRLD     NASDAQ       WORLD ACCEPTANCE CORP          2595     112610.33  0.013362 10 Financial Services             1020 Consumer Finance & Credit Services               1020492 Consumer Lending                                 
20160429 981811102 US9818111026 WOR      NYSE         WORTHINGTON INDUSTRIES        36971    1395646.95  0.165598 07 Materials & Processing         0740 Metals & Minerals                                0740630 Metal Fabricating                                
20160429 983793100 US9837931008 XPO      NYSE         XPO LOGISTICS INC             12588     379403.77  0.045018 08 Producer Durables              0840 Transportation & Freight                         0840860 Transportation Miscellaneous                     
20160429 98386L101 US98386L1017 XTLY     NYSE         XACTLY CORP                    1736      13996.59  0.001661 01 Technology                     0130 Information Technology                           0130439 Computer Services Software & Systems             
20160429 98400J108 US98400J1088 XCRA     NASDAQ       XCERRA CORPORATION            30822     181849.09  0.021577 01 Technology                     0120 Electronics                                      0120738 Production Technology Equipment                  
20160429 984017103 US9840171030 XHR      NYSE         XENIA HOTELS & RESORTS       111671    1717499.98  0.203787 10 Financial Services             1060 Real Estate Investment Trusts                    1060909 Equity REIT: Lodging and Resorts                 
20160429 98419J107 US98419J1079 XOMA     NASDAQ       XOMA CORPORATION              15496      12685.73  0.001505 02 Health Care                    0230 Pharmaceuticals & Biotech                        0230412 Biotechnology                                    
20160429 984249607 US9842496070 YRCW     NASDAQ       YRC WORLDWIDE INC             26334     242267.39  0.028746 08 Producer Durables              0840 Transportation & Freight                         0840865 Truckers                                         
20160429 984305102 US9843051023 YDKN     NYSE         YADKIN FINANCIAL CORP         43125    1078987.50  0.128025 10 Financial Services             1010 Banks                                            1010400 Banks: Diversified                               
20160429 987184108 US9871841089 YORW     NASDAQ       YORK WATER COMPANY            11740     348071.85  0.041300 11 Utilities                      1110 Utilities                                        1110882 Utilities: Water                                 
20160429 98884U108 US98884U1088 ZAGG     NASDAQ       ZAGG INC                       1543      12361.42  0.001467 03 Consumer Discretionary         0320 Consumer Products                                0320451 Consumer Electronics                             
20160429 989817101 US9898171015 ZUMZ     NASDAQ       ZUMIEZ INC                     3896      65376.36  0.007757 03 Consumer Discretionary         0360 Retail                                           0360834 Specialty Retail                                 
20160429 98986X109 US98986X1090 ZYNE     NASDAQ       ZYNERBA PHARMACEUTICALS         248       2023.87  0.000240 02 Health Care                    0230 Pharmaceuticals & Biotech                        0230460 Pharmaceuticals                                  
20160429 G00349103 GB00BLP5YB54 ABY      NASDAQ       ABENGOA YIELD PLC             49053     884425.59  0.104940 11 Utilities                      1110 Utilities                                        1110870 Utilities: Electrical                            
20160429 G0129K104 BMG0129K1045 AYR      NYSE         AIRCASTLE LTD                 62403    1354145.10  0.160674 08 Producer Durables              0840 Transportation & Freight                         0840808 Commercial Services: Rental & Leasing            
20160429 G0464B107 BMG0464B1072 AGII     NASDAQ       ARGO GROUP INTL               27933    1535477.01  0.182189 10 Financial Services             1030 Insurance                                        1030542 Insurance: Property-Casualty                     
20160429 G06207115 KYG062071157 AFH      NASDAQ       ATLAS FINANCIAL HOLDINGS       5626      98848.12  0.011729 10 Financial Services             1030 Insurance                                        1030542 Insurance: Property-Casualty                     
20160429 G0750W104 BMG0750W1047 AXON     NYSE         AXOVANT SCIENCES LTD           1471      19129.45  0.002270 02 Health Care                    0230 Pharmaceuticals & Biotech                        0230412 Biotechnology                                    
20160429 G1154H107 BMG1154H1079 BEL      NYSE         BELMOND LTD                   96878     887402.48  0.105293 03 Consumer Discretionary         0340 Leisure                                          0340514 Hotel/Motel                                      
20160429 G20045202 BMG200452024 CETV     NASDAQ       CENTRAL EUROPEAN MEDIA        19972      53125.94  0.006304 03 Consumer Discretionary         0350 Media                                            0350760 Radio & TV Broadcasters                          
20160429 G23773107 KYG237731073 CWCO     NASDAQ       CONSOLIDATED WATER CO         14734     204655.26  0.024283 11 Utilities                      1110 Utilities                                        1110882 Utilities: Water                                 
20160429 G3075P101 BMG3075P1014 ESGR     NASDAQ       ENSTAR GROUP LIMITED           9088    1439902.72  0.170849 10 Financial Services             1030 Insurance                                        1030542 Insurance: Property-Casualty                     
20160429 G3164Q101 BMG3164Q1015 CJES     NYSE         C&J ENERGY SERVICES LTD       56395      81772.75  0.009703 06 Energy                         0610 Energy Equipment & Services                      0610600 Oil Well Equipment & Services                    
20160429 G3323L100 KYG3323L1005 FN       NYSE         FABRINET                      35426    1132569.22  0.134383 01 Technology                     0120 Electronics                                      0120643 Technology: Misc                                 
20160429 G36738105 KYG367381053 FDP      NYSE         FRESH DEL MONTE PRODUCE       33324    1441596.24  0.171050 04 Consumer Staples               0410 Food/Beverage & Tobacco                          0410305 Agriculture Fishing & Ranching                   
20160429 G3682E192 BMG3682E1921 FRO      NYSE         FRONTLINE LTD                 47742     393394.08  0.046678 08 Producer Durables              0840 Transportation & Freight                         0840830 Shipping                                         
20160429 G37585109 BMG375851091 GLOG     NYSE         GASLOG LTD                    41619     533139.39  0.063259 08 Producer Durables              0840 Transportation & Freight                         0840830 Shipping                                         
20160429 G3788M114 IM00B86NL059 EROS     NYSE         EROS INTL PLC                 28287     378480.06  0.044908 03 Consumer Discretionary         0350 Media                                            0350480 Entertainment                                    
20160429 G39319101 IE00B5NH3H04 GBLI     NASDAQ       GLOBAL INDEMNITY PLC           8304     261160.80  0.030988 10 Financial Services             1030 Insurance                                        1030542 Insurance: Property-Casualty                     
20160429 G39637106 BMG396371061 GOGL     NASDAQ       GOLDEN OCEAN GROUP LTD        66830      57941.61  0.006875 08 Producer Durables              0840 Transportation & Freight                         0840830 Shipping                                         
20160429 G4095J109 KYG4095J1094 GLRE     NASDAQ       GREENLIGHT CAPITAL RE LT      28923     622712.19  0.073887 10 Financial Services             1030 Insurance                                        1030542 Insurance: Property-Casualty                     
20160429 G4388N106 BMG4388N1065 HELE     NASDAQ       HELEN OF TROY LTD             16842    1676198.27  0.198886 03 Consumer Discretionary         0320 Consumer Products                                0320521 Household Equip & Products                       
20160429 G5005R107 BMG5005R1079 JRVR     NASDAQ       JAMES RIVER GROUP HLDG        11000     340560.00  0.040409 10 Financial Services             1030 Insurance                                        1030535 Insurance: Multi-Line                            
20160429 G5509L101 GB00BYMT0J19 LIVN     NASDAQ       LIVANOVA PLC                  13309     701825.75  0.083274 02 Health Care                    0220 Medical Equipment & Services                     0220471 Medical Equipment                                
20160429 G5753U112 BMG5753U1128 MHLD     NASDAQ       MAIDEN HOLDINGS LTD           44512     544372.95  0.064592 10 Financial Services             1030 Insurance                                        1030535 Insurance: Multi-Line                            
20160429 G6331P104 BMG6331P1041 AOSL     NASDAQ       ALPHA & OMEGA SEMICON         19156     248836.44  0.029525 01 Technology                     0120 Electronics                                      0120476 Semiconductors & Components                      
20160429 G6331W109 BMG6331W1091 MPSX     NYSE         MULTI PACKAGING SOLUTION       6489     107848.97  0.012797 07 Materials & Processing         0730 Industrial Materials & Processes                 0730442 Containers & Packaging                           
20160429 G65773106 BMG657731060 NAT      NYSE         NORDIC AMERICAN TANKER        89182    1374294.62  0.163065 08 Producer Durables              0840 Transportation & Freight                         0840830 Shipping                                         
20160429 G6613P129 BMG6613P1297 NADL     NYSE         NORTH ATLANTIC DRILLING        7147      27015.66  0.003205 06 Energy                         0610 Energy Equipment & Services                      0610600 Oil Well Equipment & Services                    
20160429 G6674U108 JE00BYSS4X48 NVCR     NASDAQ       NOVOCURE LTD                   1384      17857.78  0.002119 02 Health Care                    0220 Medical Equipment & Services                     0220471 Medical Equipment                                
20160429 G67742109 BMG677421098 OB       NYSE         ONEBEACON INSURANCE GRP       22712     281628.80  0.033416 10 Financial Services             1030 Insurance                                        1030542 Insurance: Property-Casualty                     
20160429 G6855A103 GB00BGFBB958 OXFD     NASDAQ       OXFORD IMMUNOTEC GLOBAL        1047      10955.64  0.001300 02 Health Care                    0220 Medical Equipment & Services                     0220471 Medical Equipment                                
20160429 G81075106 BMG810751062 SFL      NYSE         SHIP FINANCE INTL             59291     899444.47  0.106722 08 Producer Durables              0840 Transportation & Freight                         0840830 Shipping                                         
20160429 G8766E109 BMG8766E1093 TGH      NYSE         TEXTAINER GROUP HLDGS         22131     341481.33  0.040518 08 Producer Durables              0840 Transportation & Freight                         0840860 Transportation Miscellaneous                     
20160429 G8807B106 KYG8807B1068 TBPH     NASDAQ       THERAVANCE BIOPHARMA INC      28548     592371.00  0.070287 02 Health Care                    0230 Pharmaceuticals & Biotech                        0230412 Biotechnology                                    
20160429 G8827U100 BMG8827U1009 TPRE     NYSE         THIRD POINT REINSURANCE       78497     893291.88  0.105992 10 Financial Services             1030 Insurance                                        1030535 Insurance: Multi-Line                            
20160429 G89982113 BMG899821133 TAT      NYSE MKT     TRANSATLANTIC PETROLEUM       25821      28144.89  0.003339 06 Energy                         0620 Non-Renewable Energy                             0620670 Oil: Crude Producers                             
20160429 G9019D104 BMG9019D1048 TVPT     NYSE         TRAVELPORT WORLDWIDE LTD      30822     429967.74  0.051017 03 Consumer Discretionary         0340 Leisure                                          0340556 Leisure Time                                     
20160429 L5140P101 LU0914713705 I        NYSE         INTELSAT SA                   19976      78903.40  0.009362 11 Utilities                      1110 Utilities                                        1110880 Utilities: Telecommunications                    
20160429 M85548101 IL0011267213 SSYS     NASDAQ       STRATASYS LTD                 50923    1246085.81  0.147852 01 Technology                     0130 Information Technology                           0130449 Computer Technology                              
20160429 N6748L102 ANN6748L1027 OFIX     NASDAQ       ORTHOFIX INTL NV              18766     821200.16  0.097438 02 Health Care                    0220 Medical Equipment & Services                     0220507 Medical & Dental Instruments & Supplies          
20160429 N7716A151 ANN7716A1513 SPNS     NASDAQ       SAPIENS INTL CORP NV           5278      62184.33  0.007378 01 Technology                     0130 Information Technology                           0130439 Computer Services Software & Systems             
20160429 N96617118 NL0011327523 WMGI     NASDAQ       WRIGHT MEDICAL GROUP N V      42836     804472.10  0.095453 02 Health Care                    0220 Medical Equipment & Services                     0220507 Medical & Dental Instruments & Supplies          
20160429 P16994132 PAP169941328 BLX      NYSE         BANCO LATINOAMERICANO         30058     777299.88  0.092229 10 Financial Services             1010 Banks                                            1010400 Banks: Diversified                               
20160429 P94398107 BSP943981071 ULTR     NASDAQ       ULTRAPETROL BAHAMAS LTD       21380       5969.30  0.000708 08 Producer Durables              0840 Transportation & Freight                         0840830 Shipping                                         
20160429 Q9235V101 AU000XINEOA7 TROX     NYSE         TRONOX LTD                    63602     463022.56  0.054939 07 Materials & Processing         0720 Chemicals and Synthetics                         0720833 Chemicals: Specialty                             
20160429 Y0207T100 MHY0207T1001 ASC      NYSE         ARDMORE SHIPPING CORP         17930     167645.50  0.019892 08 Producer Durables              0840 Transportation & Freight                         0840830 Shipping                                         
20160429 Y2065G121 MHY2065G1219 DHT      NYSE         DHT HOLDINGS INC              92851     532964.74  0.063238 08 Producer Durables              0840 Transportation & Freight                         0840830 Shipping                                         
20160429 Y2106R110 MHY2106R1100 LPG      NYSE         DORIAN LPG LTD                25035     254355.60  0.030180 08 Producer Durables              0840 Transportation & Freight                         0840830 Shipping                                         
20160429 Y2187A127 MHY2187A1275 EGLE     NASDAQ       EAGLE BULK SHIPPING INC       22222      18326.48  0.002174 08 Producer Durables              0840 Transportation & Freight                         0840830 Shipping                                         
20160429 Y26889108 MHY268891089 GNRT     NYSE         GENER8 MARITIME INC           16022     115831.96  0.013744 08 Producer Durables              0840 Transportation & Freight                         0840830 Shipping                                         
20160429 Y62159101 MHY621591012 NNA      NYSE         NAVIOS MARITIME ACQUIS        82022     158302.46  0.018783 08 Producer Durables              0840 Transportation & Freight                         0840830 Shipping                                         
20160429 Y62196103 MHY621961033 NM       NYSE         NAVIOS MARITIME HOLDINGS      81378      95212.26  0.011297 08 Producer Durables              0840 Transportation & Freight                         0840830 Shipping                                         
20160429 Y6366T112 MHY6366T1120 NAO      NYSE         NORDIC AMERICAN OFFSHORE      18934     107734.46  0.012783 06 Energy                         0620 Non-Renewable Energy                             0620660 Offshore Drilling & Other Services               
20160429 Y7388L103 MHY7388L1039 SB       NYSE         SAFE BULKERS INC              37897      46992.28  0.005576 08 Producer Durables              0840 Transportation & Freight                         0840830 Shipping                                         
20160429 Y7542C106 MHY7542C1066 STNG     NYSE         SCORPIO TANKERS INC          178828    1119463.28  0.132828 08 Producer Durables              0840 Transportation & Freight                         0840830 Shipping                                         
20160429 Y7546A122 MHY7546A1221 SALT     NYSE         SCORPIO BULKERS INC           44683     172029.55  0.020412 08 Producer Durables              0840 Transportation & Freight                         0840830 Shipping                                         
20160429 Y8565N102 MHY8565N1022 TNK      NYSE         TEEKAY TANKERS LTD            95085     374634.90  0.044452 08 Producer Durables              0840 Transportation & Freight                         0840830 Shipping                                         
