Date     Cusip     ISIN         Ticker   Exchange     Name                         Shares     Mkt Value    Weight ES Economic Sector                SubS SubSector                                        IND     Industry                                         
-------- --------- ------------ -------  ------------ ------------------------- --------- ------------- --------- -- ------------------------------ ---- ------------------------------------------------ ------- ------------------------------------------------ 
20111031 000361105 US0003611052 AIR      NYSE         AAR CORP                      29686     591622.71  0.107620 08 Producer Durables              0840 Transportation & Freight                         0840300 Aerospace                                        
20111031 00081T108 US00081T1088 ABD      NYSE         ACCO BRANDS CORP              55152     378894.24  0.068923 08 Producer Durables              0820 Manufacturing & Production                       0820650 Office Supplies Equipment                        
20111031 000957100 US0009571003 ABM      NYSE         ABM INDUSTRIES INC            38334     775102.56  0.140996 08 Producer Durables              0850 Commercial Services                              0850484 Environmental Maint & Security Service           
20111031 001228105 US0012281053 MITT     NYSE         AG MORTGAGE INVT TR INC        5222      94724.74  0.017231 10 Financial Services             1050 Real Estate                                      1050806 Real Estate Investment Trusts (REITs)            
20111031 001282102 US0012821023 AHC      NYSE         A H BELO CORP                 18649      93245.00  0.016962 03 Consumer Discretionary         0350 Media                                            0350740 Publishing                                       
20111031 00163U106 US00163U1060 AMAG     NASDAQ       AMAG PHARMACEUTICALS INC      18854     266023.73  0.048391 02 Health Care                    0230 Pharmaceuticals & Biotech                        0230412 Biotechnology                                    
20111031 001744101 US0017441017 AHS      NYSE         AMN HEALTHCARE SERVICES       21574     102257.35  0.018601 02 Health Care                    0210 Health Care Services                             0210499 Health Care Services                             
20111031 00207R101 US00207R1014 ATMI     NASDAQ       ATMI INC                      29843     608780.43  0.110741 01 Technology                     0120 Electronics                                      0120738 Production Technology Equipment                  
20111031 00246W103 US00246W1036 AXTI     NASDAQ       AXT INC                       18417      86557.31  0.015745 01 Technology                     0120 Electronics                                      0120476 Semiconductors & Components                      
20111031 004239109 US0042391096 AKR      NYSE         ACADIA REALTY TRUST           32017     663381.09  0.120673 10 Financial Services             1050 Real Estate                                      1050806 Real Estate Investment Trusts (REITs)            
20111031 00430U103 US00430U1034 ACCL     NASDAQ       ACCELRYS INC                  55389     367229.07  0.066801 02 Health Care                    0230 Pharmaceuticals & Biotech                        0230412 Biotechnology                                    
20111031 004397105 US0043971052 ARAY     NASDAQ       ACCURAY INC                    8205      32820.96  0.005970 02 Health Care                    0220 Medical Equipment & Services                     0220471 Medical Equipment                                
20111031 00439T206 US00439T2069 ACW      NYSE         ACCURIDE CORP NEW             36361     229801.23  0.041802 08 Producer Durables              0840 Transportation & Freight                         0840350 Commercial Vehicles & Parts                      
20111031 004446100 US0044461004 ACET     NASDAQ       ACETO CORP                    26620     168770.80  0.030700 07 Materials & Processing         0720 Chemicals and Synthetics                         0720433 Chemicals: Diversified                           
20111031 00508B102 US00508B1026 BIRT     NASDAQ       ACTUATE CORP                   2874      18684.12  0.003399 01 Technology                     0130 Information Technology                           0130439 Computer Services Software & Systems             
20111031 00508X203 US00508X2036 ATU      NYSE         ACTUANT CORP                  57690    1298007.81  0.236116 08 Producer Durables              0810 Machinery                                        0810584 Machinery: Industrial                            
20111031 005125109 US0051251090 ACXM     NASDAQ       ACXIOM CORP                   81149    1070355.31  0.194704 01 Technology                     0130 Information Technology                           0130439 Computer Services Software & Systems             
20111031 00739W107 US00739W1071 AEA      NYSE         ADVANCE AMERICA CASH ADV      48425     408215.25  0.074257 10 Financial Services             1020 Consumer Finance & Credit Services               1020492 Consumer Lending                                 
20111031 00752J108 US00752J1088 AATI     NASDAQ       ADVANCED ANALOGIC TECH        33991     148196.67  0.026958 01 Technology                     0120 Electronics                                      0120476 Semiconductors & Components                      
20111031 00770F104 US00770F1049 AEGN     NASDAQ       AEGION CORP                   39487     584012.73  0.106235 08 Producer Durables              0820 Manufacturing & Production                       0820443 Construction                                     
20111031 007973100 US0079731008 AEIS     NASDAQ       ADVANCED ENERGY INDS INC      43557     406822.38  0.074003 08 Producer Durables              0820 Manufacturing & Production                       0820734 Power Transmission Equip                         
20111031 00826A109 US00826A1097 AFFY     NASDAQ       AFFYMAX INC                   18223      96945.08  0.017635 02 Health Care                    0230 Pharmaceuticals & Biotech                        0230412 Biotechnology                                    
20111031 00826T108 US00826T1088 AFFX     NASDAQ       AFFYMETRIX INC                70504     394117.36  0.071692 02 Health Care                    0220 Medical Equipment & Services                     0220471 Medical Equipment                                
20111031 00847J105 US00847J1051 AGYS     NASDAQ       AGILYSYS INC                  17888     151869.12  0.027626 01 Technology                     0120 Electronics                                      0120475 Electronics                                      
20111031 008492100 US0084921008 ADC      NYSE         AGREE REALTY CORP              9857     235680.87  0.042872 10 Financial Services             1050 Real Estate                                      1050806 Real Estate Investment Trusts (REITs)            
20111031 00922R105 US00922R1059 ATSG     NASDAQ       AIR TRANSPORT SERVICES        53828     298207.12  0.054246 08 Producer Durables              0840 Transportation & Freight                         0840310 Air Transport                                    
20111031 011311107 US0113111076 ALG      NYSE         ALAMO GROUP INC                6243     148895.43  0.027085 08 Producer Durables              0810 Machinery                                        0810570 Machinery: Agricultural                          
20111031 011659109 US0116591092 ALK      NYSE         ALASKA AIR GROUP INC          33822    2250153.18  0.409317 08 Producer Durables              0840 Transportation & Freight                         0840310 Air Transport                                    
20111031 01167P101 US01167P1012 ALSK     NASDAQ       ALASKA COMMUNICATIONS         36000     254517.83  0.046298 11 Utilities                      1110 Utilities                                        1110880 Utilities: Telecommunications                    
20111031 012348108 US0123481089 AIN      NYSE         ALBANY INTERNATIONAL          22336     504559.94  0.091783 08 Producer Durables              0810 Machinery                                        0810610 Machinery: Specialty                             
20111031 012423109 US0124231095 AMRI     NASDAQ       ALBANY MOLECULAR RESRCH       22006      70639.26  0.012850 02 Health Care                    0230 Pharmaceuticals & Biotech                        0230412 Biotechnology                                    
20111031 016230104 US0162301040 ALCO     NASDAQ       ALICO INC                      2280      51910.14  0.009443 04 Consumer Staples               0410 Food/Beverage & Tobacco                          0410305 Agriculture Fishing & Ranching                   
20111031 018522300 US0185223007 ALE      NYSE         ALLETE INC                    31888    1259894.88  0.229183 11 Utilities                      1110 Utilities                                        1110870 Utilities: Electrical                            
20111031 018772103 US0187721032 AOI      NYSE         ALLIANCE ONE INTL INC         87085     232516.95  0.042296 04 Consumer Staples               0410 Food/Beverage & Tobacco                          0410856 Tobacco                                          
20111031 019205103 US0192051037 ALNC     NASDAQ       ALLIANCE FINANCIAL CORP        4745     146098.55  0.026576 10 Financial Services             1010 Banks                                            1010400 Banks: Diversified                               
20111031 019777101 US0197771019 ALTH     NASDAQ       ALLOS THERAPEUTICS INC        15206      22352.94  0.004066 02 Health Care                    0230 Pharmaceuticals & Biotech                        0230412 Biotechnology                                    
20111031 020409108 US0204091088 AFAM     NASDAQ       ALMOST FAMILY INC              8223     153276.72  0.027882 02 Health Care                    0210 Health Care Services                             0210499 Health Care Services                             
20111031 020520102 US0205201025 ALJ      NYSE         ALON USA ENERGY INC            2698      20506.37  0.003730 06 Energy                         0620 Non-Renewable Energy                             0620605 Oil: Refining & Marketing                        
20111031 02081G102 US02081G1022 ATEC     NASDAQ       ALPHATEC HOLDINGS             53921     111616.47  0.020304 02 Health Care                    0220 Medical Equipment & Services                     0220507 Medical & Dental Instruments & Supplies          
20111031 023177108 US0231771082 EPAX     NASDAQ       AMBASSADORS GROUP INC         13629      67599.84  0.012297 03 Consumer Discretionary         0330 Consumer Services                                0330461 Education Services                               
20111031 023436108 US0234361089 AMED     NASDAQ       AMEDISYS INC                  29474     386993.62  0.070397 02 Health Care                    0210 Health Care Services                             0210499 Health Care Services                             
20111031 023586100 US0235861004 UHAL     NASDAQ       AMERCO                         8666     656102.86  0.119349 03 Consumer Discretionary         0330 Consumer Services                                0330809 Rental & Leasing Services: Consumer              
20111031 024013104 US0240131047 AAT      NYSE         AMERICAN ASSETS TRST INC       1771      35917.12  0.006534 10 Financial Services             1050 Real Estate                                      1050806 Real Estate Investment Trusts (REITs)            
20111031 024061103 US0240611030 AXL      NYSE         AMERICAN AXLE & MFG           52480     508527.79  0.092504 03 Consumer Discretionary         0310 Auto & Auto Parts                                0310340 Auto Parts                                       
20111031 024835100 US0248351001 ACC      NYSE         AMERICAN CAMPUS COMMUN        37829    1472669.54  0.267888 10 Financial Services             1050 Real Estate                                      1050806 Real Estate Investment Trusts (REITs)            
20111031 02504A104 US02504A1043 MTGE     NASDAQ       AMERICAN CAP MTG INVT          6632     120569.76  0.021932 10 Financial Services             1050 Real Estate                                      1050806 Real Estate Investment Trusts (REITs)            
20111031 025353103 US0253531034 ADPI     NASDAQ       AMERICAN DENTAL PARTNERS      15427     162909.12  0.029634 02 Health Care                    0210 Health Care Services                             0210503 Health Care Management Services                  
20111031 025676206 US0256762065 AEL      NYSE         AMERICAN EQUITY INVST         59497     644947.48  0.117320 10 Financial Services             1030 Insurance                                        1030528 Insurance: Life                                  
20111031 026375105 US0263751051 AM       NYSE         AMERICAN GREETINGS            37958     607694.72  0.110543 03 Consumer Discretionary         0320 Consumer Products                                0320521 Household Equip & Products                       
20111031 02916P103 US02916P1030 ARII     NASDAQ       AMERICAN RAILCAR IND           9736     214776.16  0.039069 08 Producer Durables              0840 Transportation & Freight                         0840770 Railroad Equipment                               
20111031 029263100 US0292631001 ARC      NYSE         AMERICAN REPROGRAPHICS        31704     126497.65  0.023011 01 Technology                     0130 Information Technology                           0130439 Computer Services Software & Systems             
20111031 029899101 US0298991011 AWR      NYSE         AMERICAN STATES WATER CO      18662     652050.28  0.118612 11 Utilities                      1110 Utilities                                        1110882 Utilities: Water                                 
20111031 030111108 US0301111086 AMSC     NASDAQ       AMERICAN SUPERCONDUCTOR       44668     194752.48  0.035427 08 Producer Durables              0830 Scientific Instruments & Services                0830465 Scientific Instruments: Electrical               
20111031 030371108 US0303711081 AVD      NYSE         AMERICAN VANGUARD CORP        18718     231536.32  0.042118 07 Materials & Processing         0720 Chemicals and Synthetics                         0720433 Chemicals: Diversified                           
20111031 030506109 US0305061097 AMWD     NASDAQ       AMERICAN WOODMARK CORP         9381     159570.81  0.029027 03 Consumer Discretionary         0320 Consumer Products                                0320523 Household Furnishings                            
20111031 03062T105 US03062T1051 CRMT     NASDAQ       AMERICAS CAR-MART INC          4104     136993.92  0.024920 03 Consumer Discretionary         0360 Retail                                           0360834 Specialty Retail                                 
20111031 03071H100 US03071H1005 AMSF     NASDAQ       AMERISAFE INC                 18396     396433.80  0.072114 10 Financial Services             1030 Insurance                                        1030542 Insurance: Property-Casualty                     
20111031 03076K108 US03076K1088 ABCB     NASDAQ       AMERIS BANCORP                23766     238848.30  0.043448 10 Financial Services             1010 Banks                                            1010400 Banks: Diversified                               
20111031 031001100 US0310011004 ATLO     NASDAQ       AMES NATL CORP                 8291     152720.22  0.027781 10 Financial Services             1010 Banks                                            1010400 Banks: Diversified                               
20111031 031652100 US0316521006 AMKR     NASDAQ       AMKOR TECHNOLOGY INC         105711     511641.24  0.093071 01 Technology                     0120 Electronics                                      0120476 Semiconductors & Components                      
20111031 032037103 US0320371034 AP       NYSE         AMPCO-PITTSBURGH CORP          7713     161883.49  0.029448 07 Materials & Processing         0740 Metals & Minerals                                0740630 Metal Fabricating                                
20111031 03232P405 US03232P4054 AMSG     NASDAQ       AMSURG CORP                   31261     791841.13  0.144041 02 Health Care                    0210 Health Care Services                             0210504 Health Care Facilities                           
20111031 032332504 US0323325045 ASYS     NASDAQ       AMTECH SYSTEMS INC              593       6067.10  0.001104 01 Technology                     0120 Electronics                                      0120476 Semiconductors & Components                      
20111031 032359309 US0323593097 AFSI     NASDAQ       AMTRUST FINL SVCS             21035     533866.65  0.097114 10 Financial Services             1030 Insurance                                        1030542 Insurance: Property-Casualty                     
20111031 032420101 US0324201013 ANAC     NASDAQ       ANACOR PHARM INC                641       4341.40  0.000790 02 Health Care                    0230 Pharmaceuticals & Biotech                        0230412 Biotechnology                                    
20111031 032515108 US0325151084 ANAD     NASDAQ       ANADIGICS INC                 67433     177348.79  0.032261 01 Technology                     0120 Electronics                                      0120476 Semiconductors & Components                      
20111031 032657207 US0326572072 ALOG     NASDAQ       ANALOGIC CORP                  3249     175742.32  0.031969 02 Health Care                    0220 Medical Equipment & Services                     0220471 Medical Equipment                                
20111031 032744104 US0327441046 ANEN     NASDAQ       ANAREN INC                    13440     257088.32  0.046766 01 Technology                     0140 Telecommunication                                0140448 Communications Technology                        
20111031 034164103 US0341641035 ANDE     NASDAQ       ANDERSONS INC                 18600     686712.00  0.124917 04 Consumer Staples               0410 Food/Beverage & Tobacco                          0410305 Agriculture Fishing & Ranching                   
20111031 03475V101 US03475V1017 ANGO     NASDAQ       ANGIODYNAMICS INC             24976     384880.16  0.070012 02 Health Care                    0220 Medical Equipment & Services                     0220507 Medical & Dental Instruments & Supplies          
20111031 035290105 US0352901054 AXE      NYSE         ANIXTER INTERNATIONAL         14058     825104.81  0.150092 01 Technology                     0140 Telecommunication                                0140448 Communications Technology                        
20111031 037347101 US0373471012 ANH      NYSE         ANWORTH MORTGAGE ASSET       126533     816137.85  0.148460 10 Financial Services             1050 Real Estate                                      1050806 Real Estate Investment Trusts (REITs)            
20111031 03739T108 US03739T1088 AONE     NASDAQ       A123 SYSTEMS INC              72492     248647.00  0.045230 08 Producer Durables              0830 Scientific Instruments & Services                0830465 Scientific Instruments: Electrical               
20111031 037598109 US0375981091 APOG     NASDAQ       APOGEE ENTERPRISES INC        28080     306633.60  0.055779 07 Materials & Processing         0730 Industrial Materials & Processes                 0730502 Glass                                            
20111031 03761U106 US03761U1060 AINV     NASDAQ       APOLLO INVESTMENT CORP       195914    1622167.92  0.295082 10 Financial Services             1040 Investment Banking & Brokerage Services          1040544 Asset Management & Custodian                     
20111031 03762U105 US03762U1051 ARI      NYSE         APOLLO COMMERCIAL RE          20561     288059.61  0.052400 10 Financial Services             1050 Real Estate                                      1050806 Real Estate Investment Trusts (REITs)            
20111031 03763V102 US03763V1026 AMTG     NYSE         APOLLO RESIDENTIAL MTG         4370      71274.70  0.012965 10 Financial Services             1020 Consumer Finance & Credit Services               1020487 Commercial Finance & Mortgage Co                 
20111031 03822W406 US03822W4069 AMCC     NASDAQ       APPLIED MICRO CIRCUITS         9820      66193.24  0.012041 01 Technology                     0120 Electronics                                      0120476 Semiconductors & Components                      
20111031 03834A103 US03834A1034 AREX     NASDAQ       APPROACH RESOURCES INC         6346     154912.57  0.028180 06 Energy                         0620 Non-Renewable Energy                             0620670 Oil: Crude Producers                             
20111031 03956P102 US03956P1021 ARCL     NASDAQ       ARCHIPELAGO LEARNING INC       5459      55628.03  0.010119 03 Consumer Discretionary         0330 Consumer Services                                0330461 Education Services                               
20111031 039670104 US0396701049 ACAT     NASDAQ       ARCTIC CAT INC                12134     246441.54  0.044829 03 Consumer Discretionary         0340 Leisure                                          0340804 Recreational Vehicles & Boats                    
20111031 039762109 US0397621097 ARDNA    NASDAQ       ARDEN GROUP INC                 481      43691.74  0.007948 04 Consumer Staples               0420 Personal Care/Drug & Grocery Stores              0420459 Drug & Grocery Store Chains                      
20111031 040047102 US0400471027 ARNA     NASDAQ       ARENA PHARMACEUTICALS        134807     190076.54  0.034576 02 Health Care                    0230 Pharmaceuticals & Biotech                        0230412 Biotechnology                                    
20111031 04010E109 US04010E1091 AGX      NYSE AMEX    ARGAN INC                      6466      87929.10  0.015995 08 Producer Durables              0850 Commercial Services                              0850479 Engineering & Contracting Services               
20111031 040790107 US0407901075 ABFS     NASDAQ       ARKANSAS BEST CORP            25422     523693.20  0.095263 08 Producer Durables              0840 Transportation & Freight                         0840865 Truckers                                         
20111031 041356205 US0413562051 AI       NYSE         ARLINGTON ASSET INVT           6434     148496.72  0.027012 10 Financial Services             1040 Investment Banking & Brokerage Services          1040544 Asset Management & Custodian                     
20111031 042315101 US0423151010 ARR      NYSE         ARMOUR RESIDENTIAL REIT       76565     547439.75  0.099583 10 Financial Services             1050 Real Estate                                      1050806 Real Estate Investment Trusts (REITs)            
20111031 04269Q100 US04269Q1004 ARRS     NASDAQ       ARRIS GROUP INC              123769    1331754.44  0.242254 01 Technology                     0140 Telecommunication                                0140849 Telecommunications Equipment                     
20111031 04269X105 US04269X1054 ARRY     NASDAQ       ARRAY BIOPHARMA INC           31818      76679.36  0.013948 02 Health Care                    0230 Pharmaceuticals & Biotech                        0230412 Biotechnology                                    
20111031 042744102 US0427441029 AROW     NASDAQ       ARROW FINANCIAL CORP           9590     223821.31  0.040714 10 Financial Services             1010 Banks                                            1010400 Banks: Diversified                               
20111031 043113208 US0431132085 ARTNA    NASDAQ       ARTESIAN RESOURCES CORP        6502     118336.40  0.021526 11 Utilities                      1110 Utilities                                        1110882 Utilities: Water                                 
20111031 04315B107 US04315B1070 ART      NYSE         ARTIO GLOBAL INVESTORS         2439      17860.77  0.003249 10 Financial Services             1040 Investment Banking & Brokerage Services          1040544 Asset Management & Custodian                     
20111031 043436104 US0434361046 ABG      NYSE         ASBURY AUTOMOTIVE GROUP       29192     544430.80  0.099035 03 Consumer Discretionary         0360 Retail                                           0360834 Specialty Retail                                 
20111031 043632108 US0436321089 ASCMA    NASDAQ       ASCENT CAPITAL GROUP INC      14398     654965.02  0.119142 03 Consumer Discretionary         0350 Media                                            0350480 Entertainment                                    
20111031 044103109 US0441031095 AHT      NYSE         ASHFORD HOSPITALITY           52190     464491.00  0.084494 10 Financial Services             1050 Real Estate                                      1050806 Real Estate Investment Trusts (REITs)            
20111031 04544X300 US04544X3008 ALC      NYSE         ASSISTED LIVING CONCPT        19538     277634.98  0.050503 02 Health Care                    0210 Health Care Services                             0210504 Health Care Facilities                           
20111031 045604105 US0456041054 AEC      NYSE         ASSOCIATED ESTATES RLTY       39298     667270.60  0.121381 10 Financial Services             1050 Real Estate                                      1050806 Real Estate Investment Trusts (REITs)            
20111031 046224101 US0462241011 ASTE     NASDAQ       ASTEC INDUSTRIES INC          19938     662938.50  0.120593 08 Producer Durables              0810 Machinery                                        0810577 Machinery: Construction & Handling               
20111031 04624B103 US04624B1035 ASTX     NASDAQ       ASTEX PHARMACEUTICALS         52499     101321.45  0.018431 02 Health Care                    0230 Pharmaceuticals & Biotech                        0230460 Pharmaceuticals                                  
20111031 046265104 US0462651045 AF       NYSE         ASTORIA FINANCIAL CORP        86969     721842.70  0.131308 10 Financial Services             1010 Banks                                            1010820 Banks: Savings/Thrifts & Mortgage Lend           
20111031 04878Q863 CA04878Q8636 AT       NYSE         ATLANTIC PWR CORP             63324     854868.17  0.155506 11 Utilities                      1110 Utilities                                        1110870 Utilities: Electrical                            
20111031 049079205 US0490792050 ATNI     NASDAQ       ATLANTIC TELE-NETWORK          7190     272855.11  0.049634 11 Utilities                      1110 Utilities                                        1110880 Utilities: Telecommunications                    
20111031 049164205 US0491642056 AAWW     NASDAQ       ATLAS AIR WORLDWIDE HLDG      26265    1011727.80  0.184039 08 Producer Durables              0840 Transportation & Freight                         0840310 Air Transport                                    
20111031 050757103 US0507571034 VOXX     NASDAQ       AUDIOVOX CORP                 18043     128285.73  0.023336 03 Consumer Discretionary         0320 Consumer Products                                0320451 Consumer Electronics                             
20111031 05348P401 US05348P4019 AVNR     NASDAQ       AVANIR PHARMACEUTICALS        12657      37846.49  0.006885 02 Health Care                    0230 Pharmaceuticals & Biotech                        0230460 Pharmaceuticals                                  
20111031 053494100 US0534941002 AVTR     NASDAQ       AVATAR HOLDINGS INC            8927      84806.50  0.015427 10 Financial Services             1050 Real Estate                                      1050805 Real Estate                                      
20111031 05366Y102 US05366Y1029 AVNW     NASDAQ       AVIAT NETWORKS INC            60615     124260.75  0.022604 01 Technology                     0140 Telecommunication                                0140448 Communications Technology                        
20111031 05367P100 US05367P1003 AVID     NASDAQ       AVID TECHNOLOGY INC           29624     183668.80  0.033410 01 Technology                     0130 Information Technology                           0130439 Computer Services Software & Systems             
20111031 05379B107 US05379B1070 AVA      NYSE         AVISTA CORP                   57629    1466658.05  0.266794 11 Utilities                      1110 Utilities                                        1110870 Utilities: Electrical                            
20111031 054540109 US0545401095 ACLS     NASDAQ       AXCELIS TECHNOLOGIES INC     106096     148534.40  0.027019 01 Technology                     0120 Electronics                                      0120738 Production Technology Equipment                  
20111031 05508R106 US05508R1068 BGS      NYSE         B & G FOODS INC               20453     434019.03  0.078951 04 Consumer Staples               0410 Food/Beverage & Tobacco                          0410494 Foods                                            
20111031 055639108 US0556391086 BPZ      NYSE         BPZ RESOURCES INC             77391     231396.95  0.042093 06 Energy                         0620 Non-Renewable Energy                             0620670 Oil: Crude Producers                             
20111031 05566U108 US05566U1088 BOFI     NASDAQ       BOFI HLDG INC                  8355     127822.32  0.023252 10 Financial Services             1010 Banks                                            1010820 Banks: Savings/Thrifts & Mortgage Lend           
20111031 056525108 US0565251081 BMI      NYSE         BADGER METER INC               2514      82308.95  0.014973 08 Producer Durables              0830 Scientific Instruments & Services                0830474 Scientific Instruments: Gauges & Meters          
20111031 057149106 US0571491069 BKR      NYSE AMEX    BAKER MICHAEL CORP             8358     172007.64  0.031289 08 Producer Durables              0850 Commercial Services                              0850479 Engineering & Contracting Services               
20111031 057755209 US0577552096 BWINB    NASDAQ       BALDWIN & LYONS INC            8363     192599.89  0.035035 10 Financial Services             1030 Insurance                                        1030542 Insurance: Property-Casualty                     
20111031 05945F103 US05945F1030 BANF     NASDAQ       BANCFIRST CORP                 6725     260257.50  0.047342 10 Financial Services             1010 Banks                                            1010400 Banks: Diversified                               
20111031 059690107 US0596901076 BARI     NASDAQ       BANCORP RHODE ISLAND INC       3718     162104.80  0.029488 10 Financial Services             1010 Banks                                            1010400 Banks: Diversified                               
20111031 059692103 US0596921033 BXS      NYSE         BANCORPSOUTH INC              83487     815667.99  0.148375 10 Financial Services             1010 Banks                                            1010400 Banks: Diversified                               
20111031 05969A105 US05969A1051 TBBK     NASDAQ       BANCORP INC                   29245     235129.80  0.042772 10 Financial Services             1010 Banks                                            1010400 Banks: Diversified                               
20111031 062896105 US0628961056 BKYF     NASDAQ       BANK KY FINL CORP              5759     124394.40  0.022628 10 Financial Services             1010 Banks                                            1010400 Banks: Diversified                               
20111031 063425102 US0634251021 BMRC     NASDAQ       BANK OF MARIN BANCORP          5320     188540.80  0.034297 10 Financial Services             1010 Banks                                            1010400 Banks: Diversified                               
20111031 063750103 US0637501034 BKMU     NASDAQ       BANK MUTUAL CORP              45990     153146.70  0.027858 10 Financial Services             1010 Banks                                            1010820 Banks: Savings/Thrifts & Mortgage Lend           
20111031 063904106 US0639041062 OZRK     NASDAQ       BANK OF THE OZARKS INC        24228     602546.93  0.109607 10 Financial Services             1010 Banks                                            1010400 Banks: Diversified                               
20111031 06643P104 US06643P1049 BFIN     NASDAQ       BANKFINANCIAL CORP            21073     168584.00  0.030666 10 Financial Services             1010 Banks                                            1010820 Banks: Savings/Thrifts & Mortgage Lend           
20111031 06647F102 US06647F1021 RATE     NYSE         BANKRATE INC                   6116     119086.39  0.021663 01 Technology                     0130 Information Technology                           0130439 Computer Services Software & Systems             
20111031 06652V208 US06652V2088 BANR     NASDAQ       BANNER CORP                   16531     290449.67  0.052835 10 Financial Services             1010 Banks                                            1010400 Banks: Diversified                               
20111031 067774109 US0677741094 BKS      NYSE         BARNES & NOBLE INC            29039     356308.53  0.064815 03 Consumer Discretionary         0360 Retail                                           0360834 Specialty Retail                                 
20111031 067806109 US0678061096 B        NYSE         BARNES GROUP INC              54456    1267191.12  0.230510 08 Producer Durables              0820 Manufacturing & Production                       0820453 Diversified Manufacturing Operations             
20111031 068463108 US0684631080 BBSI     NASDAQ       BARRETT BUSINESS SERVICE       7609     120754.83  0.021966 08 Producer Durables              0850 Commercial Services                              0850365 Back Office Support HR & Consutling              
20111031 06846N104 US06846N1046 BBG      NYSE         BILL BARRETT CORP             43606    1813984.97  0.329975 06 Energy                         0620 Non-Renewable Energy                             0620670 Oil: Crude Producers                             
20111031 068798107 US0687981078 DFZ      NASDAQ       BARRY R G CORP OHIO            7777      86398.75  0.015716 03 Consumer Discretionary         0320 Consumer Products                                0320850 Textiles Apparel & Shoes                         
20111031 07556Q105 US07556Q1058 BZH      NYSE         BEAZER HOMES USA INC          76189     163806.35  0.029797 03 Consumer Discretionary         0320 Consumer Products                                0320501 Homebuilding                                     
20111031 075571109 US0755711092 BEBE     NASDAQ       BEBE STORES INC               38417     275834.06  0.050176 03 Consumer Discretionary         0360 Retail                                           0360834 Specialty Retail                                 
20111031 077347300 US0773473006 BELFB    NASDAQ       BEL FUSE INC                  10513     187972.44  0.034193 01 Technology                     0140 Telecommunication                                0140448 Communications Technology                        
20111031 077454106 US0774541066 BDC      NYSE         BELDEN INC                     6727     217160.21  0.039503 07 Materials & Processing         0730 Industrial Materials & Processes                 0730452 Diversified Materials & Processing               
20111031 080555105 US0805551050 BLC      NYSE         BELO CORP                     65276     413845.05  0.075281 03 Consumer Discretionary         0350 Media                                            0350438 Diversified Media                                
20111031 08160H101 US08160H1014 BHE      NYSE         BENCHMARK ELECTRONICS         60716     834237.84  0.151753 01 Technology                     0120 Electronics                                      0120643 Technology: Misc                                 
20111031 08173R104 US08173R1041 BNCL     NASDAQ       BENEFICIAL MUTUAL INC         33255     273023.55  0.049665 10 Financial Services             1010 Banks                                            1010820 Banks: Savings/Thrifts & Mortgage Lend           
20111031 082047200 US0820472001 BNHNA    NASDAQ       BENIHANA INC                  13321     128414.44  0.023359 03 Consumer Discretionary         0340 Leisure                                          0340810 Restaurants                                      
20111031 084680107 US0846801076 BHLB     NASDAQ       BERKSHIRE HILLS BANCORP       20735     415114.70  0.075512 10 Financial Services             1010 Banks                                            1010820 Banks: Savings/Thrifts & Mortgage Lend           
20111031 08861T107 US08861T1079 BGMD     NASDAQ       BG MEDICINE INC                 959       4693.79  0.000854 02 Health Care                    0230 Pharmaceuticals & Biotech                        0230412 Biotechnology                                    
20111031 08915P101 US08915P1012 BGFV     NASDAQ       BIG 5 SPORTING GOODS          21984     169936.32  0.030912 03 Consumer Discretionary         0360 Retail                                           0360834 Specialty Retail                                 
20111031 089750509 US0897505097 BBND     NASDAQ       BIGBAND NETWORKS INC          43793      98096.32  0.017844 01 Technology                     0140 Telecommunication                                0140448 Communications Technology                        
20111031 08986R101 US08986R1014 BH       NYSE         BIGLARI HOLDINGS INC           1098     378860.66  0.068917 03 Consumer Discretionary         0340 Leisure                                          0340810 Restaurants                                      
20111031 09063H107 US09063H1077 BMR      NYSE         BIOMED REALTY TRUST INC      131249    2376919.39  0.432376 10 Financial Services             1050 Real Estate                                      1050806 Real Estate Investment Trusts (REITs)            
20111031 09064X101 US09064X1019 BMTI     NASDAQ       BIOMIMETIC THERAPEUTICS       11423      37009.90  0.006732 02 Health Care                    0230 Pharmaceuticals & Biotech                        0230412 Biotechnology                                    
20111031 09069N108 US09069N1081 BIOS     NASDAQ       BIOSCRIP INC                   9849      64021.10  0.011646 02 Health Care                    0210 Health Care Services                             0210503 Health Care Management Services                  
20111031 090911108 US0909111082 BLTI     NASDAQ       BIOLASE TECHNOLOGY INC        23301      84814.55  0.015428 02 Health Care                    0220 Medical Equipment & Services                     0220507 Medical & Dental Instruments & Supplies          
20111031 091826107 US0918261076 BBOX     NASDAQ       BLACK BOX CORP                17971     503008.29  0.091500 01 Technology                     0140 Telecommunication                                0140448 Communications Technology                        
20111031 09202G101 US09202G1013 BDE      NASDAQ       BLACK DIAMOND INC             13238     114243.94  0.020782 03 Consumer Discretionary         0340 Leisure                                          0340556 Leisure Time                                     
20111031 092113109 US0921131092 BKH      NYSE         BLACK HILLS CORP              39409    1328477.39  0.241658 11 Utilities                      1110 Utilities                                        1110870 Utilities: Electrical                            
20111031 092533108 US0925331086 BKCC     NASDAQ       BLACKROCK KELSO CAP CORP      73013     623531.02  0.113424 10 Financial Services             1040 Investment Banking & Brokerage Services          1040544 Asset Management & Custodian                     
20111031 09534T508 US09534T5083 BCSI     NASDAQ       BLUE COAT SYSTEMS INC         27273     439089.17  0.079873 01 Technology                     0130 Information Technology                           0130439 Computer Services Software & Systems             
20111031 09643P207 US09643P2074 BTH      NYSE         BLYTH INC                      5193     289925.19  0.052739 03 Consumer Discretionary         0320 Consumer Products                                0320521 Household Equip & Products                       
20111031 096761101 US0967611015 BOBE     NASDAQ       BOB EVANS FARMS INC           30304     997001.60  0.181361 03 Consumer Discretionary         0340 Leisure                                          0340810 Restaurants                                      
20111031 09739C102 US09739C1027 WIFI     NASDAQ       BOINGO WIRELESS INC            1514      11582.80  0.002107 11 Utilities                      1110 Utilities                                        1110880 Utilities: Telecommunications                    
20111031 09746Y105 US09746Y1055 BZ       NYSE         BOISE INC                    104274     630857.70  0.114757 07 Materials & Processing         0730 Industrial Materials & Processes                 0730720 Paper                                            
20111031 09776J101 US09776J1016 BONT     NASDAQ       BON-TON STORES INC            12347      65192.16  0.011859 03 Consumer Discretionary         0360 Retail                                           0360815 Diversified Retail                               
20111031 101119105 US1011191053 BPFH     NASDAQ       BOSTON PRIVATE FINANCIAL      76998     583644.84  0.106169 10 Financial Services             1010 Banks                                            1010400 Banks: Diversified                               
20111031 103304101 US1033041013 BYD      NYSE         BOYD GAMING CORP              54782     354987.36  0.064574 03 Consumer Discretionary         0340 Leisure                                          0340434 Casinos & Gambling                               
20111031 104674106 US1046741062 BRC      NYSE         BRADY CORP                    43453    1334858.80  0.242819 08 Producer Durables              0830 Scientific Instruments & Services                0830524 Scientific Instruments: Control & Filter         
20111031 108030107 US1080301070 BBNK     NASDAQ       BRIDGE CAPITAL HOLDINGS        9145     100869.35  0.018349 10 Financial Services             1010 Banks                                            1010400 Banks: Diversified                               
20111031 108035106 US1080351067 BDGE     NASDAQ       BRIDGE BANCORP INC             4431      85283.54  0.015514 10 Financial Services             1010 Banks                                            1010400 Banks: Diversified                               
20111031 109043109 US1090431099 BGG      NYSE         BRIGGS & STRATTON CO          50429     736263.40  0.133931 08 Producer Durables              0810 Machinery                                        0810579 Machinery: Engines                               
20111031 109473405 US1094734050 CELL     NASDAQ       BRIGHTPOINT INC               38462     390383.37  0.071013 01 Technology                     0140 Telecommunication                                0140849 Telecommunications Equipment                     
20111031 109696104 US1096961040 BCO      NYSE         BRINKS CO                      6254     173811.17  0.031617 08 Producer Durables              0850 Commercial Services                              0850484 Environmental Maint & Security Service           
20111031 110394103 US1103941035 BRS      NYSE         BRISTOW GROUP INC             36318    1807910.04  0.328870 08 Producer Durables              0840 Transportation & Freight                         0840310 Air Transport                                    
20111031 11161T108 US11161T1088 BWEN     NASDAQ       BROADWIND ENERGY INC         103385      42439.40  0.007720 08 Producer Durables              0830 Scientific Instruments & Services                0830465 Scientific Instruments: Electrical               
20111031 11373M107 US11373M1071 BRKL     NASDAQ       BROOKLINE BANCORP INC         59072     493841.92  0.089833 10 Financial Services             1010 Banks                                            1010820 Banks: Savings/Thrifts & Mortgage Lend           
20111031 114340102 US1143401024 BRKS     NASDAQ       BROOKS AUTOMATION INC         66146     691225.70  0.125738 01 Technology                     0120 Electronics                                      0120738 Production Technology Equipment                  
20111031 115736100 US1157361007 BWS      NYSE         BROWN SHOE INC                41971     373961.61  0.068026 03 Consumer Discretionary         0360 Retail                                           0360834 Specialty Retail                                 
20111031 117665109 US1176651099 BMTC     NASDAQ       BRYN MAWR BANK CORP            8068     148127.30  0.026945 10 Financial Services             1010 Banks                                            1010400 Banks: Diversified                               
20111031 118255108 US1182551085 BKI      NYSE         BUCKEYE TECHNOLOGIES INC      39892    1206334.08  0.219440 07 Materials & Processing         0730 Industrial Materials & Processes                 0730720 Paper                                            
20111031 120076104 US1200761047 BBW      NYSE         BUILD A BEAR WORKSHOP         16630     108926.50  0.019814 03 Consumer Discretionary         0360 Retail                                           0360834 Specialty Retail                                 
20111031 12008R107 US12008R1077 BLDR     NASDAQ       BUILDERS FIRSTSOURCE INC      45480      74132.40  0.013485 07 Materials & Processing         0710 Building Materials & Services                    0710430 Building Materials                               
20111031 12467B304 US12467B3042 CJES     NYSE         C&J ENERGY SERVICES INC        5709      96257.13  0.017510 06 Energy                         0610 Energy Equipment & Services                      0610600 Oil Well Equipment & Services                    
20111031 12477X106 US12477X1063 CAP      NYSE         CAI INTERNATIONAL INC           641      10008.21  0.001821 08 Producer Durables              0840 Transportation & Freight                         0840808 Commercial Services: Rental & Leasing            
20111031 124805102 US1248051021 CBZ      NYSE         CBIZ INC                      39414     249490.62  0.045384 08 Producer Durables              0850 Commercial Services                              0850365 Back Office Support HR & Consutling              
20111031 124830100 US1248301004 CBL      NYSE         CBL & ASSOC PPTYS INC        102074    1569894.18  0.285573 10 Financial Services             1050 Real Estate                                      1050806 Real Estate Investment Trusts (REITs)            
20111031 125071100 US1250711009 CDI      NYSE         CDI CORP                      10965     143965.72  0.026188 08 Producer Durables              0850 Commercial Services                              0850365 Back Office Support HR & Consutling              
20111031 12541M102 US12541M1027 CHG      NYSE         CH ENERGY GROUP INC           15542     858073.82  0.156089 11 Utilities                      1110 Utilities                                        1110870 Utilities: Electrical                            
20111031 12547R105 US12547R1059 DFR      NASDAQ       CIFC CORP                     11849      65643.46  0.011941 10 Financial Services             1040 Investment Banking & Brokerage Services          1040544 Asset Management & Custodian                     
20111031 12561W105 US12561W1053 CNL      NYSE         CLECO CORP                    60979    2248295.73  0.408979 11 Utilities                      1110 Utilities                                        1110870 Utilities: Electrical                            
20111031 125906107 US1259061075 CSS      NYSE         CSS INDUSTRIES INC             8107     170895.56  0.031087 03 Consumer Discretionary         0320 Consumer Products                                0320521 Household Equip & Products                       
20111031 126128107 US1261281075 CCNE     NASDAQ       CNB FINL CORP PA              12289     175978.48  0.032012 10 Financial Services             1010 Banks                                            1010400 Banks: Diversified                               
20111031 12618T105 US12618T1051 CRAI     NASDAQ       CRA INTERNATIONAL INC          8938     172680.77  0.031412 08 Producer Durables              0850 Commercial Services                              0850365 Back Office Support HR & Consutling              
20111031 12621E103 US12621E1038 CNO      NYSE         CNO FINANCIAL GROUP          221757    1385981.25  0.252118 10 Financial Services             1030 Insurance                                        1030528 Insurance: Life                                  
20111031 126349109 US1263491094 CSGS     NASDAQ       CSG SYSTEMS INTL INC          17997     256265.32  0.046616 01 Technology                     0130 Information Technology                           0130439 Computer Services Software & Systems             
20111031 126501105 US1265011056 CTS      NYSE         CTS CORP                      34329     318573.12  0.057950 01 Technology                     0120 Electronics                                      0120643 Technology: Misc                                 
20111031 126600105 US1266001056 CVBF     NASDAQ       CVB FINANCIAL CORP            89319     867287.49  0.157765 10 Financial Services             1010 Banks                                            1010400 Banks: Diversified                               
20111031 12673A108 US12673A1088 CYS      NYSE         CYS INVESTMENTS INC           82567    1046949.56  0.190447 10 Financial Services             1050 Real Estate                                      1050806 Real Estate Investment Trusts (REITs)            
20111031 126804301 US1268043015 CAB      NYSE         CABELAS INC                   43261    1078064.12  0.196106 03 Consumer Discretionary         0360 Retail                                           0360834 Specialty Retail                                 
20111031 12709P103 US12709P1030 CCMP     NASDAQ       CABOT MICROELECTRONICS        18131     698370.10  0.127038 07 Materials & Processing         0730 Industrial Materials & Processes                 0730452 Diversified Materials & Processing               
20111031 127190304 US1271903049 CACI     NYSE         CACI INTERNATIONAL INC        27975    1535546.49  0.279325 01 Technology                     0130 Information Technology                           0130439 Computer Services Software & Systems             
20111031 127537207 US1275372076 CDZI     NASDAQ       CADIZ INC                     12057     115867.77  0.021077 04 Consumer Staples               0410 Food/Beverage & Tobacco                          0410305 Agriculture Fishing & Ranching                   
20111031 12802T101 US12802T1016 DVR      NYSE         CAL DIVE INTL INC             36634      82061.84  0.014928 06 Energy                         0610 Energy Equipment & Services                      0610600 Oil Well Equipment & Services                    
20111031 128030202 US1280302027 CALM     NASDAQ       CAL MAINE FOODS INC           13339     444444.65  0.080847 04 Consumer Staples               0410 Food/Beverage & Tobacco                          0410305 Agriculture Fishing & Ranching                   
20111031 12811R104 US12811R1041 CLMS     NASDAQ       CALAMOS ASSET MGMT INC        18967     236897.83  0.043093 10 Financial Services             1040 Investment Banking & Brokerage Services          1040544 Asset Management & Custodian                     
20111031 129603106 US1296031065 CCC      NYSE         CALGON CARBON CORP            11519     183738.83  0.033423 07 Materials & Processing         0720 Chemicals and Synthetics                         0720833 Chemicals: Specialty                             
20111031 130222102 US1302221023 CFNB     NASDAQ       CALIFORNIA FIRST NATL          2031      33856.77  0.006159 10 Financial Services             1010 Banks                                            1010400 Banks: Diversified                               
20111031 130788102 US1307881029 CWT      NYSE         CALIFORNIA WTR SVC GRP        41752     775334.64  0.141038 11 Utilities                      1110 Utilities                                        1110882 Utilities: Water                                 
20111031 131193104 US1311931042 ELY      NYSE         CALLAWAY GOLF CO              64411     374227.91  0.068074 03 Consumer Discretionary         0340 Leisure                                          0340556 Leisure Time                                     
20111031 131745101 US1317451011 CAK      NYSE AMEX    CAMAC ENERGY INC              58659      65111.49  0.011844 06 Energy                         0620 Non-Renewable Energy                             0620670 Oil: Crude Producers                             
20111031 132011107 US1320111073 CBM      NYSE         CAMBREX CORP                  29419     162098.69  0.029487 02 Health Care                    0230 Pharmaceuticals & Biotech                        0230460 Pharmaceuticals                                  
20111031 13201A107 US13201A1079 ABCD     NASDAQ       CAMBIUM LEARNING GRP INC      16511      54486.30  0.009911 03 Consumer Discretionary         0330 Consumer Services                                0330461 Education Services                               
20111031 133034108 US1330341082 CAC      NASDAQ       CAMDEN NATIONAL CORP           7678     227883.04  0.041453 10 Financial Services             1010 Banks                                            1010400 Banks: Diversified                               
20111031 13466Y105 US13466Y1055 CCG      NYSE         CAMPUS CREST CMNTYS INC       30589     349632.27  0.063600 10 Financial Services             1050 Real Estate                                      1050806 Real Estate Investment Trusts (REITs)            
20111031 138098108 US1380981084 CMN      NYSE         CANTEL MEDICAL CORP           13192     364099.20  0.066232 02 Health Care                    0220 Medical Equipment & Services                     0220507 Medical & Dental Instruments & Supplies          
20111031 139209100 US1392091005 CBNJ     NASDAQ       CAPE BANCORP INC              11476      87217.60  0.015865 10 Financial Services             1010 Banks                                            1010400 Banks: Diversified                               
20111031 139674105 US1396741050 CCBG     NASDAQ       CAPITAL CITY BANK GROUP       11423     116400.37  0.021174 10 Financial Services             1010 Banks                                            1010400 Banks: Diversified                               
20111031 139793103 US1397931031 CBKN     NASDAQ       CAPITAL BK CORP               13985      29368.50  0.005342 10 Financial Services             1010 Banks                                            1010400 Banks: Diversified                               
20111031 140288101 US1402881015 LSE      NYSE         CAPLEASE INC                  68056     266098.96  0.048405 10 Financial Services             1050 Real Estate                                      1050806 Real Estate Investment Trusts (REITs)            
20111031 140475104 US1404751042 CSU      NYSE         CAPITAL SENIOR LIVING         18621     145425.48  0.026454 02 Health Care                    0210 Health Care Services                             0210504 Health Care Facilities                           
20111031 140501107 US1405011073 CSWC     NASDAQ       CAPITAL SOUTHWEST CORP         2931     257957.31  0.046924 10 Financial Services             1040 Investment Banking & Brokerage Services          1040544 Asset Management & Custodian                     
20111031 14067E506 US14067E5069 CMO      NYSE         CAPSTEAD MORTGAGE CORP        84396    1022879.52  0.186068 10 Financial Services             1050 Real Estate                                      1050806 Real Estate Investment Trusts (REITs)            
20111031 141337105 US1413371055 CARB     NASDAQ       CARBONITE INC                  1911      24126.18  0.004389 01 Technology                     0130 Information Technology                           0130439 Computer Services Software & Systems             
20111031 14149F109 US14149F1093 CFNL     NASDAQ       CARDINAL FINANCIAL CORP       28932     310729.68  0.056524 10 Financial Services             1010 Banks                                            1010400 Banks: Diversified                               
20111031 14159L103 US14159L1035 BEAT     NASDAQ       CARDIONET INC                 18128      51300.99  0.009332 02 Health Care                    0210 Health Care Services                             0210499 Health Care Services                             
20111031 142042209 US1420422099 CBOU     NASDAQ       CARIBOU COFFEE CO INC          6922      94483.99  0.017187 03 Consumer Discretionary         0340 Leisure                                          0340810 Restaurants                                      
20111031 146229109 US1462291097 CRI      NYSE         CARTER INC                     6635     252757.24  0.045978 03 Consumer Discretionary         0320 Consumer Products                                0320850 Textiles Apparel & Shoes                         
20111031 147154207 US1471542076 CACB     NASDAQ       CASCADE BANCORP                5998      31729.42  0.005772 10 Financial Services             1010 Banks                                            1010400 Banks: Diversified                               
20111031 147195101 US1471951012 CASC     NYSE         CASCADE CORP                   8686     374348.33  0.068096 08 Producer Durables              0810 Machinery                                        0810610 Machinery: Specialty                             
20111031 147448104 US1474481041 CWST     NASDAQ       CASELLA WASTE SYSTEMS          3341      20986.78  0.003818 03 Consumer Discretionary         0330 Consumer Services                                0330736 Printing and Copying Services                    
20111031 14754D100 US14754D1000 CSH      NYSE         CASH AMERICA INTL INC         19550    1070344.43  0.194702 10 Financial Services             1020 Consumer Finance & Credit Services               1020492 Consumer Lending                                 
20111031 148411101 US1484111018 CAS      NYSE         CASTLE A M & CO               16713     228800.97  0.041620 08 Producer Durables              0820 Manufacturing & Production                       0820453 Diversified Manufacturing Operations             
20111031 148711302 US1487113029 CMRG     NASDAQ       CASUAL MALE RETAIL GROUP      42134     174856.10  0.031807 03 Consumer Discretionary         0360 Retail                                           0360834 Specialty Retail                                 
20111031 149150104 US1491501045 CATY     NASDAQ       CATHAY GENERAL BANCORP        78634    1100089.66  0.200113 10 Financial Services             1010 Banks                                            1010400 Banks: Diversified                               
20111031 149568107 US1495681074 CVCO     NASDAQ       CAVCO INDUSTRIES INC           6818     307014.54  0.055848 03 Consumer Discretionary         0320 Consumer Products                                0320640 Manufactured Housing                             
20111031 150602209 US1506022094 CDR      NYSE         CEDAR SHOPPING CTRS INC       56065     205758.55  0.037429 10 Financial Services             1050 Real Estate                                      1050806 Real Estate Investment Trusts (REITs)            
20111031 150838100 US1508381001 CGI      NYSE         CELADON GROUP INC              7463      82168.33  0.014947 08 Producer Durables              0840 Transportation & Freight                         0840865 Truckers                                         
20111031 150934602 US1509346029 CTIC     NASDAQ       CELL THERAPEUTICS INC         24109      30860.32  0.005614 02 Health Care                    0230 Pharmaceuticals & Biotech                        0230412 Biotechnology                                    
20111031 15117B103 US15117B1035 CLDX     NASDAQ       CELLDEX THERAPEUTICS INC      37776     121258.65  0.022058 02 Health Care                    0230 Pharmaceuticals & Biotech                        0230412 Biotechnology                                    
20111031 15135B101 US15135B1017 CNC      NYSE         CENTENE CORP                  18740     658719.79  0.119825 02 Health Care                    0210 Health Care Services                             0210503 Health Care Management Services                  
20111031 151408101 US1514081017 CNBC     NASDAQ       CENTER BANCORP INC            12087     112167.36  0.020404 10 Financial Services             1010 Banks                                            1010400 Banks: Diversified                               
20111031 15146E102 US15146E1029 CLFC     NASDAQ       CENTER FINANCIAL CORP         35642     234167.94  0.042597 10 Financial Services             1010 Banks                                            1010400 Banks: Diversified                               
20111031 15201P109 US15201P1093 CSFL     NASDAQ       CENTERSTATE BANKS INC         30035     170598.80  0.031033 10 Financial Services             1010 Banks                                            1010400 Banks: Diversified                               
20111031 153435102 US1534351028 CEDC     NASDAQ       CENTRAL EUROPEAN DISTRIB      72723     392704.20  0.071435 04 Consumer Staples               0410 Food/Beverage & Tobacco                          0410405 Beverage: Brewers & Distillers                   
20111031 153527205 US1535272058 CENTA    NASDAQ       CENTRAL GARDEN & PET CO       47364     416329.56  0.075733 03 Consumer Discretionary         0320 Consumer Products                                0320521 Household Equip & Products                       
20111031 154760409 US1547604090 CPF      NYSE         CENTRAL PACIFIC FINL          15359     187226.21  0.034058 10 Financial Services             1010 Banks                                            1010400 Banks: Diversified                               
20111031 155771108 US1557711082 CV       NYSE         CENTRAL VERMONT PUB SVC       13398     473887.26  0.086203 11 Utilities                      1110 Utilities                                        1110870 Utilities: Electrical                            
20111031 156431108 US1564311082 CENX     NASDAQ       CENTURY ALUMINUM CO           51574     575565.84  0.104699 07 Materials & Processing         0740 Metals & Minerals                                0740320 Aluminum                                         
20111031 156432106 US1564321065 CNBKA    NASDAQ       CENTURY BANCORP INC            3446      93283.22  0.016969 10 Financial Services             1010 Banks                                            1010400 Banks: Diversified                               
20111031 15670S105 US15670S1050 CVO      NYSE         CENVEO INC                    25825      96845.57  0.017617 03 Consumer Discretionary         0330 Consumer Services                                0330736 Printing and Copying Services                    
20111031 156710105 US1567101050 CRDN     NASDAQ       CERADYNE INC                  24893     832919.78  0.151513 08 Producer Durables              0840 Transportation & Freight                         0840300 Aerospace                                        
20111031 157085101 US1570851014 CERS     NASDAQ       CERUS CORP                     6949      18555.43  0.003375 02 Health Care                    0220 Medical Equipment & Services                     0220507 Medical & Dental Instruments & Supplies          
20111031 161133103 US1611331034 CHRS     NASDAQ       CHARMING SHOPPES INC         116239     403349.33  0.073372 03 Consumer Discretionary         0360 Retail                                           0360834 Specialty Retail                                 
20111031 16122M100 US16122M1009 CHFN     NASDAQ       CHARTER FINL CORP WEST         6796      63678.52  0.011584 10 Financial Services             1010 Banks                                            1010820 Banks: Savings/Thrifts & Mortgage Lend           
20111031 16150R104 US16150R1041 CCF      NYSE AMEX    CHASE CORP                     6404      89656.00  0.016309 07 Materials & Processing         0730 Industrial Materials & Processes                 0730714 Paints & Coatings                                
20111031 16208T102 US16208T1025 CLDT     NYSE         CHATHAM LODGING TR            13821     155486.25  0.028284 10 Financial Services             1050 Real Estate                                      1050806 Real Estate Investment Trusts (REITs)            
20111031 162825103 US1628251035 CKP      NYSE         CHECKPOINT SYSTEMS INC        40088     531166.00  0.096622 01 Technology                     0120 Electronics                                      0120463 Electronic Components                            
20111031 163086101 US1630861011 CHEF     NASDAQ       CHEFS' WHAREHOUSE INC          4491      64183.05  0.011675 04 Consumer Staples               0410 Food/Beverage & Tobacco                          0410494 Foods                                            
20111031 163731102 US1637311028 CHFC     NASDAQ       CHEMICAL FINANCIAL CORP       27451     552588.63  0.100519 10 Financial Services             1010 Banks                                            1010400 Banks: Diversified                               
20111031 163893209 US1638932095 CHMT     NYSE         CHEMTURA CORP                 37170     451246.91  0.082085 07 Materials & Processing         0720 Chemicals and Synthetics                         0720433 Chemicals: Diversified                           
20111031 16444H102 US16444H1023 CHKE     NASDAQ       CHEROKEE INC                   1105      14529.95  0.002643 03 Consumer Discretionary         0320 Consumer Products                                0320850 Textiles Apparel & Shoes                         
20111031 165240102 US1652401027 CHSP     NYSE         CHESAPEAKE LODGING TRUST      32156     480410.64  0.087390 10 Financial Services             1050 Real Estate                                      1050806 Real Estate Investment Trusts (REITs)            
20111031 165303108 US1653031088 CPK      NYSE         CHESAPEAKE UTILITIES           9551     404866.89  0.073648 11 Utilities                      1110 Utilities                                        1110875 Utilities: Gas Distributors                      
20111031 168905107 US1689051076 PLCE     NASDAQ       CHILDRENS PLACE RETAIL        26092    1225019.40  0.222839 03 Consumer Discretionary         0360 Retail                                           0360834 Specialty Retail                                 
20111031 169467107 US1694671074 CHDX     NASDAQ       CHINDEX INTERNATIONAL          6440      71548.24  0.013015 02 Health Care                    0210 Health Care Services                             0210499 Health Care Services                             
20111031 170032809 US1700328099 CQB      NYSE         CHIQUITA BRANDS INTL INC      45415     403285.20  0.073360 04 Consumer Staples               0410 Food/Beverage & Tobacco                          0410494 Foods                                            
20111031 171046105 US1710461054 CBK      NYSE         CHRISTOPHER & BANKS CORP      35793     119190.69  0.021682 03 Consumer Discretionary         0360 Retail                                           0360834 Specialty Retail                                 
20111031 171484108 US1714841087 CHDN     NASDAQ       CHURCHILL DOWNS INC            9232     443763.01  0.080723 03 Consumer Discretionary         0340 Leisure                                          0340556 Leisure Time                                     
20111031 17163B102 US17163B1026 CBR      NYSE         CIBER INC                     63946     222532.08  0.040480 01 Technology                     0130 Information Technology                           0130439 Computer Services Software & Systems             
20111031 171871106 US1718711062 CBB      NYSE         CINCINNATI BELL INC          141339     455111.51  0.082788 11 Utilities                      1110 Utilities                                        1110880 Utilities: Telecommunications                    
20111031 17243V102 US17243V1026 CNK      NYSE         CINEMARK HOLDINGS INC          8642     178649.88  0.032498 03 Consumer Discretionary         0350 Media                                            0350480 Entertainment                                    
20111031 17273K109 US17273K1097 CIR      NYSE         CIRCOR INTERNATIONAL INC       6376     222032.52  0.040389 08 Producer Durables              0830 Scientific Instruments & Services                0830524 Scientific Instruments: Control & Filter         
20111031 172922106 US1729221069 CZNC     NASDAQ       CITIZENS & NORTHERN CORP      12182     201855.74  0.036719 10 Financial Services             1010 Banks                                            1010400 Banks: Diversified                               
20111031 17306X102 US17306X1028 CTRN     NASDAQ       CITI TRENDS INC               14973     185515.47  0.033746 03 Consumer Discretionary         0360 Retail                                           0360834 Specialty Retail                                 
20111031 174740100 US1747401008 CIA      NYSE         CITIZENS INC                  37914     297245.76  0.054071 10 Financial Services             1030 Insurance                                        1030528 Insurance: Life                                  
20111031 177835105 US1778351056 CHCO     NASDAQ       CITY HOLDING CO               15239     500753.54  0.091090 10 Financial Services             1010 Banks                                            1010400 Banks: Diversified                               
20111031 179895107 US1798951075 CLC      NYSE         CLARCOR INC                    2520     122203.54  0.022230 07 Materials & Processing         0730 Industrial Materials & Processes                 0730452 Diversified Materials & Processing               
20111031 18538R103 US18538R1032 CLW      NYSE         CLEARWATER PAPER CORP         23038     763248.94  0.138840 07 Materials & Processing         0730 Industrial Materials & Processes                 0730720 Paper                                            
20111031 18712Q103 US18712Q1031 CSBK     NASDAQ       CLIFTON SVGS BANCORP INC       7718      78559.45  0.014290 10 Financial Services             1010 Banks                                            1010820 Banks: Savings/Thrifts & Mortgage Lend           
20111031 18911Q102 US18911Q1022 CLD      NYSE         CLOUD PEAK ENERGY INC         48398    1110722.07  0.202047 06 Energy                         0620 Non-Renewable Energy                             0620435 Coal                                             
20111031 190897108 US1908971088 COBZ     NASDAQ       COBIZ FINANCIAL INC           32524     172377.20  0.031356 10 Financial Services             1010 Banks                                            1010400 Banks: Diversified                               
20111031 192108504 US1921085049 CDE      NYSE         COEUR D ALENE MINES CORP      83704    2140287.50  0.389331 07 Materials & Processing         0740 Metals & Minerals                                0740498 Gold                                             
20111031 19238U107 US19238U1079 CSA      NYSE         COGDELL SPENCER INC           32800     132508.38  0.024104 10 Financial Services             1050 Real Estate                                      1050806 Real Estate Investment Trusts (REITs)            
20111031 192422103 US1924221039 CGNX     NASDAQ       COGNEX CORP                    7586     257123.33  0.046772 01 Technology                     0120 Electronics                                      0120738 Production Technology Equipment                  
20111031 192479103 US1924791031 COHR     NASDAQ       COHERENT INC                   7168     365368.45  0.066463 01 Technology                     0120 Electronics                                      0120475 Electronics                                      
20111031 19247A100 US19247A1007 CNS      NYSE         COHEN & STEERS INC             3020      82068.62  0.014929 10 Financial Services             1040 Investment Banking & Brokerage Services          1040544 Asset Management & Custodian                     
20111031 192576106 US1925761066 COHU     NASDAQ       COHU INC                      24042     266625.78  0.048501 01 Technology                     0120 Electronics                                      0120738 Production Technology Equipment                  
20111031 193068103 US1930681036 CWTR     NASDAQ       COLDWATER CREEK INC           60799      63838.95  0.011613 03 Consumer Discretionary         0360 Retail                                           0360834 Specialty Retail                                 
20111031 193294105 US1932941057 KCP      NYSE         COLE KENNETH PRODTNS           5093      54799.34  0.009968 03 Consumer Discretionary         0320 Consumer Products                                0320850 Textiles Apparel & Shoes                         
20111031 19421W100 US19421W1009 PSS      NYSE         COLLECTIVE BRANDS INC         61554     899303.94  0.163589 03 Consumer Discretionary         0360 Retail                                           0360834 Specialty Retail                                 
20111031 195872106 US1958721060 CLP      NYSE         COLONIAL PROPERTIES TR        83475    1692873.00  0.307944 10 Financial Services             1050 Real Estate                                      1050806 Real Estate Investment Trusts (REITs)            
20111031 19624R106 US19624R1068 CLNY     NYSE         COLONY FINANCIAL INC          32909     482775.03  0.087820 10 Financial Services             1050 Real Estate                                      1050806 Real Estate Investment Trusts (REITs)            
20111031 197236102 US1972361026 COLB     NASDAQ       COLUMBIA BKG SYSTEM INC       39483     752940.81  0.136965 10 Financial Services             1010 Banks                                            1010400 Banks: Diversified                               
20111031 197779101 US1977791011 CBRX     NASDAQ       COLUMBIA LABORATORIES         14083      35631.47  0.006482 02 Health Care                    0230 Pharmaceuticals & Biotech                        0230460 Pharmaceuticals                                  
20111031 198516106 US1985161066 COLM     NASDAQ       COLUMBIA SPORTSWEAR CO         3847     206743.80  0.037608 03 Consumer Discretionary         0320 Consumer Products                                0320850 Textiles Apparel & Shoes                         
20111031 199333105 US1993331057 CMCO     NASDAQ       COLUMBUS MCKINNON CORP         4042      60600.22  0.011024 08 Producer Durables              0810 Machinery                                        0810584 Machinery: Industrial                            
20111031 199908104 US1999081045 FIX      NYSE         COMFORT SYSTEMS USA INC       37913     417043.00  0.075863 07 Materials & Processing         0710 Building Materials & Services                    0710415 Building: Climate Control                        
20111031 203607106 US2036071064 CBU      NYSE         COMMUNITY BANK SYSTEMS        36787     940275.72  0.171042 10 Financial Services             1010 Banks                                            1010400 Banks: Diversified                               
20111031 203900105 US2039001050 JCS      NASDAQ       COMMUNICATIONS SYSTEMS         6648     109559.04  0.019929 01 Technology                     0140 Telecommunication                                0140849 Telecommunications Equipment                     
20111031 204149108 US2041491083 CTBI     NASDAQ       COMMUNITY TRUST BANCORP       13849     392342.17  0.071369 10 Financial Services             1010 Banks                                            1010400 Banks: Diversified                               
20111031 20451Q104 US20451Q1040 CODI     NYSE         COMPASS DIVERSIFIED HLDG      40370     527232.20  0.095907 08 Producer Durables              0850 Commercial Services                              0850365 Back Office Support HR & Consutling              
20111031 205477102 US2054771025 CTGX     NASDAQ       COMPUTER TASK GROUP INC        4535      57913.23  0.010535 01 Technology                     0130 Information Technology                           0130439 Computer Services Software & Systems             
20111031 20563P101 US20563P1012 CIX      NYSE AMEX    COMPX INTERNATIONAL            1046      15952.04  0.002902 07 Materials & Processing         0740 Metals & Minerals                                0740630 Metal Fabricating                                
20111031 205768203 US2057682039 CRK      NYSE         COMSTOCK RESOURCES INC        47625     868680.00  0.158018 06 Energy                         0620 Non-Renewable Energy                             0620670 Oil: Crude Producers                             
20111031 205826209 US2058262096 CMTL     NASDAQ       COMTECH TELECOMM              26686     883573.46  0.160727 01 Technology                     0140 Telecommunication                                0140448 Communications Technology                        
20111031 207410101 US2074101013 CNMD     NASDAQ       CONMED CORP                   28301     743467.27  0.135241 02 Health Care                    0220 Medical Equipment & Services                     0220507 Medical & Dental Instruments & Supplies          
20111031 207797101 US2077971016 CTWS     NASDAQ       CONNECTICUT WATER SVC          8589     229669.86  0.041778 11 Utilities                      1110 Utilities                                        1110882 Utilities: Water                                 
20111031 208242107 US2082421072 CONN     NASDAQ       CONNS INC                     13300     122492.85  0.022282 03 Consumer Discretionary         0360 Retail                                           0360834 Specialty Retail                                 
20111031 209034107 US2090341072 CNSL     NASDAQ       CONSOLIDATED COMM              5253      99190.57  0.018043 11 Utilities                      1110 Utilities                                        1110880 Utilities: Telecommunications                    
20111031 210226106 US2102261060 CTO      NYSE AMEX    CONSOLIDATED TOMOKA LAND       4193     125580.35  0.022844 10 Financial Services             1050 Real Estate                                      1050805 Real Estate                                      
20111031 212485106 US2124851062 CVG      NYSE         CONVERGYS CORP               105201    1125650.70  0.204763 08 Producer Durables              0850 Commercial Services                              0850365 Back Office Support HR & Consutling              
20111031 218681104 US2186811046 CORE     NASDAQ       CORE MARK HOLDING CO INC       9841     329573.75  0.059951 04 Consumer Staples               0410 Food/Beverage & Tobacco                          0410856 Tobacco                                          
20111031 21870Q105 US21870Q1058 COR      NYSE         CORESITE REALTY CORP          19866     330768.90  0.060169 10 Financial Services             1050 Real Estate                                      1050806 Real Estate Investment Trusts (REITs)            
20111031 218868107 US2188681074 COCO     NASDAQ       CORINTHIAN COLLEGES INC       77927     148840.57  0.027075 03 Consumer Discretionary         0330 Consumer Services                                0330461 Education Services                               
20111031 21924P103 US21924P1030 CRTX     NASDAQ       CORNERSTONE THERAPEUTICS       8044      49309.72  0.008970 02 Health Care                    0230 Pharmaceuticals & Biotech                        0230412 Biotechnology                                    
20111031 221485105 US2214851055 CPWM     NASDAQ       COST PLUS INC                  6970      54993.80  0.010004 03 Consumer Discretionary         0360 Retail                                           0360834 Specialty Retail                                 
20111031 222660102 US2226601027 CRRC     NASDAQ       COURIER CORP                  10295      89463.55  0.016274 03 Consumer Discretionary         0350 Media                                            0350740 Publishing                                       
20111031 222795106 US2227951066 CUZ      NYSE         COUSINS PROPERTIES INC        91195     598239.20  0.108823 10 Financial Services             1050 Real Estate                                      1050806 Real Estate Investment Trusts (REITs)            
20111031 22284P105 US22284P1057 CVTI     NASDAQ       COVENANT TRANS GRP INC         8366      26854.86  0.004885 08 Producer Durables              0840 Transportation & Freight                         0840865 Truckers                                         
20111031 223622101 US2236221014 COWN     NASDAQ       COWEN GROUP INC               66864     181870.08  0.033083 10 Financial Services             1040 Investment Banking & Brokerage Services          1040544 Asset Management & Custodian                     
20111031 22410J106 US22410J1060 CBRL     NASDAQ       CRACKER BARREL STORE           1285      54484.38  0.009911 03 Consumer Discretionary         0340 Leisure                                          0340810 Restaurants                                      
20111031 224122101 US2241221017 HOOK     NASDAQ       CRAFT BREWERS ALLIANCE         6933      45407.18  0.008260 04 Consumer Staples               0410 Food/Beverage & Tobacco                          0410405 Beverage: Brewers & Distillers                   
20111031 225223304 US2252233042 CRAY     NASDAQ       CRAY INC                      36178     229006.74  0.041658 01 Technology                     0130 Information Technology                           0130449 Computer Technology                              
20111031 226553105 US2265531051 CXS      NYSE         CREXUS INVESTMENT CORP        57158     546430.48  0.099399 10 Financial Services             1050 Real Estate                                      1050806 Real Estate Investment Trusts (REITs)            
20111031 22662K207 US22662K2078 CXPO     NASDAQ       CRIMSON EXPLORATION INC       21827      65044.46  0.011832 06 Energy                         0620 Non-Renewable Energy                             0620670 Oil: Crude Producers                             
20111031 227478104 US2274781044 ATX      NASDAQ       CROSS A T CO                    813       9893.62  0.001800 08 Producer Durables              0820 Manufacturing & Production                       0820650 Office Supplies Equipment                        
20111031 227483104 US2274831047 CCRN     NASDAQ       CROSS COUNTRY HEALTHCARE      27774     138870.00  0.025261 02 Health Care                    0210 Health Care Services                             0210499 Health Care Services                             
20111031 22765Y104 US22765Y1047 XTXI     NASDAQ       CROSSTEX ENERGY INC            4343      56600.74  0.010296 06 Energy                         0620 Non-Renewable Energy                             0620877 Gas Pipeline                                     
20111031 228411104 US2284111042 CRWN     NASDAQ       CROWN MEDIA HOLDINGS INC      27946      44153.56  0.008032 03 Consumer Discretionary         0350 Media                                            0350760 Radio & TV Broadcasters                          
20111031 228903100 US2289031005 CRY      NYSE         CRYOLIFE INC                  25252     116409.10  0.021176 02 Health Care                    0220 Medical Equipment & Services                     0220507 Medical & Dental Instruments & Supplies          
20111031 229663109 US2296631094 CUBE     NYSE         CUBESMART                     99442     975526.02  0.177454 10 Financial Services             1050 Real Estate                                      1050806 Real Estate Investment Trusts (REITs)            
20111031 229669106 US2296691064 CUB      NYSE         CUBIC CORP                     8833     416173.26  0.075704 08 Producer Durables              0840 Transportation & Freight                         0840300 Aerospace                                        
20111031 231082108 US2310821085 CMLS     NASDAQ       CUMULUS MEDIA INC             30185      90856.50  0.016527 03 Consumer Discretionary         0350 Media                                            0350760 Radio & TV Broadcasters                          
20111031 231269101 US2312691015 CRIS     NASDAQ       CURIS INC                     22370      82323.62  0.014975 02 Health Care                    0230 Pharmaceuticals & Biotech                        0230412 Biotechnology                                    
20111031 231561101 US2315611010 CW       NYSE         CURTISS WRIGHT CORP           46419    1521614.82  0.276791 08 Producer Durables              0840 Transportation & Freight                         0840300 Aerospace                                        
20111031 232572107 US2325721072 CYMI     NASDAQ       CYMER INC                     22950     997157.34  0.181389 01 Technology                     0120 Electronics                                      0120738 Production Technology Equipment                  
20111031 232577205 US2325772059 CYNO     NASDAQ       CYNOSURE INC                   9666     117635.22  0.021399 02 Health Care                    0220 Medical Equipment & Services                     0220471 Medical Equipment                                
20111031 23283K105 US23283K1051 CYTX     NASDAQ       CYTORI THERAPEUTICS INC       13075      39619.76  0.007207 02 Health Care                    0230 Pharmaceuticals & Biotech                        0230412 Biotechnology                                    
20111031 233153105 US2331531051 DCT      NYSE         DCT INDUSTRIAL TRUST INC     245669    1218518.24  0.221656 10 Financial Services             1050 Real Estate                                      1050806 Real Estate Investment Trusts (REITs)            
20111031 233162502 US2331625028 DDIC     NASDAQ       DDI CORP                       9688      89030.70  0.016195 01 Technology                     0120 Electronics                                      0120463 Electronic Components                            
20111031 23326R109 US23326R1095 DGIT     NASDAQ       DG FASTCHANNEL INC             6386     119049.26  0.021656 03 Consumer Discretionary         0350 Media                                            0350301 Advertising Agencies                             
20111031 23332B106 US23332B1061 DSPG     NASDAQ       DSP GROUP INC                 23413     144692.34  0.026320 01 Technology                     0120 Electronics                                      0120476 Semiconductors & Components                      
20111031 234264109 US2342641097 DAKT     NASDAQ       DAKTRONICS INC                27800     280770.48  0.051074 01 Technology                     0120 Electronics                                      0120475 Electronics                                      
20111031 235825205 US2358252052 DAN      NYSE         DANA HOLDING CORP              8629     122020.54  0.022196 03 Consumer Discretionary         0310 Auto & Auto Parts                                0310340 Auto Parts                                       
20111031 239359102 US2393591027 DWSN     NASDAQ       DAWSON GEOPHYSICAL CO          5742     165922.85  0.030182 06 Energy                         0610 Energy Equipment & Services                      0610600 Oil Well Equipment & Services                    
20111031 242309102 US2423091022 TRAK     NASDAQ       DEALERTRACK HOLDINGS INC       5632     122174.46  0.022224 01 Technology                     0130 Information Technology                           0130439 Computer Services Software & Systems             
20111031 246647101 US2466471016 DK       NYSE         DELEK US HLDGS INC            14212     205789.76  0.037434 06 Energy                         0620 Non-Renewable Energy                             0620605 Oil: Refining & Marketing                        
20111031 247131105 US2471311058 DFG      NYSE         DELPHI FINANCIAL GRP INC      48266    1278083.68  0.232491 10 Financial Services             1030 Insurance                                        1030528 Insurance: Life                                  
20111031 247368103 US2473681037 DLA      NYSE AMEX    DELTA APPAREL INC              6381     114919.68  0.020905 03 Consumer Discretionary         0320 Consumer Products                                0320850 Textiles Apparel & Shoes                         
20111031 24869P104 US24869P1049 DENN     NASDAQ       DENNYS CORP                   27300      98281.94  0.017878 03 Consumer Discretionary         0340 Leisure                                          0340810 Restaurants                                      
20111031 252784301 US2527843013 DRH      NYSE         DIAMONDROCK HOSPITALITY      167374    1514734.70  0.275539 10 Financial Services             1050 Real Estate                                      1050806 Real Estate Investment Trusts (REITs)            
20111031 253798102 US2537981027 DGII     NASDAQ       DIGI INTL INC                 21159     270611.65  0.049226 01 Technology                     0140 Telecommunication                                0140448 Communications Technology                        
20111031 25388B104 US25388B1044 DRIV     NASDAQ       DIGITAL RIVER INC             34656     635241.69  0.115554 01 Technology                     0130 Information Technology                           0130439 Computer Services Software & Systems             
20111031 253922108 US2539221083 DCOM     NASDAQ       DIME CMNTY BANCSHARES         31124     370998.08  0.067487 10 Financial Services             1010 Banks                                            1010820 Banks: Savings/Thrifts & Mortgage Lend           
20111031 25659P402 US25659P4028 DM       NYSE         DOLAN COMPANY                 30369     265728.75  0.048338 03 Consumer Discretionary         0350 Media                                            0350740 Publishing                                       
20111031 256603101 US2566031017 DOLE     NYSE         DOLE FOOD CO INC              29165     308563.04  0.056129 04 Consumer Staples               0410 Food/Beverage & Tobacco                          0410494 Foods                                            
20111031 25754A201 US25754A2015 DPZ      NYSE         DOMINOS PIZZA INC             38215    1224013.13  0.222655 03 Consumer Discretionary         0340 Leisure                                          0340810 Restaurants                                      
20111031 257701201 US2577012014 DGICA    NASDAQ       DONEGAL GROUP INC              7737      96867.24  0.017621 10 Financial Services             1030 Insurance                                        1030542 Insurance: Property-Casualty                     
20111031 25811P886 PR25811P8869 DRL      NYSE         DORAL FINANCIAL CORP         127294     152752.80  0.027787 10 Financial Services             1010 Banks                                            1010820 Banks: Savings/Thrifts & Mortgage Lend           
20111031 25848T109 US25848T1097 HILL     NASDAQ       DOT HILL SYS CORP             43615      75016.32  0.013646 01 Technology                     0130 Information Technology                           0130449 Computer Technology                              
20111031 25960R105 US25960R1059 PLOW     NYSE         DOUGLAS DYNAMICS INC           8535     128206.90  0.023322 08 Producer Durables              0810 Machinery                                        0810577 Machinery: Construction & Handling               
20111031 26168L205 US26168L2051 DW       NYSE         DREW INDUSTRIES INC           11811     283808.67  0.051627 03 Consumer Discretionary         0340 Leisure                                          0340804 Recreational Vehicles & Boats                    
20111031 264147109 US2641471097 DCO      NYSE         DUCOMMUN INC                  10534     150320.18  0.027344 08 Producer Durables              0840 Transportation & Freight                         0840300 Aerospace                                        
20111031 26613Q106 US26613Q1067 DFT      NYSE         DUPONT FABROS TECHNOLOGY      36409     756942.30  0.137692 10 Financial Services             1050 Real Estate                                      1050806 Real Estate Investment Trusts (REITs)            
20111031 266605104 US2666051048 DRRX     NASDAQ       DURECT CORP                    5648       8981.46  0.001634 02 Health Care                    0230 Pharmaceuticals & Biotech                        0230460 Pharmaceuticals                                  
20111031 26746E103 US26746E1038 DYAX     NASDAQ       DYAX CORP                     17866      24119.79  0.004388 02 Health Care                    0230 Pharmaceuticals & Biotech                        0230412 Biotechnology                                    
20111031 267475101 US2674751019 DY       NYSE         DYCOM INDUSTRIES INC          29334     569945.28  0.103677 08 Producer Durables              0850 Commercial Services                              0850479 Engineering & Contracting Services               
20111031 268057106 US2680571062 DRCO     NASDAQ       DYNAMICS RESEARCH CORP         8941      86191.24  0.015679 01 Technology                     0130 Information Technology                           0130449 Computer Technology                              
20111031 26817F104 US26817F1049 DVOX     NASDAQ       DYNAVOX INC                    1989       6725.63  0.001223 01 Technology                     0130 Information Technology                           0130439 Computer Services Software & Systems             
20111031 26817G300 US26817G3002 DYN      NYSE         DYNEGY INC                   102959     377859.53  0.068735 11 Utilities                      1110 Utilities                                        1110870 Utilities: Electrical                            
20111031 26817Q506 US26817Q5062 DX       NYSE         DYNEX CAPITAL INC             40323     353229.48  0.064255 10 Financial Services             1050 Real Estate                                      1050806 Real Estate Investment Trusts (REITs)            
20111031 268664109 US2686641091 EMCI     NASDAQ       EMC INS GROUP INC              4600      89424.00  0.016267 10 Financial Services             1030 Insurance                                        1030542 Insurance: Property-Casualty                     
20111031 26882D109 US26882D1090 EPIQ     NASDAQ       EPIQ SYSTEMS INC              29206     416473.57  0.075759 01 Technology                     0130 Information Technology                           0130439 Computer Services Software & Systems             
20111031 26884F102 US26884F1021 ESBF     NASDAQ       ESB FINANCIAL CORP            12462     172598.70  0.031397 10 Financial Services             1010 Banks                                            1010820 Banks: Savings/Thrifts & Mortgage Lend           
20111031 268948106 US2689481065 EGBN     NASDAQ       EAGLE BANCORP INC             16760     232461.20  0.042286 10 Financial Services             1010 Banks                                            1010400 Banks: Diversified                               
20111031 26969P108 US26969P1084 EXP      NYSE         EAGLE MATERIALS INC            8453     173972.62  0.031647 07 Materials & Processing         0710 Building Materials & Services                    0710420 Cement                                           
20111031 270321102 US2703211027 ELNK     NASDAQ       EARTHLINK INC                110012     771184.12  0.140283 01 Technology                     0130 Information Technology                           0130439 Computer Services Software & Systems             
20111031 277276101 US2772761019 EGP      NYSE         EASTGROUP PROPERTIES INC      14635     638190.92  0.116091 10 Financial Services             1050 Real Estate                                      1050806 Real Estate Investment Trusts (REITs)            
20111031 277461109 US2774611097 EK       NYSE         EASTMAN KODAK CO             269038     298632.18  0.054323 03 Consumer Discretionary         0320 Consumer Products                                0320730 Photography                                      
20111031 278715206 US2787152063 EBIX     NASDAQ       EBIX INC                       9222     157789.79  0.028703 01 Technology                     0130 Information Technology                           0130439 Computer Services Software & Systems             
20111031 27943Q105 US27943Q1058 EF       NASDAQ       EDELMAN FINANCIAL GROUP       20256     140576.64  0.025572 10 Financial Services             1040 Investment Banking & Brokerage Services          1040457 Diversified Financial Services                   
20111031 28140H104 US28140H1041 EDR      NYSE         EDUCATION REALTY TRUST        72225     668081.25  0.121528 10 Financial Services             1050 Real Estate                                      1050806 Real Estate Investment Trusts (REITs)            
20111031 28238P109 US28238P1093 EHTH     NASDAQ       EHEALTH INC                   21387     317596.95  0.057773 10 Financial Services             1030 Insurance                                        1030535 Insurance: Multi-Line                            
20111031 28257U104 US28257U1043 BAGL     NASDAQ       EINSTEIN NOAH REST GROUP        798      11750.06  0.002137 03 Consumer Discretionary         0340 Leisure                                          0340810 Restaurants                                      
20111031 283677854 US2836778546 EE       NYSE         EL PASO ELECTRIC CO           42108    1348719.24  0.245340 11 Utilities                      1110 Utilities                                        1110870 Utilities: Electrical                            
20111031 285218103 US2852181039 ELRC     NASDAQ       ELECTRO RENT CORP             11004     176823.38  0.032165 08 Producer Durables              0840 Transportation & Freight                         0840808 Commercial Services: Rental & Leasing            
20111031 285229100 US2852291002 ESIO     NASDAQ       ELECTRO SCIENTIFIC INDS       20505     251999.76  0.045840 01 Technology                     0120 Electronics                                      0120738 Production Technology Equipment                  
20111031 286082102 US2860821022 EFII     NASDAQ       ELECTRONICS FOR IMAGING       43413     651186.00  0.118455 08 Producer Durables              0820 Manufacturing & Production                       0820650 Office Supplies Equipment                        
20111031 28660G106 US28660G1067 RDEN     NASDAQ       ELIZABETH ARDEN INC            4570     156688.43  0.028503 03 Consumer Discretionary         0320 Consumer Products                                0320450 Cosmetics                                        
20111031 288853104 US2888531041 PERY     NASDAQ       ELLIS PERRY INTL INC          12111     303967.12  0.055293 03 Consumer Discretionary         0320 Consumer Products                                0320850 Textiles Apparel & Shoes                         
20111031 290846104 US2908461047 EMKR     NASDAQ       EMCORE CORP                   88335      87451.65  0.015908 01 Technology                     0120 Electronics                                      0120476 Semiconductors & Components                      
20111031 29084Q100 US29084Q1004 EME      NYSE         EMCOR GROUP INC               66846    1675829.22  0.304844 08 Producer Durables              0820 Manufacturing & Production                       0820443 Construction                                     
20111031 291641108 US2916411083 EDE      NYSE         EMPIRE DISTRICT ELECTRIC      41777     834286.69  0.151762 11 Utilities                      1110 Utilities                                        1110870 Utilities: Electrical                            
20111031 292218104 US2922181043 EIG      NYSE         EMPLOYERS HOLDINGS INC        38562     625475.64  0.113778 10 Financial Services             1030 Insurance                                        1030542 Insurance: Property-Casualty                     
20111031 292475209 US2924752098 ELX      NYSE         EMULEX CORP                   87756     735395.28  0.133773 01 Technology                     0140 Telecommunication                                0140448 Communications Technology                        
20111031 29255V201 US29255V2016 EBTX     NASDAQ       ENCORE BANCSHARES INC          8441      99266.16  0.018057 10 Financial Services             1010 Banks                                            1010400 Banks: Diversified                               
20111031 292562105 US2925621052 WIRE     NASDAQ       ENCORE WIRE CORP              18553     493138.74  0.089705 07 Materials & Processing         0730 Industrial Materials & Processes                 0730452 Diversified Materials & Processing               
20111031 29259G200 US29259G2003 END      NYSE         ENDEAVOUR INTERNATIONAL       37132     344584.96  0.062682 06 Energy                         0620 Non-Renewable Energy                             0620670 Oil: Crude Producers                             
20111031 29270J100 US29270J1007 ERII     NASDAQ       ENERGY RECOVERY INC           45769     140510.83  0.025560 08 Producer Durables              0830 Scientific Instruments & Services                0830524 Scientific Instruments: Control & Filter         
20111031 29270U303 US29270U3032 EPL      NYSE         ENERGY PARTNERS LTD           28938     414970.92  0.075486 06 Energy                         0620 Non-Renewable Energy                             0620670 Oil: Crude Producers                             
20111031 292756202 US2927562023 ES       NYSE         ENERGYSOLUTIONS INC           62407     235273.36  0.042798 08 Producer Durables              0830 Scientific Instruments & Services                0830735 Scientific Instruments: Pollution Control        
20111031 29275Y102 US29275Y1029 ENS      NYSE         ENERSYS INC                   35505     799923.89  0.145511 08 Producer Durables              0830 Scientific Instruments & Services                0830465 Scientific Instruments: Electrical               
20111031 292764107 US2927641074 ENOC     NASDAQ       ENERNOC INC                   16092     142727.84  0.025963 06 Energy                         0630 Alternative Energy                               0630478 Alternative Energy                               
20111031 293389102 US2933891028 EBF      NYSE         ENNIS INC                     26044     381023.72  0.069311 08 Producer Durables              0850 Commercial Services                              0850486 Forms and Bulk Printing Services                 
20111031 29355X107 US29355X1072 NPO      NYSE         ENPRO INDUSTRIES INC          11783     405788.27  0.073815 08 Producer Durables              0810 Machinery                                        0810584 Machinery: Industrial                            
20111031 29362U104 US29362U1043 ENTG     NASDAQ       ENTEGRIS INC                  90685     812530.66  0.147804 01 Technology                     0120 Electronics                                      0120738 Production Technology Equipment                  
20111031 293639100 US2936391000 ETM      NYSE         ENTERCOM COMMUNICATIONS       24190     158686.40  0.028866 03 Consumer Discretionary         0350 Media                                            0350760 Radio & TV Broadcasters                          
20111031 293668109 US2936681095 EBTC     NASDAQ       ENTERPRISE BANCORP INC         5822      83836.80  0.015250 10 Financial Services             1010 Banks                                            1010400 Banks: Diversified                               
20111031 293712105 US2937121059 EFSC     NASDAQ       ENTERPRISE FINL SERVICES      13724     211752.46  0.038519 10 Financial Services             1010 Banks                                            1010400 Banks: Diversified                               
20111031 29380T105 US29380T1051 EPR      NYSE         ENTERTAINMENT PPTYS TR        46642    2089561.60  0.380104 10 Financial Services             1050 Real Estate                                      1050806 Real Estate Investment Trusts (REITs)            
20111031 29382R107 US29382R1077 EVC      NYSE         ENTRAVISION COMM              20861      34421.01  0.006261 03 Consumer Discretionary         0350 Media                                            0350760 Radio & TV Broadcasters                          
20111031 293904108 US2939041081 ENZN     NASDAQ       ENZON PHARMACEUTICALS         35415     260296.83  0.047350 02 Health Care                    0230 Pharmaceuticals & Biotech                        0230412 Biotechnology                                    
20111031 294100102 US2941001024 ENZ      NYSE         ENZO BIOCHEM INC              35165     100570.80  0.018294 02 Health Care                    0230 Pharmaceuticals & Biotech                        0230412 Biotechnology                                    
20111031 294268107 US2942681071 PLUS     NASDAQ       EPLUS INC                      3651      99150.68  0.018036 01 Technology                     0130 Information Technology                           0130439 Computer Services Software & Systems             
20111031 29429D103 US29429D1037 EPOC     NASDAQ       EPOCRATES INC                   491       4271.79  0.000777 02 Health Care                    0210 Health Care Services                             0210499 Health Care Services                             
20111031 29472R108 US29472R1086 ELS      NYSE         EQUITY LIFESTYLE PROP          9694     641114.15  0.116623 10 Financial Services             1050 Real Estate                                      1050806 Real Estate Investment Trusts (REITs)            
20111031 294752100 US2947521009 EQY      NYSE         EQUITY ONE INC                53655     920183.25  0.167387 10 Financial Services             1050 Real Estate                                      1050806 Real Estate Investment Trusts (REITs)            
20111031 29481V108 US29481V1089 ERT      NASDAQ       ERESEARCHTECHNOLOGY INC       23746     121347.05  0.022074 02 Health Care                    0220 Medical Equipment & Services                     0220622 Medical Services                                 
20111031 296315104 US2963151046 ESE      NYSE         ESCO TECHNOLOGIES INC         19741     603479.62  0.109777 08 Producer Durables              0830 Scientific Instruments & Services                0830524 Scientific Instruments: Control & Filter         
20111031 29667D104 US29667D1046 ESSA     NASDAQ       ESSA BANCORP INC              11334     125127.36  0.022761 10 Financial Services             1010 Banks                                            1010820 Banks: Savings/Thrifts & Mortgage Lend           
20111031 297187106 US2971871064 ESSX     NASDAQ       ESSEX RENT CORP               14933      42556.56  0.007741 08 Producer Durables              0840 Transportation & Freight                         0840808 Commercial Services: Rental & Leasing            
20111031 297425100 US2974251009 ESL      NYSE         ESTERLINE TECHNOLOGIES        30476    1703608.40  0.309897 08 Producer Durables              0840 Transportation & Freight                         0840300 Aerospace                                        
20111031 297602104 US2976021046 ETH      NYSE         ETHAN ALLEN INTERIORS         15645     309764.35  0.056348 03 Consumer Discretionary         0320 Consumer Products                                0320523 Household Furnishings                            
20111031 298736109 US2987361092 EEFT     NASDAQ       EURONET WORLDWIDE INC         51207     991879.59  0.180429 10 Financial Services             1020 Consumer Finance & Credit Services               1020489 Financial Data & Systems                         
20111031 30063P105 US30063P1057 EXAS     NASDAQ       EXACT SCIENCES CORP           16292     129524.01  0.023561 02 Health Care                    0230 Pharmaceuticals & Biotech                        0230412 Biotechnology                                    
20111031 300645108 US3006451088 EXAR     NASDAQ       EXAR CORP                     32533     198776.36  0.036159 01 Technology                     0120 Electronics                                      0120476 Semiconductors & Components                      
20111031 30064E109 US30064E1091 EXAC     NASDAQ       EXACTECH INC                   2465      39449.28  0.007176 02 Health Care                    0220 Medical Equipment & Services                     0220507 Medical & Dental Instruments & Supplies          
20111031 30068C109 US30068C1099 EXL      NYSE         EXCEL TR INC                  30952     325305.52  0.059175 10 Financial Services             1050 Real Estate                                      1050806 Real Estate Investment Trusts (REITs)            
20111031 302051206 US3020512063 XIDE     NASDAQ       EXIDE TECHNOLOGIES            58129     261576.68  0.047582 03 Consumer Discretionary         0310 Auto & Auto Parts                                0310340 Auto Parts                                       
20111031 30225T102 US30225T1025 EXR      NYSE         EXTRA SPACE STORAGE INC       57362    1292363.65  0.235089 10 Financial Services             1050 Real Estate                                      1050806 Real Estate Investment Trusts (REITs)            
20111031 30225X103 US30225X1037 EXH      NYSE         EXTERRAN HOLDINGS INC         63920     607240.00  0.110461 06 Energy                         0610 Energy Equipment & Services                      0610600 Oil Well Equipment & Services                    
20111031 30226D106 US30226D1063 EXTR     NASDAQ       EXTREME NETWORKS INC          66207     195308.41  0.035528 01 Technology                     0140 Telecommunication                                0140448 Communications Technology                        
20111031 30239F106 US30239F1066 FFG      NYSE         FBL FINANCIAL GROUP INC       12826     418768.90  0.076177 10 Financial Services             1030 Insurance                                        1030528 Insurance: Life                                  
20111031 30241L109 US30241L1098 FEIC     NASDAQ       FEI CO                         2940     116923.98  0.021269 01 Technology                     0120 Electronics                                      0120738 Production Technology Equipment                  
20111031 30247C301 US30247C3016 FBRC     NASDAQ       FBR & CO                      50525     105092.00  0.019117 10 Financial Services             1040 Investment Banking & Brokerage Services          1040457 Diversified Financial Services                   
20111031 302520101 US3025201019 FNB      NYSE         FNB CORP                     126909    1280511.81  0.232933 10 Financial Services             1010 Banks                                            1010400 Banks: Diversified                               
20111031 302633102 US3026331021 FSII     NASDAQ       FSI INTL INC                  38699      95586.53  0.017388 01 Technology                     0120 Electronics                                      0120738 Production Technology Equipment                  
20111031 302693106 US3026931069 FXCM     NYSE         FXCM INC                      17319     199168.50  0.036230 10 Financial Services             1040 Investment Banking & Brokerage Services          1040823 Securities Brokerage & Services                  
20111031 302941109 US3029411093 FCN      NYSE         FTI CONSULTING INC            42051    1657229.91  0.301460 08 Producer Durables              0850 Commercial Services                              0850365 Back Office Support HR & Consutling              
20111031 303250104 US3032501047 FICO     NYSE         FAIR ISAAC CORP               16610     454293.37  0.082639 10 Financial Services             1020 Consumer Finance & Credit Services               1020489 Financial Data & Systems                         
20111031 305560302 US3055603027 FRP      NASDAQ       FAIRPOINT COMMUNICATIONS      20222     108588.94  0.019753 11 Utilities                      1110 Utilities                                        1110880 Utilities: Telecommunications                    
20111031 307675108 US3076751086 FARM     NASDAQ       FARMER BROS CO                 6381      37323.97  0.006789 04 Consumer Staples               0410 Food/Beverage & Tobacco                          0410410 Beverage: Soft Drinks                            
20111031 313148306 US3131483063 AGM      NYSE         FEDERAL AGRIC MTG CO           9837     198510.66  0.036110 10 Financial Services             1020 Consumer Finance & Credit Services               1020487 Commercial Finance & Mortgage Co                 
20111031 313855108 US3138551086 FSS      NYSE         FEDERAL SIGNAL CORP           56838     268275.22  0.048801 08 Producer Durables              0820 Manufacturing & Production                       0820453 Diversified Manufacturing Operations             
20111031 31430F101 US31430F1012 FCH      NYSE         FELCOR LODGING TRUST INC      62240     187340.90  0.034078 10 Financial Services             1050 Real Estate                                      1050806 Real Estate Investment Trusts (REITs)            
20111031 315405100 US3154051003 FOE      NYSE         FERRO CORP                    86556     560017.32  0.101871 07 Materials & Processing         0730 Industrial Materials & Processes                 0730714 Paints & Coatings                                
20111031 316500107 US3165001070 FDUS     NASDAQ       FIDUS INVESTMENT CORP          4157      54032.94  0.009829 10 Financial Services             1040 Investment Banking & Brokerage Services          1040544 Asset Management & Custodian                     
20111031 31678A103 US31678A1034 FSC      NYSE         FIFTH STREET FINANCE          72320     713075.20  0.129713 10 Financial Services             1040 Investment Banking & Brokerage Services          1040544 Asset Management & Custodian                     
20111031 317585404 US3175854047 FISI     NASDAQ       FINANCIAL INSTNS INC          13793     225929.34  0.041098 10 Financial Services             1010 Banks                                            1010400 Banks: Diversified                               
20111031 317923100 US3179231002 FINL     NASDAQ       FINISH LINE INC               36022     724039.19  0.131707 03 Consumer Discretionary         0360 Retail                                           0360834 Specialty Retail                                 
20111031 31847R102 US31847R1023 FAF      NYSE         FIRST AMERICAN FINL CORP     105174    1262088.00  0.229582 10 Financial Services             1030 Insurance                                        1030542 Insurance: Property-Casualty                     
20111031 31866P102 US31866P1021 FNLC     NASDAQ       FIRST BANCORP INC              8772     126229.08  0.022962 10 Financial Services             1010 Banks                                            1010400 Banks: Diversified                               
20111031 318910106 US3189101062 FBNC     NASDAQ       FIRST BANCORP NC              15101     191480.68  0.034832 10 Financial Services             1010 Banks                                            1010400 Banks: Diversified                               
20111031 319383105 US3193831050 BUSE     NASDAQ       FIRST BUSEY CORP              77071     393062.10  0.071500 10 Financial Services             1010 Banks                                            1010400 Banks: Diversified                               
20111031 319829107 US3198291078 FCF      NYSE         FIRST COMMONWLTH FINL        104907     483621.27  0.087974 10 Financial Services             1010 Banks                                            1010400 Banks: Diversified                               
20111031 31983A103 US31983A1034 FCBC     NASDAQ       FIRST CMNTY BANCSHAR          15891     190850.91  0.034717 10 Financial Services             1010 Banks                                            1010400 Banks: Diversified                               
20111031 319850103 US3198501039 FBNK     NASDAQ       FIRST CONN BANCORP INC        17880     210268.80  0.038249 10 Financial Services             1010 Banks                                            1010400 Banks: Diversified                               
20111031 32006W106 US32006W1062 FDEF     NASDAQ       FIRST DEFIANCE FINANCIAL       9724     138178.04  0.025135 10 Financial Services             1010 Banks                                            1010820 Banks: Savings/Thrifts & Mortgage Lend           
20111031 320209109 US3202091092 FFBC     NASDAQ       FIRST FINANCIAL BANCORP       58253     955349.20  0.173784 10 Financial Services             1010 Banks                                            1010400 Banks: Diversified                               
20111031 32020R109 US32020R1095 FFIN     NASDAQ       FIRST FINL BANKSHARES         17259     548143.08  0.099711 10 Financial Services             1010 Banks                                            1010400 Banks: Diversified                               
20111031 320218100 US3202181000 THFF     NASDAQ       FIRST FINANCIAL CORP          11139     366027.54  0.066583 10 Financial Services             1010 Banks                                            1010400 Banks: Diversified                               
20111031 320239106 US3202391062 FFCH     NASDAQ       FIRST FINANCIAL HOLDINGS      16527     123126.15  0.022397 10 Financial Services             1010 Banks                                            1010820 Banks: Savings/Thrifts & Mortgage Lend           
20111031 32054K103 US32054K1034 FR       NYSE         FIRST INDUSTRIAL RLTY TR      86603     853039.55  0.155173 10 Financial Services             1050 Real Estate                                      1050806 Real Estate Investment Trusts (REITs)            
20111031 32055Y201 US32055Y2019 FIBK     NASDAQ       FIRST INTST BANCSYSTEM        15766     199282.24  0.036251 10 Financial Services             1010 Banks                                            1010400 Banks: Diversified                               
20111031 320734106 US3207341062 FLIC     NASDAQ       FIRST LONG ISLAND CORP         7633     195023.15  0.035476 10 Financial Services             1010 Banks                                            1010400 Banks: Diversified                               
20111031 320771108 US3207711082 FMD      NYSE         FIRST MARBLEHEAD CORP         55142      52936.32  0.009629 10 Financial Services             1020 Consumer Finance & Credit Services               1020492 Consumer Lending                                 
20111031 320817109 US3208171096 FRME     NASDAQ       FIRST MERCHANTS CORP          25652     206755.12  0.037610 10 Financial Services             1010 Banks                                            1010400 Banks: Diversified                               
20111031 320867104 US3208671046 FMBI     NASDAQ       FIRST MIDWEST BANCORP         74537     671578.37  0.122164 10 Financial Services             1010 Banks                                            1010400 Banks: Diversified                               
20111031 33589V101 US33589V1017 BANC     NASDAQ       FIRST PACTRUST BANCORP        10127     127397.66  0.023174 10 Financial Services             1010 Banks                                            1010820 Banks: Savings/Thrifts & Mortgage Lend           
20111031 33610F109 US33610F1093 FPO      NYSE         FIRST POTOMAC REALTY TR       50038     711039.98  0.129343 10 Financial Services             1050 Real Estate                                      1050806 Real Estate Investment Trusts (REITs)            
20111031 336901103 US3369011032 SRCE     NASDAQ       1ST SOURCE CORP               15214     365744.56  0.066531 10 Financial Services             1010 Banks                                            1010400 Banks: Diversified                               
20111031 33740N105 US33740N1054 FUBC     NASDAQ       1ST UNITED BANCORP INC        27227     141035.86  0.025655 10 Financial Services             1010 Banks                                            1010400 Banks: Diversified                               
20111031 337756209 US3377562091 FSCI     NASDAQ       FISHER COMMUNICATIONS          8824     256248.96  0.046613 03 Consumer Discretionary         0350 Media                                            0350760 Radio & TV Broadcasters                          
20111031 337915102 US3379151026 FMER     NASDAQ       FIRSTMERIT CORP              109246    1530536.46  0.278414 10 Financial Services             1010 Banks                                            1010400 Banks: Diversified                               
20111031 337930507 US3379305077 FBC      NYSE         FLAGSTAR BANCORP INC         195521     152506.38  0.027742 10 Financial Services             1010 Banks                                            1010820 Banks: Savings/Thrifts & Mortgage Lend           
20111031 33832D106 US33832D1063 FVE      NYSE         FIVE STAR QUALITY CARE        41960     108676.40  0.019769 02 Health Care                    0210 Health Care Services                             0210504 Health Care Facilities                           
20111031 343468104 US3434681041 FLOW     NASDAQ       FLOW INTL CORP                 5679      14710.47  0.002676 08 Producer Durables              0810 Machinery                                        0810584 Machinery: Industrial                            
20111031 343873105 US3438731057 FFIC     NASDAQ       FLUSHING FINANCIAL CORP       31387     384804.62  0.069998 10 Financial Services             1010 Banks                                            1010820 Banks: Savings/Thrifts & Mortgage Lend           
20111031 345203202 US3452032028 FRPT     NASDAQ       FORCE PROTECTION INC          43247     159146.41  0.028950 08 Producer Durables              0840 Transportation & Freight                         0840350 Commercial Vehicles & Parts                      
20111031 346233109 US3462331097 FOR      NYSE         FORESTAR GROUP INC            35423     460499.00  0.083768 10 Financial Services             1050 Real Estate                                      1050805 Real Estate                                      
20111031 346375108 US3463751087 FORM     NASDAQ       FORMFACTOR INC                50648     302875.04  0.055095 01 Technology                     0120 Electronics                                      0120476 Semiconductors & Components                      
20111031 34954W104 US34954W1045 FRF      NYSE         FORTEGRA FINANCIAL CORP        5845      30861.60  0.005614 10 Financial Services             1030 Insurance                                        1030535 Insurance: Multi-Line                            
20111031 350060109 US3500601097 FSTR     NASDAQ       FOSTER L B CO                  9511     242530.50  0.044118 07 Materials & Processing         0740 Metals & Minerals                                0740630 Metal Fabricating                                
20111031 35137T108 US35137T1088 FXCB     NASDAQ       FOX CHASE BANCORP             14550     184203.00  0.033508 10 Financial Services             1010 Banks                                            1010820 Banks: Savings/Thrifts & Mortgage Lend           
20111031 351793104 US3517931040 FRAN     NASDAQ       FRANCESCAS HOLDINGS CORP       6638     170396.33  0.030996 03 Consumer Discretionary         0360 Retail                                           0360834 Specialty Retail                                 
20111031 353469109 US3534691098 FC       NYSE         FRANKLIN COVEY CO             13340     128597.60  0.023393 03 Consumer Discretionary         0330 Consumer Services                                0330461 Education Services                               
20111031 353514102 US3535141028 FELE     NASDAQ       FRANKLIN ELECTRIC CO           1512      69438.39  0.012631 08 Producer Durables              0830 Scientific Instruments & Services                0830465 Scientific Instruments: Electrical               
20111031 35353C102 US35353C1027 FRNK     NASDAQ       FRANKLIN FINL CORP VA         13888     155406.72  0.028269 10 Financial Services             1010 Banks                                            1010820 Banks: Savings/Thrifts & Mortgage Lend           
20111031 35471R106 US35471R1068 FSP      NYSE AMEX    FRANKLIN STREET PPTYS CO      70605     896683.50  0.163112 10 Financial Services             1050 Real Estate                                      1050806 Real Estate Investment Trusts (REITs)            
20111031 356108100 US3561081007 FRED     NASDAQ       FREDS INC                     39313     479225.47  0.087174 03 Consumer Discretionary         0360 Retail                                           0360815 Diversified Retail                               
20111031 357023100 US3570231007 RAIL     NASDAQ       FREIGHTCAR AMERICA INC        11948     226414.60  0.041186 08 Producer Durables              0840 Transportation & Freight                         0840770 Railroad Equipment                               
20111031 359523107 US3595231073 FTEK     NASDAQ       FUEL TECH INC                   966       5355.34  0.000974 08 Producer Durables              0830 Scientific Instruments & Services                0830735 Scientific Instruments: Pollution Control        
20111031 35952W103 US35952W1036 FSYS     NASDAQ       FUEL SYSTEMS SOLUTIONS        16638     388330.92  0.070640 03 Consumer Discretionary         0310 Auto & Auto Parts                                0310340 Auto Parts                                       
20111031 359694106 US3596941068 FUL      NYSE         FULLER H B CO                 46066     989957.57  0.180079 07 Materials & Processing         0730 Industrial Materials & Processes                 0730714 Paints & Coatings                                
20111031 360921100 US3609211004 FBN      NYSE         FURNITURE BRANDS INTL         41936      80097.76  0.014570 03 Consumer Discretionary         0320 Consumer Products                                0320523 Household Furnishings                            
20111031 36106P101 US36106P1012 FURX     NASDAQ       FURIEX PHARMACEUTICALS         9881     140310.20  0.025523 02 Health Care                    0230 Pharmaceuticals & Biotech                        0230412 Biotechnology                                    
20111031 36116M106 US36116M1062 FF       NYSE         FUTUREFUEL CORPORATION        11988     135457.89  0.024641 07 Materials & Processing         0720 Chemicals and Synthetics                         0720833 Chemicals: Specialty                             
20111031 361268105 US3612681052 GKSR     NASDAQ       G&K SERVICES INC              18711     568065.96  0.103335 08 Producer Durables              0850 Commercial Services                              0850484 Environmental Maint & Security Service           
20111031 361438104 US3614381040 GBL      NYSE         GAMCO INVESTORS INC            2518     118631.66  0.021580 10 Financial Services             1040 Investment Banking & Brokerage Services          1040544 Asset Management & Custodian                     
20111031 36159R103 US36159R1032 GEO      NYSE         GEO GROUP INC                 64878    1182725.94  0.215145 08 Producer Durables              0850 Commercial Services                              0850484 Environmental Maint & Security Service           
20111031 361652209 US3616522096 GFIG     NYSE         GFI GROUP INC                 70660     305251.20  0.055527 10 Financial Services             1040 Investment Banking & Brokerage Services          1040823 Securities Brokerage & Services                  
20111031 36191C205 CA36191C2058 GSIG     NASDAQ       GSI GROUP INC CDA NEW         25847     252525.19  0.045936 01 Technology                     0120 Electronics                                      0120738 Production Technology Equipment                  
20111031 36225V104 US36225V1044 GPX      NYSE         GP STRATEGIES CORP            10517     124306.18  0.022612 08 Producer Durables              0850 Commercial Services                              0850365 Back Office Support HR & Consutling              
20111031 36241U106 US36241U1060 GSIT     NASDAQ       GSI TECHNOLOGY                20164      98803.60  0.017973 01 Technology                     0140 Telecommunication                                0140448 Communications Technology                        
20111031 36268W100 US36268W1009 GCAP     NYSE         GAIN CAPITAL HLDNGS INC        7455      52259.55  0.009506 10 Financial Services             1040 Investment Banking & Brokerage Services          1040823 Securities Brokerage & Services                  
20111031 367299203 CA3672992037 GST      NYSE AMEX    GASTAR EXPL LTD               58051     214788.70  0.039071 06 Energy                         0620 Non-Renewable Energy                             0620670 Oil: Crude Producers                             
20111031 367905106 US3679051066 GET      NYSE         GAYLORD ENTMT CO              35641     833642.99  0.151645 03 Consumer Discretionary         0340 Leisure                                          0340514 Hotel/Motel                                      
20111031 368682100 US3686821006 GY       NYSE         GENCORP INC                   15555      75599.73  0.013752 08 Producer Durables              0840 Transportation & Freight                         0840300 Aerospace                                        
20111031 368736104 US3687361044 GNRC     NYSE         GENERAC HOLDINGS INC          15732     359621.20  0.065417 08 Producer Durables              0820 Manufacturing & Production                       0820734 Power Transmission Equip                         
20111031 371532102 US3715321028 GCO      NYSE         GENESCO INC                   21297    1255210.46  0.228330 03 Consumer Discretionary         0360 Retail                                           0360834 Specialty Retail                                 
20111031 372284208 US3722842081 GNE      NYSE         GENIE ENERGY LTD               1125       9339.59  0.001699 11 Utilities                      1110 Utilities                                        1110870 Utilities: Electrical                            
20111031 372476101 US3724761016 GEOI     NASDAQ       GEORESOURCES INC              12238     324791.74  0.059082 06 Energy                         0620 Non-Renewable Energy                             0620670 Oil: Crude Producers                             
20111031 37247A102 US37247A1025 GTIV     NASDAQ       GENTIVA HEALTH SERVICES       30577     126588.78  0.023027 02 Health Care                    0210 Health Care Services                             0210499 Health Care Services                             
20111031 37250W108 US37250W1080 GEOY     NASDAQ       GEOEYE INC                    20909     701888.14  0.127678 01 Technology                     0140 Telecommunication                                0140448 Communications Technology                        
20111031 373200302 US3732003021 GGC      NYSE         GEORGIA GULF CORP             33968     614820.80  0.111840 07 Materials & Processing         0720 Chemicals and Synthetics                         0720433 Chemicals: Diversified                           
20111031 373865104 US3738651047 GABC     NASDAQ       GERMAN AMERICAN BANCORP       12592     218723.04  0.039787 10 Financial Services             1010 Banks                                            1010400 Banks: Diversified                               
20111031 374163103 US3741631036 GERN     NASDAQ       GERON CORP                   100355     235834.25  0.042900 02 Health Care                    0230 Pharmaceuticals & Biotech                        0230412 Biotechnology                                    
20111031 374297109 US3742971092 GTY      NYSE         GETTY REALTY CORP             13888     221365.06  0.040268 10 Financial Services             1050 Real Estate                                      1050806 Real Estate Investment Trusts (REITs)            
20111031 374689107 US3746891072 ROCK     NASDAQ       GIBRALTAR INDUSTRIES INC      30406     339330.96  0.061726 07 Materials & Processing         0710 Building Materials & Services                    0710430 Building Materials                               
20111031 37637Q105 US37637Q1058 GBCI     NASDAQ       GLACIER BANCORP INC           71915     816235.25  0.148478 10 Financial Services             1010 Banks                                            1010400 Banks: Diversified                               
20111031 376535100 US3765351008 GLAD     NASDAQ       GLADSTONE CAPITAL CORP        21039     173361.36  0.031535 10 Financial Services             1040 Investment Banking & Brokerage Services          1040544 Asset Management & Custodian                     
20111031 376536108 US3765361080 GOOD     NASDAQ       GLADSTONE COMMERCIAL           6425     108127.95  0.019669 10 Financial Services             1050 Real Estate                                      1050806 Real Estate Investment Trusts (REITs)            
20111031 376546107 US3765461070 GAIN     NASDAQ       GLADSTONE INVESTMENT          22080     165379.20  0.030083 10 Financial Services             1040 Investment Banking & Brokerage Services          1040823 Securities Brokerage & Services                  
20111031 377316104 US3773161043 GLT      NYSE         GLATFELTER                    46039     690585.00  0.125622 07 Materials & Processing         0730 Industrial Materials & Processes                 0730720 Paper                                            
20111031 377341102 US3773411026 GLCH     NASDAQ       GLEACHER & COMPANY INC        78788     100848.64  0.018345 10 Financial Services             1040 Investment Banking & Brokerage Services          1040457 Diversified Financial Services                   
20111031 378967103 US3789671035 GCA      NYSE         GLOBAL CASH ACCESS INC        64500     192210.00  0.034964 10 Financial Services             1020 Consumer Finance & Credit Services               1020489 Financial Data & Systems                         
20111031 378973408 US3789734080 GSAT     NASDAQ       GLOBALSTAR INC               102263      72606.73  0.013208 11 Utilities                      1110 Utilities                                        1110880 Utilities: Telecommunications                    
20111031 379302102 US3793021029 GRT      NYSE         GLIMCHER REALTY TRUST         13716     125640.61  0.022855 10 Financial Services             1050 Real Estate                                      1050806 Real Estate Investment Trusts (REITs)            
20111031 379336100 US3793361003 GLBL     NASDAQ       GLOBAL INDUSTRIES LTD        101229     804770.55  0.146393 06 Energy                         0610 Energy Equipment & Services                      0610600 Oil Well Equipment & Services                    
20111031 37941P306 US37941P3064 GLPW     NASDAQ       GLOBAL POWER EQUIPMENT         7814     207161.86  0.037684 08 Producer Durables              0820 Manufacturing & Production                       0820734 Power Transmission Equip                         
20111031 37956X103 US37956X1037 GCOM     NASDAQ       GLOBECOMM SYSTEMS INC          6547      88976.77  0.016185 01 Technology                     0140 Telecommunication                                0140448 Communications Technology                        
20111031 38011M108 US38011M1080 GMXR     NYSE         GMX RESOURCES INC             40720     101799.08  0.018518 06 Energy                         0620 Non-Renewable Energy                             0620670 Oil: Crude Producers                             
20111031 381119106 US3811191069 AUMN     NYSE AMEX    GOLDEN MINERALS CO             1924      13487.70  0.002453 07 Materials & Processing         0740 Metals & Minerals                                0740549 Precious Metals & Minerals                       
20111031 38119T104 CA38119T1049 GSS      NYSE AMEX    GOLDEN STAR RES LTD CDA      258559     514532.41  0.093597 07 Materials & Processing         0740 Metals & Minerals                                0740498 Gold                                             
20111031 38173M102 US38173M1027 GBDC     NASDAQ       GOLUB CAP BDC INC             10246     159017.92  0.028926 10 Financial Services             1040 Investment Banking & Brokerage Services          1040544 Asset Management & Custodian                     
20111031 38269P100 US38269P1003 GMAN     NASDAQ       GORDMANS STORES INC             271       3800.18  0.000691 03 Consumer Discretionary         0360 Retail                                           0360815 Diversified Retail                               
20111031 38376A103 US38376A1034 GOV      NYSE         GOVERNMENT PPTY INCOME        35399     832938.47  0.151517 10 Financial Services             1050 Real Estate                                      1050806 Real Estate Investment Trusts (REITs)            
20111031 387328107 US3873281071 GVA      NYSE         GRANITE CONSTR INC            38641     869422.50  0.158153 08 Producer Durables              0820 Manufacturing & Production                       0820443 Construction                                     
20111031 388689101 US3886891015 GPK      NYSE         GRAPHIC PACKAGING HLDG        20139      89018.09  0.016193 07 Materials & Processing         0730 Industrial Materials & Processes                 0730442 Containers & Packaging                           
20111031 389375106 US3893751061 GTN      NYSE         GRAY TELEVISION INC           49604      94247.60  0.017144 03 Consumer Discretionary         0350 Media                                            0350760 Radio & TV Broadcasters                          
20111031 390607109 US3906071093 GLDD     NASDAQ       GREAT LAKES DREDGE & DOC      58814     302892.10  0.055098 08 Producer Durables              0820 Manufacturing & Production                       0820443 Construction                                     
20111031 390905107 US3909051076 GSBC     NASDAQ       GREAT SOUTHERN BANCORP        10158     202042.62  0.036753 10 Financial Services             1010 Banks                                            1010820 Banks: Savings/Thrifts & Mortgage Lend           
20111031 39153L106 US39153L1061 GB       NYSE         GREATBATCH INC                23304     520378.32  0.094660 02 Health Care                    0220 Medical Equipment & Services                     0220471 Medical Equipment                                
20111031 393222104 US3932221043 GPRE     NASDAQ       GREEN PLAINS RENEWABLE        20722     216752.12  0.039429 06 Energy                         0630 Alternative Energy                               0630478 Alternative Energy                               
20111031 393657101 US3936571013 GBX      NYSE         GREENBRIER COMPANIES INC      18432     343019.52  0.062397 08 Producer Durables              0840 Transportation & Freight                         0840770 Railroad Equipment                               
20111031 398231100 US3982311009 GRIF     NASDAQ       GRIFFIN LAND & NURSERIES       2495      66915.90  0.012172 10 Financial Services             1050 Real Estate                                      1050805 Real Estate                                      
20111031 398433102 US3984331021 GFF      NYSE         GRIFFON CORP                  47677     451501.19  0.082131 07 Materials & Processing         0710 Building Materials & Services                    0710430 Building Materials                               
20111031 398905109 US3989051095 GPI      NYSE         GROUP 1 AUTOMOTIVE INC        24022    1094442.32  0.199086 03 Consumer Discretionary         0360 Retail                                           0360834 Specialty Retail                                 
20111031 402307102 US4023071024 GIFI     NASDAQ       GULF ISLAND FABRICATION       12253     341227.61  0.062071 06 Energy                         0610 Energy Equipment & Services                      0610600 Oil Well Equipment & Services                    
20111031 402629208 US4026292080 GLF      NYSE         GULFMARK OFFSHORE INC         19542     812723.17  0.147839 08 Producer Durables              0840 Transportation & Freight                         0840830 Shipping                                         
20111031 404030108 US4040301081 HEES     NASDAQ       H&E EQUIPMENT SERVICES        15406     169000.51  0.030742 08 Producer Durables              0840 Transportation & Freight                         0840808 Commercial Services: Rental & Leasing            
20111031 404609109 US4046091090 HCKT     NASDAQ       HACKETT GROUP INC             10684      44125.29  0.008027 08 Producer Durables              0850 Commercial Services                              0850365 Back Office Support HR & Consutling              
20111031 405217100 US4052171000 HAIN     NASDAQ       HAIN CELESTIAL GROUP          27000     906094.23  0.164824 04 Consumer Staples               0410 Food/Beverage & Tobacco                          0410494 Foods                                            
20111031 40609P105 US40609P1057 HNRG     NASDAQ       HALLADOR ENERGY CO              362       3441.97  0.000626 06 Energy                         0620 Non-Renewable Energy                             0620435 Coal                                             
20111031 40624Q203 US40624Q2030 HALL     NASDAQ       HALLMARK FINL SVCS INC         7160      55560.68  0.010107 10 Financial Services             1030 Insurance                                        1030542 Insurance: Property-Casualty                     
20111031 410120109 US4101201097 HBHC     NASDAQ       HANCOCK HOLDING CO            76308    2312132.40  0.420591 10 Financial Services             1010 Banks                                            1010400 Banks: Diversified                               
20111031 410315105 US4103151050 HNH      NASDAQ       HANDY & HARMAN HLDGS LTD       4999      59979.96  0.010911 07 Materials & Processing         0740 Metals & Minerals                                0740835 Steel                                            
20111031 41043F208 US41043F2083 HGR      NYSE         HANGER ORTHOPEDIC GROUP       15944     276957.22  0.050380 02 Health Care                    0210 Health Care Services                             0210504 Health Care Facilities                           
20111031 410495105 US4104951052 HAFC     NASDAQ       HANMI FINANCIAL CORP         151258     151258.00  0.027515 10 Financial Services             1010 Banks                                            1010400 Banks: Diversified                               
20111031 41146A106 US41146A1060 HRG      NYSE         HARBINGER GROUP INC            9048      46506.72  0.008460 07 Materials & Processing         0730 Industrial Materials & Processes                 0730452 Diversified Materials & Processing               
20111031 412824104 US4128241043 HGIC     NASDAQ       HARLEYSVILLE GROUP INC        12191     716343.16  0.130307 10 Financial Services             1030 Insurance                                        1030542 Insurance: Property-Casualty                     
20111031 413160102 US4131601027 HLIT     NASDAQ       HARMONIC INC                  90571     498135.54  0.090614 01 Technology                     0140 Telecommunication                                0140448 Communications Technology                        
20111031 413833104 US4138331040 TINY     NASDAQ       HARRIS & HARRIS GROUP         31001     121833.93  0.022162 10 Financial Services             1040 Investment Banking & Brokerage Services          1040544 Asset Management & Custodian                     
20111031 416196103 US4161961036 HHS      NYSE         HARTE HANKS INC               44260     388602.80  0.070689 03 Consumer Discretionary         0350 Media                                            0350301 Advertising Agencies                             
20111031 416906105 US4169061052 HBIO     NASDAQ       HARVARD BIOSCIENCE INC        21619      98580.80  0.017932 02 Health Care                    0230 Pharmaceuticals & Biotech                        0230412 Biotechnology                                    
20111031 41754V103 US41754V1035 HNR      NYSE         HARVEST NATURAL RES           33975     362513.25  0.065943 06 Energy                         0620 Non-Renewable Energy                             0620670 Oil: Crude Producers                             
20111031 41902R103 US41902R1032 HTS      NYSE         HATTERAS FINL CORP            74747    1920997.90  0.349441 10 Financial Services             1050 Real Estate                                      1050806 Real Estate Investment Trusts (REITs)            
20111031 419596101 US4195961010 HVT      NYSE         HAVERTY FURNITURE INC         18784     218270.08  0.039705 03 Consumer Discretionary         0360 Retail                                           0360834 Specialty Retail                                 
20111031 419879101 US4198791018 HA       NASDAQ       HAWAIIAN HOLDINGS INC         50402     269650.70  0.049051 08 Producer Durables              0840 Transportation & Freight                         0840310 Air Transport                                    
20111031 420877201 US4208772016 HAYN     NASDAQ       HAYNES INTERNATIONAL INC       2733     159880.78  0.029083 07 Materials & Processing         0740 Metals & Minerals                                0740630 Metal Fabricating                                
20111031 421924309 US4219243098 HLS      NYSE         HEALTHSOUTH CORP              95127    1679942.82  0.305592 02 Health Care                    0210 Health Care Services                             0210504 Health Care Facilities                           
20111031 421946104 US4219461047 HR       NYSE         HEALTHCARE REALTY TRUST       77829    1470189.81  0.267436 10 Financial Services             1050 Real Estate                                      1050806 Real Estate Investment Trusts (REITs)            
20111031 42210P102 US42210P1021 HW       NYSE         HEADWATERS INC                60810     107025.60  0.019469 07 Materials & Processing         0710 Building Materials & Services                    0710430 Building Materials                               
20111031 422245100 US4222451001 HWAY     NASDAQ       HEALTHWAYS INC                33961     243160.76  0.044232 02 Health Care                    0210 Health Care Services                             0210499 Health Care Services                             
20111031 42224N101 US42224N1019 HS       NYSE         HEALTHSPRING INC              31033    1673928.87  0.304498 02 Health Care                    0210 Health Care Services                             0210503 Health Care Management Services                  
20111031 42234Q102 US42234Q1022 HTLF     NASDAQ       HEARTLAND FINANCIAL USA       13315     208113.45  0.037857 10 Financial Services             1010 Banks                                            1010400 Banks: Diversified                               
20111031 422680108 US4226801086 HEK      NYSE         HECKMANN CORP                 46938     281153.64  0.051144 04 Consumer Staples               0410 Food/Beverage & Tobacco                          0410410 Beverage: Soft Drinks                            
20111031 422819102 US4228191023 HSII     NASDAQ       HEIDRICK & STRUGGLES          16292     322237.17  0.058617 08 Producer Durables              0850 Commercial Services                              0850365 Back Office Support HR & Consutling              
20111031 42330P107 US42330P1075 HLX      NYSE         HELIX ENERGY SOLUTIONS       106011    1914558.66  0.348270 06 Energy                         0610 Energy Equipment & Services                      0610600 Oil Well Equipment & Services                    
20111031 426927109 US4269271098 HTBK     NASDAQ       HERITAGE COMMERCE CORP        20855     100729.65  0.018323 10 Financial Services             1010 Banks                                            1010400 Banks: Diversified                               
20111031 427093109 US4270931094 HERO     NASDAQ       HERCULES OFFSHORE INC        115172     436501.88  0.079402 06 Energy                         0620 Non-Renewable Energy                             0620660 Offshore Drilling & Other Services               
20111031 427096508 US4270965084 HTGC     NASDAQ       HERCULES TECHNOLOGY GR        43799     423974.32  0.077124 10 Financial Services             1040 Investment Banking & Brokerage Services          1040544 Asset Management & Custodian                     
20111031 42722X106 US42722X1063 HFWA     NASDAQ       HERITAGE FINANCIAL CORP       15649     197333.89  0.035896 10 Financial Services             1010 Banks                                            1010820 Banks: Savings/Thrifts & Mortgage Lend           
20111031 427825104 US4278251040 HT       NYSE         HERSHA HOSPITALITY TRUST     140761     620756.01  0.112919 10 Financial Services             1050 Real Estate                                      1050806 Real Estate Investment Trusts (REITs)            
20111031 428291108 US4282911084 HXL      NYSE         HEXCEL CORP                   15082     372691.19  0.067795 07 Materials & Processing         0730 Industrial Materials & Processes                 0730452 Diversified Materials & Processing               
20111031 42833L108 US42833L1089 HGG      NYSE         HHGREGG INC                   17046     217332.27  0.039534 03 Consumer Discretionary         0360 Retail                                           0360834 Specialty Retail                                 
20111031 42840B101 US42840B1017 HITK     NASDAQ       HI-TECH PHARMACAL CO INC       7152     254009.20  0.046206 02 Health Care                    0230 Pharmaceuticals & Biotech                        0230460 Pharmaceuticals                                  
20111031 431284108 US4312841087 HIW      NYSE         HIGHWOODS PROPERTIES INC      17525     542952.04  0.098766 10 Financial Services             1050 Real Estate                                      1050806 Real Estate Investment Trusts (REITs)            
20111031 431466101 US4314661012 HIL      NYSE         HILL INTERNATIONAL INC        25063     140352.80  0.025531 08 Producer Durables              0850 Commercial Services                              0850479 Engineering & Contracting Services               
20111031 432748101 US4327481010 HTH      NYSE         HILLTOP HOLDINGS INC          39831     313868.28  0.057095 10 Financial Services             1030 Insurance                                        1030542 Insurance: Property-Casualty                     
20111031 436893200 US4368932004 HOMB     NASDAQ       HOME BANCSHARES INC           22423     525819.35  0.095650 10 Financial Services             1010 Banks                                            1010400 Banks: Diversified                               
20111031 43710G105 US43710G1058 HOME     NASDAQ       HOME FEDERAL BANCORP          16562     166448.10  0.030278 10 Financial Services             1010 Banks                                            1010820 Banks: Savings/Thrifts & Mortgage Lend           
20111031 440327104 US4403271046 HMN      NYSE         HORACE MANN EDUCATORS         39884     536439.80  0.097582 10 Financial Services             1030 Insurance                                        1030535 Insurance: Multi-Line                            
20111031 44047T109 US44047T1097 HZNP     NASDAQ       HORIZON PHARMA INC              769       6921.04  0.001259 02 Health Care                    0230 Pharmaceuticals & Biotech                        0230460 Pharmaceuticals                                  
20111031 440543106 US4405431069 HOS      NYSE         HORNBECK OFFSHORE SVCS        22842     750131.28  0.136453 06 Energy                         0610 Energy Equipment & Services                      0610600 Oil Well Equipment & Services                    
20111031 440694305 US4406943054 ZINC     NASDAQ       HORSEHEAD HOLDING CORP        41450     359781.43  0.065446 07 Materials & Processing         0740 Metals & Minerals                                0740549 Precious Metals & Minerals                       
20111031 441339108 US4413391081 HOTT     NASDAQ       HOT TOPIC INC                 44748     338294.88  0.061538 03 Consumer Discretionary         0360 Retail                                           0360834 Specialty Retail                                 
20111031 442487203 US4424872038 HOV      NYSE         HOVNANIAN ENTERPRISES         61251      88201.44  0.016044 03 Consumer Discretionary         0320 Consumer Products                                0320501 Homebuilding                                     
20111031 443792106 US4437921061 HHGP     NASDAQ       HUDSON HIGHLAND GROUP         32785     151794.55  0.027612 08 Producer Durables              0850 Commercial Services                              0850365 Back Office Support HR & Consutling              
20111031 444097109 US4440971095 HPP      NYSE         HUDSON PAC PPTYS INC          22051     294601.36  0.053590 10 Financial Services             1050 Real Estate                                      1050806 Real Estate Investment Trusts (REITs)            
20111031 444172100 US4441721002 HVB      NYSE         HUDSON VALLEY HOLDING         14186     308119.92  0.056049 10 Financial Services             1010 Banks                                            1010400 Banks: Diversified                               
20111031 447324104 US4473241044 HURC     NASDAQ       HURCO COMPANIES INC            6441     168238.92  0.030604 08 Producer Durables              0810 Machinery                                        0810610 Machinery: Specialty                             
20111031 447462102 US4474621020 HURN     NASDAQ       HURON CONSULTING GROUP         1331      47963.16  0.008725 08 Producer Durables              0850 Commercial Services                              0850365 Back Office Support HR & Consutling              
20111031 448947507 US4489475073 IDT      NYSE         IDT CORP                       1125      12940.40  0.002354 11 Utilities                      1110 Utilities                                        1110880 Utilities: Telecommunications                    
20111031 44925C103 US44925C1036 ICFI     NASDAQ       ICF INTERNATIONAL INC         12742     297899.17  0.054190 08 Producer Durables              0850 Commercial Services                              0850365 Back Office Support HR & Consutling              
20111031 44928D108 US44928D1081 ICGE     NASDAQ       ICG GROUP INC                 34452     371736.70  0.067621 01 Technology                     0130 Information Technology                           0130439 Computer Services Software & Systems             
20111031 44930G107 US44930G1076 ICUI     NASDAQ       ICU MEDICAL INC                9209     361973.71  0.065845 02 Health Care                    0220 Medical Equipment & Services                     0220507 Medical & Dental Instruments & Supplies          
20111031 45031U101 US45031U1016 SFI      NYSE         ISTAR FINANCIAL INC           92472     627884.88  0.114216 10 Financial Services             1050 Real Estate                                      1050806 Real Estate Investment Trusts (REITs)            
20111031 450828108 US4508281080 IBKC     NASDAQ       IBERIABANK CORP               29536    1527601.92  0.277880 10 Financial Services             1010 Banks                                            1010400 Banks: Diversified                               
20111031 451055107 US4510551074 ICON     NASDAQ       ICONIX BRAND GROUP INC        72939    1309255.05  0.238161 03 Consumer Discretionary         0320 Consumer Products                                0320850 Textiles Apparel & Shoes                         
20111031 451107106 US4511071064 IDA      NYSE         IDACORP INC                   49561    2001273.18  0.364044 11 Utilities                      1110 Utilities                                        1110870 Utilities: Electrical                            
20111031 45166R204 US45166R2040 IDIX     NASDAQ       IDENIX PHARMACEUTICALS        39630     237778.79  0.043253 02 Health Care                    0230 Pharmaceuticals & Biotech                        0230412 Biotechnology                                    
20111031 45170X106 US45170X1063 INVE     NASDAQ       IDENTIVE GROUP INC            38695      91707.15  0.016682 01 Technology                     0130 Information Technology                           0130449 Computer Technology                              
20111031 45245A107 US45245A1079 IMN      NYSE         IMATION CORP                  30040     201868.80  0.036721 01 Technology                     0130 Information Technology                           0130449 Computer Technology                              
20111031 452521107 US4525211078 IMMR     NASDAQ       IMMERSION CORP                 2424      16658.93  0.003030 01 Technology                     0130 Information Technology                           0130449 Computer Technology                              
20111031 45253H101 US45253H1014 IMGN     NASDAQ       IMMUNOGEN INC                 21334     289720.66  0.052702 02 Health Care                    0230 Pharmaceuticals & Biotech                        0230412 Biotechnology                                    
20111031 45256B101 US45256B1017 IPXL     NASDAQ       IMPAX LABORATORIES INC         5679     107399.99  0.019537 02 Health Care                    0230 Pharmaceuticals & Biotech                        0230460 Pharmaceuticals                                  
20111031 452834104 US4528341047 IFT      NYSE         IMPERIAL HOLDINGS INC          2639       5939.33  0.001080 10 Financial Services             1020 Consumer Finance & Credit Services               1020492 Consumer Lending                                 
20111031 453096208 US4530962087 IPSU     NASDAQ       IMPERIAL SUGAR CO             12245      82898.65  0.015080 04 Consumer Staples               0410 Food/Beverage & Tobacco                          0410840 Sugar                                            
20111031 45336E109 US45336E1091 SAAS     NASDAQ       INCONTACT INC                  2577      10672.06  0.001941 11 Utilities                      1110 Utilities                                        1110880 Utilities: Telecommunications                    
20111031 453440307 US4534403070 IHC      NYSE         INDEPENDENCE HOLDING CO        7362      61030.98  0.011102 10 Financial Services             1030 Insurance                                        1030528 Insurance: Life                                  
20111031 453836108 US4538361084 INDB     NASDAQ       INDEPENDENT BANK MA           21434     555569.28  0.101061 10 Financial Services             1010 Banks                                            1010400 Banks: Diversified                               
20111031 45665Q103 US45665Q1031 IPCC     NASDAQ       INFINITY PPTY & CAS CORP      12400     718704.00  0.130737 10 Financial Services             1030 Insurance                                        1030542 Insurance: Property-Casualty                     
20111031 45667G103 US45667G1031 INFN     NASDAQ       INFINERA CORP                 97957     716064.14  0.130256 01 Technology                     0140 Telecommunication                                0140448 Communications Technology                        
20111031 45678T300 US45678T3005 INSP     NASDAQ       INFOSPACE INC                 32258     282575.57  0.051402 01 Technology                     0130 Information Technology                           0130439 Computer Services Software & Systems             
20111031 457030104 US4570301048 IMKTA    NASDAQ       INGLES MARKETS INC            12599     190244.90  0.034607 04 Consumer Staples               0420 Personal Care/Drug & Grocery Stores              0420459 Drug & Grocery Store Chains                      
20111031 45719T103 US45719T1034 INHX     NASDAQ       INHIBITEX INC                 17354      67510.49  0.012281 02 Health Care                    0230 Pharmaceuticals & Biotech                        0230412 Biotechnology                                    
20111031 457461200 US4574612002 IRC      NYSE         INLAND REAL ESTATE CORP       77109     578317.50  0.105199 10 Financial Services             1050 Real Estate                                      1050806 Real Estate Investment Trusts (REITs)            
20111031 45765U103 US45765U1034 NSIT     NASDAQ       INSIGHT ENTERPRISES INC       46715     789483.50  0.143612 01 Technology                     0130 Information Technology                           0130449 Computer Technology                              
20111031 457669307 US4576693075 INSM     NASDAQ       INSMED INC                    24828      87642.84  0.015943 02 Health Care                    0230 Pharmaceuticals & Biotech                        0230412 Biotechnology                                    
20111031 45768S105 US45768S1050 IOSP     NASDAQ       INNOSPEC INC                   2536      76600.34  0.013934 07 Materials & Processing         0720 Chemicals and Synthetics                         0720833 Chemicals: Specialty                             
20111031 45774W108 US45774W1080 IIIN     NASDAQ       INSTEEL INDUSTRIES INC        16681     171975.52  0.031283 07 Materials & Processing         0730 Industrial Materials & Processes                 0730452 Diversified Materials & Processing               
20111031 458118106 US4581181066 IDTI     NASDAQ       INTEGRATED DEVICE TECH        53490     325221.95  0.059160 01 Technology                     0120 Electronics                                      0120476 Semiconductors & Components                      
20111031 45812P107 US45812P1075 ISSI     NASDAQ       INTEGRATED SILICON S          26766     246514.86  0.044843 01 Technology                     0120 Electronics                                      0120476 Semiconductors & Components                      
20111031 458743101 US4587431010 IBI      NYSE         INTERLINE BRANDS INC          30389     452784.58  0.082364 07 Materials & Processing         0710 Building Materials & Services                    0710415 Building: Climate Control                        
20111031 458786100 US4587861000 IN       NYSE         INTERMEC INC                  59392     479293.44  0.087186 01 Technology                     0130 Information Technology                           0130449 Computer Technology                              
20111031 45884X103 US45884X1037 ITMN     NASDAQ       INTERMUNE INC                 29031     740270.61  0.134660 02 Health Care                    0230 Pharmaceuticals & Biotech                        0230412 Biotechnology                                    
20111031 45885A300 US45885A3005 INAP     NASDAQ       INTERNAP NETWORK SVCS CO       7264      41261.89  0.007506 01 Technology                     0130 Information Technology                           0130439 Computer Services Software & Systems             
20111031 459044103 US4590441030 IBOC     NASDAQ       INTERNATIONAL BANCSHARES      53007     960486.84  0.174718 10 Financial Services             1010 Banks                                            1010400 Banks: Diversified                               
20111031 460321201 US4603212014 ISH      NYSE         INTL SHIPHOLDING CORP          5428     110405.52  0.020083 08 Producer Durables              0840 Transportation & Freight                         0840830 Shipping                                         
20111031 460335201 US4603352018 ISCA     NASDAQ       INTERNATIONAL SPEEDWAY        29448     702629.28  0.127813 03 Consumer Discretionary         0340 Leisure                                          0340556 Leisure Time                                     
20111031 461148108 US4611481080 IVAC     NASDAQ       INTEVAC INC                   22838     183845.90  0.033443 01 Technology                     0120 Electronics                                      0120738 Production Technology Equipment                  
20111031 46116V105 US46116V1052 INTL     NASDAQ       INTL FCSTONE INC              13272     321713.28  0.058522 10 Financial Services             1040 Investment Banking & Brokerage Services          1040823 Securities Brokerage & Services                  
20111031 461203101 US4612031017 IVC      NYSE         INVACARE CORP                 27008     606310.29  0.110292 02 Health Care                    0220 Medical Equipment & Services                     0220507 Medical & Dental Instruments & Supplies          
20111031 46131B100 US46131B1008 IVR      NYSE         INVESCO MORTGAGE CAP         115385    1820775.30  0.331210 10 Financial Services             1050 Real Estate                                      1050806 Real Estate Investment Trusts (REITs)            
20111031 46145F105 US46145F1057 ITG      NYSE         INVESTMENT TECHNOLOGY         41252     470685.32  0.085621 10 Financial Services             1040 Investment Banking & Brokerage Services          1040823 Securities Brokerage & Services                  
20111031 46146P102 US46146P1021 ISBC     NASDAQ       INVESTORS BANCORP INC         39852     553137.22  0.100619 10 Financial Services             1010 Banks                                            1010400 Banks: Diversified                               
20111031 461730103 US4617301035 IRET     NASDAQ       INVESTORS REAL ESTATE TR      64940     481199.76  0.087533 10 Financial Services             1050 Real Estate                                      1050806 Real Estate Investment Trusts (REITs)            
20111031 46269C102 US46269C1027 IRDM     NASDAQ       IRIDIUM COMMUNICATIONS        38431     244418.01  0.044461 11 Utilities                      1110 Utilities                                        1110880 Utilities: Telecommunications                    
20111031 46270W105 US46270W1053 IRIS     NASDAQ       IRIS INTERNATIONAL INC         5107      46276.12  0.008418 02 Health Care                    0220 Medical Equipment & Services                     0220471 Medical Equipment                                
20111031 464592104 US4645921044 ISLE     NASDAQ       ISLE OF CAPRI CASINOS         20408     111019.52  0.020195 03 Consumer Discretionary         0340 Leisure                                          0340434 Casinos & Gambling                               
20111031 46600W106 US46600W1062 IXYS     NASDAQ       IXYS CORP                      8333     113923.32  0.020723 01 Technology                     0120 Electronics                                      0120476 Semiconductors & Components                      
20111031 46612K108 US46612K1088 JDAS     NASDAQ       JDA SOFTWARE GROUP INC        34440    1097587.69  0.199658 01 Technology                     0130 Information Technology                           0130439 Computer Services Software & Systems             
20111031 46629U107 US46629U1079 JMP      NYSE         JMP GROUP INC                 15149     112405.58  0.020447 10 Financial Services             1040 Investment Banking & Brokerage Services          1040544 Asset Management & Custodian                     
20111031 466367109 US4663671091 JACK     NASDAQ       JACK IN THE BOX INC           43788     901145.52  0.163924 03 Consumer Discretionary         0340 Leisure                                          0340810 Restaurants                                      
20111031 47009M103 CA47009M1032 JAG      NYSE         JAGUAR MNG INC                84374     438744.80  0.079810 07 Materials & Processing         0740 Metals & Minerals                                0740498 Gold                                             
20111031 47012E106 US47012E1064 JAKK     NASDAQ       JAKKS PACIFIC INC             27207     516116.79  0.093885 03 Consumer Discretionary         0320 Consumer Products                                0320858 Toys                                             
20111031 470355207 US4703552079 JRCC     NASDAQ       JAMES RIVER COAL CO           35521     367642.35  0.066876 06 Energy                         0620 Non-Renewable Energy                             0620435 Coal                                             
20111031 477143101 US4771431016 JBLU     NASDAQ       JETBLUE AIRWAYS CORP         246426    1103988.48  0.200822 08 Producer Durables              0840 Transportation & Freight                         0840310 Air Transport                                    
20111031 477839104 US4778391049 JBT      NYSE         JOHN BEAN TECH CORP            2062      33284.30  0.006055 08 Producer Durables              0810 Machinery                                        0810584 Machinery: Industrial                            
20111031 479167108 US4791671088 JOUT     NASDAQ       JOHNSON OUTDOORS INC           4827      89733.93  0.016323 03 Consumer Discretionary         0340 Leisure                                          0340556 Leisure Time                                     
20111031 48020T101 US48020T1016 JNY      NYSE         THE JONES GROUP INC           87453     976850.01  0.177695 03 Consumer Discretionary         0320 Consumer Products                                0320850 Textiles Apparel & Shoes                         
20111031 481130102 US4811301021 JRN      NYSE         JOURNAL COMMUNICATIONS        43200     166752.00  0.030333 03 Consumer Discretionary         0350 Media                                            0350740 Publishing                                       
20111031 482423100 US4824231009 KBW      NYSE         KBW INC                       36129     511586.64  0.093061 10 Financial Services             1040 Investment Banking & Brokerage Services          1040823 Securities Brokerage & Services                  
20111031 482470200 US4824702009 KITD     NASDAQ       KIT DIGITAL INC               38458     346122.00  0.062962 01 Technology                     0130 Information Technology                           0130439 Computer Services Software & Systems             
20111031 482564101 US4825641016 KMGB     NASDAQ       KMG CHEMICALS INC               875      12724.04  0.002315 07 Materials & Processing         0720 Chemicals and Synthetics                         0720433 Chemicals: Diversified                           
20111031 482686102 US4826861027 KSWS     NASDAQ       K-SWISS INC                   26182     117819.00  0.021432 03 Consumer Discretionary         0320 Consumer Products                                0320850 Textiles Apparel & Shoes                         
20111031 482738101 US4827381017 KVHI     NASDAQ       KVH INDUSTRIES INC            14088     103684.53  0.018861 01 Technology                     0140 Telecommunication                                0140448 Communications Technology                        
20111031 482740206 US4827402060 KV.A     NYSE         K V PHARMACEUTICAL CO         17405      19320.27  0.003514 02 Health Care                    0230 Pharmaceuticals & Biotech                        0230460 Pharmaceuticals                                  
20111031 48282T104 US48282T1043 KAI      NYSE         KADANT INC                     8958     193925.80  0.035276 08 Producer Durables              0810 Machinery                                        0810584 Machinery: Industrial                            
20111031 483007704 US4830077040 KALU     NASDAQ       KAISER ALUMINUM CORP           9232     428913.80  0.078022 07 Materials & Processing         0740 Metals & Minerals                                0740320 Aluminum                                         
20111031 483548103 US4835481031 KAMN     NASDAQ       KAMAN CORP                    11742     390429.58  0.071022 08 Producer Durables              0840 Transportation & Freight                         0840300 Aerospace                                        
20111031 484836101 US4848361014 KCLI     NASDAQ       KANSAS CITY LIFE INS CO        4277     143365.04  0.026079 10 Financial Services             1030 Insurance                                        1030528 Insurance: Life                                  
20111031 48562P103 US48562P1030 KS       NYSE         KAPSTONE PAPER & PACKAGI      39067     640698.80  0.116547 07 Materials & Processing         0730 Industrial Materials & Processes                 0730720 Paper                                            
20111031 486587108 US4865871085 KDN      NYSE         KAYDON CORP                   32600    1025596.00  0.186562 07 Materials & Processing         0740 Metals & Minerals                                0740630 Metal Fabricating                                
20111031 48666K109 US48666K1097 KBH      NYSE         KB HOME                       76958     536397.26  0.097574 03 Consumer Discretionary         0320 Consumer Products                                0320501 Homebuilding                                     
20111031 487169104 US4871691048 KRNY     NASDAQ       KEARNY FINANCIAL CORP         13323     129632.79  0.023581 10 Financial Services             1010 Banks                                            1010820 Banks: Savings/Thrifts & Mortgage Lend           
20111031 488152208 US4881522084 KELYA    NASDAQ       KELLY SERVICES INC            26654     435792.90  0.079273 08 Producer Durables              0850 Commercial Services                              0850365 Back Office Support HR & Consutling              
20111031 488360207 US4883602074 KEM      NYSE         KEMET CORP                    41896     386276.54  0.070266 01 Technology                     0120 Electronics                                      0120463 Electronic Components                            
20111031 489398107 US4893981070 KW       NYSE         KENNEDY-WILSON HLDGS INC      23786     295422.12  0.053739 10 Financial Services             1050 Real Estate                                      1050805 Real Estate                                      
20111031 492914106 US4929141061 KEG      NYSE         KEY ENERGY SERVICES INC       12975     167775.34  0.030519 06 Energy                         0610 Energy Equipment & Services                      0610600 Oil Well Equipment & Services                    
20111031 493723100 US4937231003 KEYW     NASDAQ       KEYW HOLDING CORP             18427     154786.80  0.028157 01 Technology                     0130 Information Technology                           0130439 Computer Services Software & Systems             
20111031 493732101 US4937321010 KFRC     NASDAQ       KFORCE INC                     3774      48167.06  0.008762 08 Producer Durables              0850 Commercial Services                              0850365 Back Office Support HR & Consutling              
20111031 494274103 US4942741038 KBALB    NASDAQ       KIMBALL INTERNATIONAL         31332     176399.16  0.032088 08 Producer Durables              0820 Manufacturing & Production                       0820650 Office Supplies Equipment                        
20111031 49427F108 US49427F1084 KRC      NYSE         KILROY REALTY CORP            29638    1087407.18  0.197806 10 Financial Services             1050 Real Estate                                      1050806 Real Estate Investment Trusts (REITs)            
20111031 494580103 US4945801037 KND      NYSE         KINDRED HEALTHCARE INC        51969     605438.85  0.110133 02 Health Care                    0210 Health Care Services                             0210504 Health Care Facilities                           
20111031 497217109 US4972171098 KIOR     NASDAQ       KIOR INC                       4730      78193.51  0.014224 06 Energy                         0630 Alternative Energy                               0630478 Alternative Energy                               
20111031 497498105 US4974981056 KIRK     NASDAQ       KIRKLANDS INC                 16751     188281.24  0.034250 03 Consumer Discretionary         0320 Consumer Products                                0320523 Household Furnishings                            
20111031 49803T102 US49803T1025 KRG      NYSE         KITE REALTY GROUP TRUST       55680     229958.40  0.041831 10 Financial Services             1050 Real Estate                                      1050806 Real Estate Investment Trusts (REITs)            
20111031 499005106 US4990051066 KCG      NYSE         KNIGHT CAPITAL GROUP INC     100363    1253533.87  0.228025 10 Financial Services             1040 Investment Banking & Brokerage Services          1040823 Securities Brokerage & Services                  
20111031 499183804 US4991838040 KNOL     NASDAQ       KNOLOGY INC                    2042      29274.13  0.005325 03 Consumer Discretionary         0350 Media                                            0350432 Cable Television Services                        
20111031 500233101 US5002331016 KCAP     NASDAQ       KOHLBERG CAPITAL CORP         19114     125770.12  0.022878 10 Financial Services             1040 Investment Banking & Brokerage Services          1040544 Asset Management & Custodian                     
20111031 500600101 US5006001011 KOPN     NASDAQ       KOPIN CORP                    39642     160546.33  0.029204 01 Technology                     0120 Electronics                                      0120476 Semiconductors & Components                      
20111031 500643200 US5006432000 KFY      NYSE         KORN FERRY INTERNATIONAL      44338     708074.54  0.128803 08 Producer Durables              0850 Commercial Services                              0850365 Back Office Support HR & Consutling              
20111031 50077B207 US50077B2079 KTOS     NASDAQ       KRATOS DEFENSE & SEC SOL      33113     209605.29  0.038128 08 Producer Durables              0840 Transportation & Freight                         0840300 Aerospace                                        
20111031 50077C106 US50077C1062 KRA      NYSE         KRATON PERF POLYMERS           4050      79709.59  0.014500 07 Materials & Processing         0720 Chemicals and Synthetics                         0720833 Chemicals: Specialty                             
20111031 501242101 US5012421013 KLIC     NASDAQ       KULICKE & SOFFA INDS          71999     694790.35  0.126387 01 Technology                     0120 Electronics                                      0120738 Production Technology Equipment                  
20111031 50162D100 US50162D1000 LLEN     NASDAQ       L & L ENERGY INC              22296      60422.16  0.010991 06 Energy                         0620 Non-Renewable Energy                             0620435 Coal                                             
20111031 50187A107 US50187A1079 LHCG     NASDAQ       LHC GROUP INC                 14976     234961.20  0.042741 02 Health Care                    0210 Health Care Services                             0210499 Health Care Services                             
20111031 502079106 US5020791068 LMIA     NASDAQ       LMI AEROSPACE INC              4557      91655.27  0.016673 08 Producer Durables              0840 Transportation & Freight                         0840300 Aerospace                                        
20111031 50216C108 US50216C1080 LYTS     NASDAQ       LSI INDUSTRIES INC            19478     131086.94  0.023846 07 Materials & Processing         0710 Building Materials & Services                    0710430 Building Materials                               
20111031 502175102 US5021751020 LTC      NYSE         LTC PROPERTIES INC            24875     705446.49  0.128325 10 Financial Services             1050 Real Estate                                      1050806 Real Estate Investment Trusts (REITs)            
20111031 502403207 US5024032071 LTXC     NASDAQ       LTX-CREDENCE CORP             22802     144339.46  0.026256 01 Technology                     0120 Electronics                                      0120738 Production Technology Equipment                  
20111031 505336107 US5053361078 LZB      NYSE         LA Z BOY INC                  51865     526948.40  0.095855 03 Consumer Discretionary         0320 Consumer Products                                0320523 Household Furnishings                            
20111031 505597104 US5055971049 LG       NYSE         LACLEDE GROUP INC             22409     899049.08  0.163543 11 Utilities                      1110 Utilities                                        1110875 Utilities: Gas Distributors                      
20111031 511637100 US5116371007 LBAI     NASDAQ       LAKELAND BANCORP INC          21673     201342.17  0.036625 10 Financial Services             1010 Banks                                            1010400 Banks: Diversified                               
20111031 511656100 US5116561003 LKFN     NASDAQ       LAKELAND FINANCIAL CORP       16201     387041.89  0.070405 10 Financial Services             1010 Banks                                            1010400 Banks: Diversified                               
20111031 514766104 US5147661046 LNDC     NASDAQ       LANDEC CORP                   26386     163857.06  0.029807 07 Materials & Processing         0720 Chemicals and Synthetics                         0720433 Chemicals: Diversified                           
20111031 516012101 US5160121019 LCI      NYSE AMEX    LANNETT CO INC                11220      45888.85  0.008347 02 Health Care                    0230 Pharmaceuticals & Biotech                        0230460 Pharmaceuticals                                  
20111031 517942108 US5179421087 LHO      NYSE         LASALLE HOTEL PROPERTIES      85086    2034406.26  0.370071 10 Financial Services             1050 Real Estate                                      1050806 Real Estate Investment Trusts (REITs)            
20111031 518415104 US5184151042 LSCC     NASDAQ       LATTICE SEMICONDUCTOR         81515     515984.51  0.093861 01 Technology                     0120 Electronics                                      0120476 Semiconductors & Components                      
20111031 520776105 US5207761058 LAWS     NASDAQ       LAWSON PRODUCTS INC            3489      58161.63  0.010580 07 Materials & Processing         0740 Metals & Minerals                                0740630 Metal Fabricating                                
20111031 521050104 US5210501046 LAYN     NASDAQ       LAYNE CHRISTENSEN CO          19635     494605.65  0.089972 08 Producer Durables              0850 Commercial Services                              0850479 Engineering & Contracting Services               
20111031 521863308 US5218633080 LEAP     NASDAQ       LEAP WIRELESS INTL INC        48370     336164.72  0.061150 11 Utilities                      1110 Utilities                                        1110880 Utilities: Telecommunications                    
20111031 52186N106 US52186N1063 LF       NYSE         LEAPFROG ENTERPRISES INC      41439     154567.47  0.028117 03 Consumer Discretionary         0320 Consumer Products                                0320858 Toys                                             
20111031 528872104 US5288721047 LXRX     NASDAQ       LEXICON PHARMACEUTICALS      111349     134731.39  0.024508 02 Health Care                    0230 Pharmaceuticals & Biotech                        0230412 Biotechnology                                    
20111031 529043101 US5290431015 LXP      NYSE         LEXINGTON REALTY TRUST       119728     941062.08  0.171185 10 Financial Services             1050 Real Estate                                      1050806 Real Estate Investment Trusts (REITs)            
20111031 53217R207 US53217R2076 LTM      NYSE         LIFE TIME FITNESS INC          3975     171457.02  0.031189 03 Consumer Discretionary         0340 Leisure                                          0340556 Leisure Time                                     
20111031 53222Q103 US53222Q1031 LCUT     NASDAQ       LIFETIME BRANDS INC            9279     113482.17  0.020643 03 Consumer Discretionary         0320 Consumer Products                                0320523 Household Furnishings                            
20111031 53261M104 US53261M1045 LLNW     NASDAQ       LIMELIGHT NETWORKS INC        10382      28862.72  0.005250 01 Technology                     0130 Information Technology                           0130439 Computer Services Software & Systems             
20111031 532774106 US5327741063 TVL      NYSE         LIN TV CORP                   27246      85006.25  0.015463 03 Consumer Discretionary         0350 Media                                            0350760 Radio & TV Broadcasters                          
20111031 533535100 US5335351004 LINC     NASDAQ       LINCOLN EDUCATIONAL SVS       22581     211132.35  0.038406 03 Consumer Discretionary         0330 Consumer Services                                0330461 Education Services                               
20111031 536797103 US5367971034 LAD      NYSE         LITHIA MOTORS INC             22065     453877.05  0.082563 03 Consumer Discretionary         0360 Retail                                           0360834 Specialty Retail                                 
20111031 537008104 US5370081045 LFUS     NASDAQ       LITTELFUSE INC                 2750     134656.16  0.024495 08 Producer Durables              0830 Scientific Instruments & Services                0830465 Scientific Instruments: Electrical               
20111031 538034109 US5380341090 LYV      NYSE         LIVE NATION ENT INC          141122    1325135.58  0.241050 03 Consumer Discretionary         0350 Media                                            0350480 Entertainment                                    
20111031 539320101 US5393201018 LIZ      NYSE         LIZ CLAIBORNE INC             89767     719032.54  0.130796 03 Consumer Discretionary         0320 Consumer Products                                0320850 Textiles Apparel & Shoes                         
20111031 543881106 US5438811060 LORL     NASDAQ       LORAL SPACE & COMM            10065     608913.62  0.110765 01 Technology                     0140 Telecommunication                                0140448 Communications Technology                        
20111031 546347105 US5463471053 LPX      NYSE         LOUISIANA PACIFIC CORP       132151     878804.15  0.159860 07 Materials & Processing         0710 Building Materials & Services                    0710430 Building Materials                               
20111031 549282101 US5492821013 LUB      NYSE         LUBYS INC                     18806      90832.98  0.016523 03 Consumer Discretionary         0340 Leisure                                          0340810 Restaurants                                      
20111031 550819106 US5508191062 LDL      NYSE         LYDALL INC                    17155     188018.80  0.034202 08 Producer Durables              0820 Manufacturing & Production                       0820453 Diversified Manufacturing Operations             
20111031 552541104 US5525411048 MFW      NYSE         M & F WORLDWIDE CORP          10045     248690.93  0.045238 08 Producer Durables              0850 Commercial Services                              0850486 Forms and Bulk Printing Services                 
20111031 55264U108 US55264U1088 MBFI     NASDAQ       MB FINANCIAL INC              54428     901871.96  0.164056 10 Financial Services             1010 Banks                                            1010400 Banks: Diversified                               
20111031 552676108 US5526761086 MDC      NYSE         MDC HOLDINGS INC              37506     840134.40  0.152826 03 Consumer Discretionary         0320 Consumer Products                                0320501 Homebuilding                                     
20111031 55272X102 US55272X1028 MFA      NYSE         MFA FINANCIAL INC            356059    2403398.25  0.437193 10 Financial Services             1050 Real Estate                                      1050806 Real Estate Investment Trusts (REITs)            
20111031 55277J108 US55277J1088 MF       NYSE         MF GLOBAL HOLDINGS LTD       163841     196609.20  0.035764 10 Financial Services             1040 Investment Banking & Brokerage Services          1040823 Securities Brokerage & Services                  
20111031 55277P104 US55277P1049 MGEE     NASDAQ       MGE ENERGY INC                23114    1008694.96  0.183488 11 Utilities                      1110 Utilities                                        1110870 Utilities: Electrical                            
20111031 552848103 US5528481030 MTG      NYSE         MGIC INVESTMENT CORP         187666     499191.56  0.090806 10 Financial Services             1020 Consumer Finance & Credit Services               1020492 Consumer Lending                                 
20111031 55302G103 US55302G1031 MGPI     NASDAQ       MGP INGREDIENTS INC           12024      78877.44  0.014348 04 Consumer Staples               0410 Food/Beverage & Tobacco                          0410646 Fruit & Grain Processing                         
20111031 55305B101 US55305B1017 MHO      NYSE         M/I HOMES INC                 18710     139763.70  0.025424 03 Consumer Discretionary         0320 Consumer Products                                0320501 Homebuilding                                     
20111031 55306N104 US55306N1046 MKSI     NASDAQ       MKS INSTRUMENTS INC           52264    1392312.96  0.253270 01 Technology                     0120 Electronics                                      0120738 Production Technology Equipment                  
20111031 553274101 US5532741015 MPG      NYSE         MPG OFFICE TRUST INC          49044     117215.16  0.021322 10 Financial Services             1050 Real Estate                                      1050806 Real Estate Investment Trusts (REITs)            
20111031 553829102 US5538291023 MVC      NYSE         MVC CAPITAL INC               23991     310203.63  0.056428 10 Financial Services             1040 Investment Banking & Brokerage Services          1040544 Asset Management & Custodian                     
20111031 55405W104 US55405W1045 MYRG     NASDAQ       MYR GROUP INC DEL              1227      23687.95  0.004309 08 Producer Durables              0850 Commercial Services                              0850479 Engineering & Contracting Services               
20111031 554153106 US5541531068 TUC      NYSE         MAC-GRAY CORP                 11892     165060.96  0.030026 08 Producer Durables              0850 Commercial Services                              0850484 Environmental Maint & Security Service           
20111031 559079207 US5590792074 MGLN     NASDAQ       MAGELLAN HEALTH SVCS INC      32085    1651414.95  0.300402 02 Health Care                    0210 Health Care Services                             0210503 Health Care Management Services                  
20111031 56035L104 US56035L1044 MAIN     NYSE         MAIN STREET CAPITAL CORP      20113     351575.24  0.063954 10 Financial Services             1040 Investment Banking & Brokerage Services          1040457 Diversified Financial Services                   
20111031 56062Y102 US56062Y1029 MSFG     NASDAQ       MAINSOURCE FINANCIAL GRP      20136     188875.68  0.034358 10 Financial Services             1010 Banks                                            1010400 Banks: Diversified                               
20111031 564563104 US5645631046 MANT     NASDAQ       MANTECH INTERNATIONAL         23304     818669.52  0.148921 01 Technology                     0130 Information Technology                           0130439 Computer Services Software & Systems             
20111031 56624R108 US56624R1086 MCHX     NASDAQ       MARCHEX INC                   12563     111676.46  0.020315 03 Consumer Discretionary         0350 Media                                            0350301 Advertising Agencies                             
20111031 566330106 US5663301068 MCS      NYSE         MARCUS CORP                   20389     243036.88  0.044210 03 Consumer Discretionary         0340 Leisure                                          0340514 Hotel/Motel                                      
20111031 567908108 US5679081084 HZO      NYSE         MARINEMAX INC                 23232     189108.48  0.034400 03 Consumer Discretionary         0360 Retail                                           0360834 Specialty Retail                                 
20111031 568427108 US5684271084 MPX      NYSE         MARINE PRODUCTS CORP           5331      29475.69  0.005362 03 Consumer Discretionary         0340 Leisure                                          0340804 Recreational Vehicles & Boats                    
20111031 571157106 US5711571068 MRLN     NASDAQ       MARLIN BUSINESS SVCS           8655     102042.45  0.018562 08 Producer Durables              0840 Transportation & Freight                         0840808 Commercial Services: Rental & Leasing            
20111031 573075108 US5730751089 MRTN     NASDAQ       MARTEN TRANS LTD              13118     232310.00  0.042259 08 Producer Durables              0840 Transportation & Freight                         0840865 Truckers                                         
20111031 573083102 US5730831022 MSO      NYSE         MARTHA STEWART LIVING         27213     105314.31  0.019157 03 Consumer Discretionary         0350 Media                                            0350740 Publishing                                       
20111031 576690101 US5766901012 MTRN     NYSE         MATERION CORPORATION          18816     497475.32  0.090494 07 Materials & Processing         0740 Metals & Minerals                                0740635 Metals & Minerals: Diversified                   
20111031 576853105 US5768531056 MTRX     NASDAQ       MATRIX SERVICE CO             22261     236409.65  0.043004 06 Energy                         0610 Energy Equipment & Services                      0610600 Oil Well Equipment & Services                    
20111031 577128101 US5771281012 MATW     NASDAQ       MATTHEWS INTERNATIONAL        18151     637808.39  0.116021 03 Consumer Discretionary         0330 Consumer Services                                0330495 Funeral Parlors & Cemetery                       
20111031 577776107 US5777761074 MAXY     NASDAQ       MAXYGEN INC                   30201     178185.90  0.032413 02 Health Care                    0230 Pharmaceuticals & Biotech                        0230412 Biotechnology                                    
20111031 579489105 US5794891052 MNI      NYSE         MCCLATCHY CO                  57709      90603.13  0.016481 03 Consumer Discretionary         0350 Media                                            0350740 Publishing                                       
20111031 579793100 US5797931004 MSSR     NASDAQ       MCCORMICK & SCHMICKS          13368      89565.60  0.016293 03 Consumer Discretionary         0340 Leisure                                          0340810 Restaurants                                      
20111031 58047P107 US58047P1075 MCGC     NASDAQ       MCG CAPITAL CORP              77061     357563.04  0.065043 10 Financial Services             1040 Investment Banking & Brokerage Services          1040544 Asset Management & Custodian                     
20111031 580589109 US5805891091 MGRC     NASDAQ       MCGRATH RENTCORP              14071     375957.85  0.068389 08 Producer Durables              0840 Transportation & Freight                         0840808 Commercial Services: Rental & Leasing            
20111031 58319P108 US58319P1084 MIG      NYSE         MEADOWBROOK INS GROUP         53275     551929.00  0.100399 10 Financial Services             1030 Insurance                                        1030542 Insurance: Property-Casualty                     
20111031 583928106 US5839281061 TAXI     NASDAQ       MEDALLION FINANCIAL CORP      14708     175025.20  0.031838 10 Financial Services             1020 Consumer Finance & Credit Services               1020487 Commercial Finance & Mortgage Co                 
20111031 584045108 US5840451083 MDAS     NASDAQ       MEDASSETS INC                  8577      91436.58  0.016633 02 Health Care                    0210 Health Care Services                             0210639 Health Care: Misc                                
20111031 58449L100 US58449L1008 MDCI     NASDAQ       MEDICAL ACTION INDS INC        9224      48331.82  0.008792 02 Health Care                    0220 Medical Equipment & Services                     0220507 Medical & Dental Instruments & Supplies          
20111031 58463J304 US58463J3041 MPW      NYSE         MEDICAL PROPERTIES TRUST     111716    1128331.60  0.205250 10 Financial Services             1050 Real Estate                                      1050806 Real Estate Investment Trusts (REITs)            
20111031 584688105 US5846881051 MDCO     NASDAQ       MEDICINES CO                  23226     434793.70  0.079092 02 Health Care                    0230 Pharmaceuticals & Biotech                        0230460 Pharmaceuticals                                  
20111031 584690309 US5846903095 MRX      NYSE         MEDICIS PHARMACEUTICAL        10865     416048.11  0.075682 02 Health Care                    0230 Pharmaceuticals & Biotech                        0230460 Pharmaceuticals                                  
20111031 58503F106 US58503F1066 MCC      NYSE         MEDLEY CAPITAL CORP           11119     103517.89  0.018831 10 Financial Services             1040 Investment Banking & Brokerage Services          1040544 Asset Management & Custodian                     
20111031 587118100 US5871181005 MW       NYSE         MENS WEARHOUSE INC            42678    1317888.89  0.239732 03 Consumer Discretionary         0360 Retail                                           0360834 Specialty Retail                                 
20111031 587200106 US5872001061 MENT     NASDAQ       MENTOR GRAPHICS CORP          53538     608183.05  0.110632 01 Technology                     0130 Information Technology                           0130439 Computer Services Software & Systems             
20111031 588448100 US5884481004 MBVT     NASDAQ       MERCHANTS BANCSHARES           4808     136883.76  0.024900 10 Financial Services             1010 Banks                                            1010400 Banks: Diversified                               
20111031 589378108 US5893781089 MRCY     NASDAQ       MERCURY COMPUTER SYSTEMS      30179     440613.40  0.080150 01 Technology                     0130 Information Technology                           0130439 Computer Services Software & Systems             
20111031 589433101 US5894331017 MDP      NYSE         MEREDITH CORP                 36336     974894.88  0.177339 03 Consumer Discretionary         0350 Media                                            0350740 Publishing                                       
20111031 58964Q104 US58964Q1040 EBSB     NASDAQ       MERIDIAN INTERSTATE            8785     114468.55  0.020823 10 Financial Services             1010 Banks                                            1010400 Banks: Diversified                               
20111031 59001A102 US59001A1025 MTH      NYSE         MERITAGE HOMES CORP           27950     496112.50  0.090246 03 Consumer Discretionary         0320 Consumer Products                                0320501 Homebuilding                                     
20111031 59001K100 US59001K1007 MTOR     NYSE         MERITOR INC                   30223     287729.43  0.052340 03 Consumer Discretionary         0310 Auto & Auto Parts                                0310340 Auto Parts                                       
20111031 590876306 US5908763064 MPR      NYSE         MET-PRO CORP                  13678     123236.80  0.022418 08 Producer Durables              0830 Scientific Instruments & Services                0830735 Scientific Instruments: Pollution Control        
20111031 591018809 US5910188094 MBLX     NASDAQ       METABOLIX INC                  9668      49597.93  0.009022 02 Health Care                    0230 Pharmaceuticals & Biotech                        0230412 Biotechnology                                    
20111031 591176102 US5911761022 MEA      NYSE AMEX    METALICO INC                  16932      76536.03  0.013922 08 Producer Durables              0830 Scientific Instruments & Services                0830735 Scientific Instruments: Pollution Control        
20111031 591520200 US5915202007 MEI      NYSE         METHODE ELECTRS INC           36939     343163.31  0.062424 01 Technology                     0120 Electronics                                      0120463 Electronic Components                            
20111031 59161R101 US59161R1014 METR     NASDAQ       METRO BANCORP INC             13857     114597.39  0.020846 10 Financial Services             1010 Banks                                            1010400 Banks: Diversified                               
20111031 59509C105 US59509C1053 MITI     NASDAQ       MICROMET INC                  44849     294662.53  0.053601 02 Health Care                    0230 Pharmaceuticals & Biotech                        0230412 Biotechnology                                    
20111031 596680108 US5966801087 MSEX     NASDAQ       MIDDLESEX WATER CO            15592     295468.40  0.053748 11 Utilities                      1110 Utilities                                        1110882 Utilities: Water                                 
20111031 598039105 US5980391057 MSL      NYSE AMEX    MIDSOUTH BANCORP INC           7647     104993.31  0.019099 10 Financial Services             1010 Banks                                            1010400 Banks: Diversified                               
20111031 600527105 US6005271050 MILL     NYSE         MILLER ENERGY RES INC         31060      89142.20  0.016216 06 Energy                         0620 Non-Renewable Energy                             0620670 Oil: Crude Producers                             
20111031 600551204 US6005512040 MLR      NYSE         MILLER INDUSTRIES INC         11828     241764.32  0.043978 08 Producer Durables              0840 Transportation & Freight                         0840350 Commercial Vehicles & Parts                      
20111031 602682205 US6026822055 MSPD     NASDAQ       MINDSPEED TECHNOLOGIES        15304      85090.33  0.015478 01 Technology                     0120 Electronics                                      0120476 Semiconductors & Components                      
20111031 603158106 US6031581068 MTX      NYSE         MINERALS TECHNOLOGIES         18269    1001871.96  0.182247 07 Materials & Processing         0740 Metals & Minerals                                0740635 Metals & Minerals: Diversified                   
20111031 604567107 US6045671079 MIPS     NASDAQ       MIPS TECHNOLOGIES INC         15395      84520.70  0.015375 01 Technology                     0120 Electronics                                      0120476 Semiconductors & Components                      
20111031 605203108 US6052031084 MSW      NASDAQ       MISSION WEST PROPERTIES       17710     137783.80  0.025064 10 Financial Services             1050 Real Estate                                      1050806 Real Estate Investment Trusts (REITs)            
20111031 606501104 US6065011040 MIND     NASDAQ       MITCHAM INDUSTRIES INC         5506      80285.27  0.014604 06 Energy                         0610 Energy Equipment & Services                      0610600 Oil Well Equipment & Services                    
20111031 60740F105 US60740F1057 MINI     NASDAQ       MOBILE MINI INC               27197     493344.15  0.089742 08 Producer Durables              0840 Transportation & Freight                         0840808 Commercial Services: Rental & Leasing            
20111031 607828100 US6078281002 MOD      NYSE         MODINE MANUFACTURING CO       46536     491885.52  0.089477 08 Producer Durables              0840 Transportation & Freight                         0840350 Commercial Vehicles & Parts                      
20111031 60786L107 US60786L1070 MLNK     NASDAQ       MODUSLINK GLB SOLUTIONS       43793     183054.74  0.033299 01 Technology                     0130 Information Technology                           0130439 Computer Services Software & Systems             
20111031 60855R100 US60855R1005 MOH      NYSE         MOLINA HEALTHCARE INC         11141     235966.61  0.042924 02 Health Care                    0210 Health Care Services                             0210503 Health Care Management Services                  
20111031 609027107 US6090271072 MCRI     NASDAQ       MONARCH CASINO & RESORT        8908      91663.32  0.016674 03 Consumer Discretionary         0340 Leisure                                          0340434 Casinos & Gambling                               
20111031 60935Y109 US60935Y1091 MGI      NYSE         MONEYGRAM INTERNATIONAL        7277      18629.41  0.003389 10 Financial Services             1020 Consumer Finance & Credit Services               1020492 Consumer Lending                                 
20111031 609720107 US6097201072 MNR      NYSE         MONMOUTH REAL ESTATE          35414     297477.60  0.054113 10 Financial Services             1050 Real Estate                                      1050806 Real Estate Investment Trusts (REITs)            
20111031 609839105 US6098391054 MPWR     NASDAQ       MONOLITHIC POWER SYSTEMS       6948      86582.85  0.015750 01 Technology                     0120 Electronics                                      0120476 Semiconductors & Components                      
20111031 615394202 US6153942023 MOG.A    NYSE         MOOG INC                      41010    1588307.42  0.288923 08 Producer Durables              0840 Transportation & Freight                         0840300 Aerospace                                        
20111031 61748W108 US61748W1080 MHGC     NASDAQ       MORGANS HOTEL GROUP CO        14072      91602.80  0.016663 03 Consumer Discretionary         0340 Leisure                                          0340514 Hotel/Motel                                      
20111031 620071100 US6200711009 MPAA     NASDAQ       MOTORCAR PTS AMERICA INC      12067     119704.64  0.021775 03 Consumer Discretionary         0310 Auto & Auto Parts                                0310340 Auto Parts                                       
20111031 620107102 US6201071023 MOTR     NASDAQ       MOTRICITY INC                  2146       3778.70  0.000687 01 Technology                     0130 Information Technology                           0130439 Computer Services Software & Systems             
20111031 624580106 US6245801062 MOV      NYSE         MOVADO GROUP INC              17297     289378.81  0.052640 03 Consumer Discretionary         0320 Consumer Products                                0320547 Luxury Items                                     
20111031 624756102 US6247561029 MLI      NYSE         MUELLER INDUSTRIES INC        32707    1322986.82  0.240659 07 Materials & Processing         0740 Metals & Minerals                                0740630 Metal Fabricating                                
20111031 624758108 US6247581084 MWA      NYSE         MUELLER WTR PRODS INC        155480     427570.00  0.077778 07 Materials & Processing         0740 Metals & Minerals                                0740630 Metal Fabricating                                
20111031 625383104 US6253831043 LABL     NASDAQ       MULTI COLOR CORP              10774     285617.28  0.051956 08 Producer Durables              0850 Commercial Services                              0850486 Forms and Bulk Printing Services                 
20111031 62541B101 US62541B1017 MFLX     NASDAQ       MULTI-FINELINE ELECTRON        7498     171990.13  0.031286 01 Technology                     0120 Electronics                                      0120463 Electronic Components                            
20111031 625453105 US6254531055 MGAM     NASDAQ       MULTIMEDIA GAMES HLD CO       26897     177789.17  0.032341 03 Consumer Discretionary         0340 Leisure                                          0340434 Casinos & Gambling                               
20111031 628464109 US6284641098 MYE      NYSE         MYERS INDUSTRIES INC          29344     358572.54  0.065227 07 Materials & Processing         0730 Industrial Materials & Processes                 0730442 Containers & Packaging                           
20111031 628778102 US6287781024 NBTB     NASDAQ       NBT BANCORP INC               34440     741148.80  0.134819 10 Financial Services             1010 Banks                                            1010400 Banks: Diversified                               
20111031 628852204 US6288522047 NCS      NYSE         NCI BUILDING SYSTEMS INC      19742     179849.62  0.032716 07 Materials & Processing         0710 Building Materials & Services                    0710430 Building Materials                               
20111031 62886K104 US62886K1043 NCIT     NASDAQ       NCI INC                        5497      75022.45  0.013647 01 Technology                     0130 Information Technology                           0130439 Computer Services Software & Systems             
20111031 62912R107 US62912R1077 NGPC     NASDAQ       NGP CAPITAL RESOURCES         21628     160696.04  0.029232 10 Financial Services             1040 Investment Banking & Brokerage Services          1040544 Asset Management & Custodian                     
20111031 629156407 US6291564077 NL       NYSE         NL INDUSTRIES INC               346       5040.03  0.000917 07 Materials & Processing         0730 Industrial Materials & Processes                 0730452 Diversified Materials & Processing               
20111031 629579103 US6295791031 NC       NYSE         NACCO INDUSTRIES INC           5833     478889.30  0.087113 08 Producer Durables              0810 Machinery                                        0810577 Machinery: Construction & Handling               
20111031 630077105 US6300771051 NANO     NASDAQ       NANOMETRICS INC               20135     339878.80  0.061826 01 Technology                     0120 Electronics                                      0120738 Production Technology Equipment                  
20111031 63080P105 US63080P1057 NARA     NASDAQ       NARA BANCORP INC              38003     322265.44  0.058622 10 Financial Services             1010 Banks                                            1010400 Banks: Diversified                               
20111031 631158102 US6311581028 NAFC     NASDAQ       NASH FINCH CO                 12109     318708.88  0.057975 04 Consumer Staples               0420 Personal Care/Drug & Grocery Stores              0420459 Drug & Grocery Store Chains                      
20111031 634865109 US6348651091 NKSH     NASDAQ       NATIONAL BANKSHARES INC        6936     193861.20  0.035265 10 Financial Services             1010 Banks                                            1010400 Banks: Diversified                               
20111031 635906100 US6359061008 NHC      NYSE AMEX    NATIONAL HEALTHCARE CORP      10235     392102.85  0.071326 02 Health Care                    0210 Health Care Services                             0210504 Health Care Facilities                           
20111031 63607P208 US63607P2083 NFP      NYSE         NATIONAL FINL PARTNERS        44080     602573.60  0.109612 10 Financial Services             1040 Investment Banking & Brokerage Services          1040544 Asset Management & Custodian                     
20111031 63633D104 US63633D1046 NHI      NYSE         NATIONAL HEALTH INVS INC      13631     609154.02  0.110809 10 Financial Services             1050 Real Estate                                      1050806 Real Estate Investment Trusts (REITs)            
20111031 63654U100 US63654U1007 NATL     NASDAQ       NATIONAL INTERSTATE CORP       6882     183061.20  0.033300 10 Financial Services             1030 Insurance                                        1030542 Insurance: Property-Casualty                     
20111031 637138108 US6371381087 NPBC     NASDAQ       NATIONAL PENN BANCSHARES     123728     965078.40  0.175554 10 Financial Services             1010 Banks                                            1010400 Banks: Diversified                               
20111031 637417106 US6374171063 NNN      NYSE         NATIONAL RETAIL PPTYS         95379    2599077.75  0.472788 10 Financial Services             1050 Real Estate                                      1050806 Real Estate Investment Trusts (REITs)            
20111031 638522102 US6385221022 NWLI     NASDAQ       NATIONAL WESTRN LIFE INS       2202     316581.54  0.057588 10 Financial Services             1030 Insurance                                        1030528 Insurance: Life                                  
20111031 63886Q109 US63886Q1094 NGS      NYSE         NATURAL GAS SERVICES GRP      12216     168092.16  0.030577 06 Energy                         0610 Energy Equipment & Services                      0610600 Oil Well Equipment & Services                    
20111031 638904102 US6389041020 NAVG     NASDAQ       NAVIGATORS GROUP INC          11640     531016.80  0.096595 10 Financial Services             1030 Insurance                                        1030542 Insurance: Property-Casualty                     
20111031 639050103 US6390501038 BABY     NASDAQ       NATUS MEDICAL INC             13950     119977.95  0.021825 02 Health Care                    0220 Medical Equipment & Services                     0220471 Medical Equipment                                
20111031 63935N107 US63935N1072 NCI      NYSE         NAVIGANT CONSULTING INC       51573     584322.09  0.106292 08 Producer Durables              0850 Commercial Services                              0850365 Back Office Support HR & Consutling              
20111031 640079109 US6400791090 NP       NYSE         NEENAH PAPER INC               7340     121120.56  0.022033 07 Materials & Processing         0730 Industrial Materials & Processes                 0730720 Paper                                            
20111031 640268108 US6402681083 NKTR     NASDAQ       NEKTAR THERAPEUTICS           42092     228143.72  0.041501 02 Health Care                    0230 Pharmaceuticals & Biotech                        0230412 Biotechnology                                    
20111031 64031N108 US64031N1081 NNI      NYSE         NELNET INC                    25789     553947.72  0.100766 10 Financial Services             1020 Consumer Finance & Credit Services               1020492 Consumer Lending                                 
20111031 64051T100 US64051T1007 NPTN     NYSE         NEOPHOTONICS CORP              4388      22944.38  0.004174 01 Technology                     0140 Telecommunication                                0140448 Communications Technology                        
20111031 640650305 US6406503051 NBS      NYSE AMEX    NEOSTEM INC                    4512       3023.52  0.000550 02 Health Care                    0220 Medical Equipment & Services                     0220622 Medical Services                                 
20111031 64125C109 US64125C1099 NBIX     NASDAQ       NEUROCRINE BIOSCIENCES        13950      87328.26  0.015886 02 Health Care                    0230 Pharmaceuticals & Biotech                        0230412 Biotechnology                                    
20111031 64128B108 US64128B1089 TNDM     NASDAQ       NEUTRAL TANDEM INC            31413     331093.02  0.060228 11 Utilities                      1110 Utilities                                        1110880 Utilities: Telecommunications                    
20111031 646025106 US6460251068 NJR      NYSE         NEW JERSEY RESOURCES          41371    1945264.42  0.353855 11 Utilities                      1110 Utilities                                        1110875 Utilities: Gas Distributors                      
20111031 647551100 US6475511001 NMFC     NYSE         NEW MTN FIN CORP               7274      97544.34  0.017744 10 Financial Services             1040 Investment Banking & Brokerage Services          1040544 Asset Management & Custodian                     
20111031 649295102 US6492951024 NWY      NYSE         NEW YORK & CO INC             25424      67880.97  0.012348 03 Consumer Discretionary         0360 Retail                                           0360834 Specialty Retail                                 
20111031 650111107 US6501111073 NYT      NYSE         NEW YORK TIMES CO            137168    1045220.16  0.190132 03 Consumer Discretionary         0350 Media                                            0350740 Publishing                                       
20111031 65105M108 US65105M1080 NCT      NYSE         NEWCASTLE INVT CORP            6731      30896.21  0.005620 10 Financial Services             1050 Real Estate                                      1050806 Real Estate Investment Trusts (REITs)            
20111031 651718504 US6517185046 NR       NYSE         NEWPARK RESOURCES INC         84154     751487.09  0.136700 06 Energy                         0610 Energy Equipment & Services                      0610600 Oil Well Equipment & Services                    
20111031 651824104 US6518241046 NEWP     NASDAQ       NEWPORT CORP                  25701     355949.21  0.064749 01 Technology                     0120 Electronics                                      0120475 Electronics                                      
20111031 65251F105 US65251F1057 NEWS     NASDAQ       NEWSTAR FINANCIAL INC         27281     292452.32  0.053199 10 Financial Services             1020 Consumer Finance & Credit Services               1020487 Commercial Finance & Mortgage Co                 
20111031 65336K103 US65336K1034 NXST     NASDAQ       NEXSTAR BROADCASTING GRP       8774      79837.51  0.014523 03 Consumer Discretionary         0350 Media                                            0350760 Radio & TV Broadcasters                          
20111031 65373J209 CA65373J2092 NICK     NASDAQ       NICHOLAS FINANCIAL INC         9719     110407.84  0.020084 10 Financial Services             1020 Consumer Finance & Credit Services               1020492 Consumer Lending                                 
20111031 654086107 US6540861076 GAS      NYSE         NICOR INC                     45545    2561906.25  0.466026 11 Utilities                      1110 Utilities                                        1110875 Utilities: Gas Distributors                      
20111031 65440K106 US65440K1060 NDN      NYSE         99 CENTS ONLY STORES          41453     903664.83  0.164382 03 Consumer Discretionary         0360 Retail                                           0360815 Diversified Retail                               
20111031 66611L105 US66611L1052 NFBK     NASDAQ       NORTHFIELD BANCORP INC        17047     235419.07  0.042824 10 Financial Services             1010 Banks                                            1010820 Banks: Savings/Thrifts & Mortgage Lend           
20111031 66704R100 US66704R1005 NRF      NYSE         NORTHSTAR REALTY FINANCE      95859     378643.05  0.068877 10 Financial Services             1050 Real Estate                                      1050806 Real Estate Investment Trusts (REITs)            
20111031 667340103 US6673401039 NWBI     NASDAQ       NORTHWEST BANCSHARES INC     106094    1322992.18  0.240660 10 Financial Services             1010 Banks                                            1010820 Banks: Savings/Thrifts & Mortgage Lend           
20111031 667655104 US6676551046 NWN      NYSE         NORTHWEST NATURAL GAS CO      26673    1246162.56  0.226685 11 Utilities                      1110 Utilities                                        1110875 Utilities: Gas Distributors                      
20111031 667746101 US6677461013 NWPX     NASDAQ       NORTHWEST PIPE CO              9311     248324.37  0.045172 07 Materials & Processing         0740 Metals & Minerals                                0740630 Metal Fabricating                                
20111031 668074305 US6680743050 NWE      NYSE         NORTHWESTERN CORP             36257    1249053.65  0.227210 11 Utilities                      1110 Utilities                                        1110870 Utilities: Electrical                            
20111031 66987M604 US66987M6049 NVTL     NASDAQ       NOVATEL WIRELESS INC          28781     114256.61  0.020784 01 Technology                     0140 Telecommunication                                0140448 Communications Technology                        
20111031 670002104 US6700021040 NVAX     NASDAQ       NOVAVAX INC                   30261      47813.54  0.008698 02 Health Care                    0230 Pharmaceuticals & Biotech                        0230412 Biotechnology                                    
20111031 67060Y101 US67060Y1010 NUTR     NASDAQ       NUTRACEUTICAL INTL CORP        9199     126946.20  0.023092 04 Consumer Staples               0410 Food/Beverage & Tobacco                          0410494 Foods                                            
20111031 67076P102 CA67076P1027 NYMX     NASDAQ       NYMOX PHARMACEUTICAL           3357      30988.90  0.005637 02 Health Care                    0230 Pharmaceuticals & Biotech                        0230412 Biotechnology                                    
20111031 670823103 US6708231039 CHUX     NASDAQ       O CHARLEYS INC                18436     114487.56  0.020826 03 Consumer Discretionary         0340 Leisure                                          0340810 Restaurants                                      
20111031 670872100 US6708721005 OMG      NYSE         OM GROUP INC                  31003     896296.73  0.163042 07 Materials & Processing         0720 Chemicals and Synthetics                         0720433 Chemicals: Diversified                           
20111031 671044105 US6710441055 OSIS     NASDAQ       OSI SYSTEMS INC                4381     194120.83  0.035312 08 Producer Durables              0820 Manufacturing & Production                       0820453 Diversified Manufacturing Operations             
20111031 675234108 US6752341080 OCFC     NASDAQ       OCEANFIRST FINANCIAL          14662     191192.48  0.034779 10 Financial Services             1010 Banks                                            1010820 Banks: Savings/Thrifts & Mortgage Lend           
20111031 67555N206 US67555N2062 OCLR     NASDAQ       OCLARO INC                    50463     207402.93  0.037728 01 Technology                     0140 Telecommunication                                0140448 Communications Technology                        
20111031 675746309 US6757463095 OCN      NYSE         OCWEN FINANCIAL CORP          74491    1080119.50  0.196480 10 Financial Services             1010 Banks                                            1010820 Banks: Savings/Thrifts & Mortgage Lend           
20111031 676118102 US6761181022 OMEX     NASDAQ       ODYSSEY MARINE EXPLOR         53577     152692.69  0.027776 08 Producer Durables              0840 Transportation & Freight                         0840860 Transportation Miscellaneous                     
20111031 676220106 US6762201068 ODP      NYSE         OFFICE DEPOT INC             277571     635637.59  0.115626 03 Consumer Discretionary         0360 Retail                                           0360834 Specialty Retail                                 
20111031 67622P101 US67622P1012 OMX      NYSE         OFFICEMAX INC                 85969     440161.28  0.080068 03 Consumer Discretionary         0360 Retail                                           0360834 Specialty Retail                                 
20111031 677864100 US6778641000 ODC      NYSE         OIL DRI CORP OF AMERICA        4092      82025.41  0.014921 07 Materials & Processing         0740 Metals & Minerals                                0740635 Metals & Minerals: Diversified                   
20111031 680033107 US6800331075 ONB      NYSE         OLD NATIONAL BANCORP          94734    1096072.38  0.199382 10 Financial Services             1010 Banks                                            1010400 Banks: Diversified                               
20111031 680665205 US6806652052 OLN      NYSE         OLIN CORP                     31636     596657.52  0.108536 07 Materials & Processing         0720 Chemicals and Synthetics                         0720433 Chemicals: Diversified                           
20111031 68162K106 US68162K1060 ZEUS     NASDAQ       OLYMPIC STEEL INC              9145     187015.25  0.034019 07 Materials & Processing         0740 Metals & Minerals                                0740835 Steel                                            
20111031 681936100 US6819361006 OHI      NYSE         OMEGA HEALTHCARE INVS          5385      95647.23  0.017399 10 Financial Services             1050 Real Estate                                      1050806 Real Estate Investment Trusts (REITs)            
20111031 68210P107 US68210P1075 OME      NYSE         OMEGA PROTEIN CORP            17461     189091.95  0.034397 04 Consumer Staples               0410 Food/Beverage & Tobacco                          0410494 Foods                                            
20111031 682128103 US6821281036 OVTI     NASDAQ       OMNIVISION TECHNOLOGIES       12232     199512.30  0.036293 01 Technology                     0120 Electronics                                      0120476 Semiconductors & Components                      
20111031 68213N109 US68213N1090 OMCL     NASDAQ       OMNICELL INC                  17189     256971.98  0.046745 02 Health Care                    0210 Health Care Services                             0210499 Health Care Services                             
20111031 682159108 US6821591087 ASGN     NASDAQ       ON ASSIGNMENT INC             33010     356175.15  0.064790 08 Producer Durables              0850 Commercial Services                              0850365 Back Office Support HR & Consutling              
20111031 68216R107 US68216R1077 OABC     NASDAQ       OMNIAMERICAN BANCORP INC      11839     174625.25  0.031765 10 Financial Services             1010 Banks                                            1010820 Banks: Savings/Thrifts & Mortgage Lend           
20111031 682324108 US6823241087 ONTY     NASDAQ       ONCOTHYREON INC               11896      82799.33  0.015062 02 Health Care                    0230 Pharmaceuticals & Biotech                        0230412 Biotechnology                                    
20111031 682406103 US6824061039 OLP      NYSE         ONE LIBERTY PROPERTIES        11095     180404.70  0.032817 10 Financial Services             1050 Real Estate                                      1050806 Real Estate Investment Trusts (REITs)            
20111031 68243Q106 US68243Q1067 FLWS     NASDAQ       1-800 FLOWERS COM             24558      69989.49  0.012732 03 Consumer Discretionary         0360 Retail                                           0360834 Specialty Retail                                 
20111031 683718308 US6837183085 OPWV     NASDAQ       OPENWAVE SYSTEMS INC          59652      92460.45  0.016819 01 Technology                     0130 Information Technology                           0130439 Computer Services Software & Systems             
20111031 68375Q403 US68375Q4038 OPLK     NASDAQ       OPLINK COMMUNICATIONS         11778     191035.85  0.034751 01 Technology                     0140 Telecommunication                                0140448 Communications Technology                        
20111031 68375V105 US68375V1052 OPXT     NASDAQ       OPNEXT INC                    43687      43354.98  0.007887 01 Technology                     0140 Telecommunication                                0140849 Telecommunications Equipment                     
20111031 683797104 US6837971042 OPY      NYSE         OPPENHEIMER HOLDINGS INC      10315     181234.55  0.032968 10 Financial Services             1040 Investment Banking & Brokerage Services          1040544 Asset Management & Custodian                     
20111031 68555P100 US68555P1003 ORBC     NASDAQ       ORBCOMM INC                   34633      95240.75  0.017325 11 Utilities                      1110 Utilities                                        1110880 Utilities: Telecommunications                    
20111031 685564106 US6855641063 ORB      NYSE         ORBITAL SCIENCES CORP         33829     522990.99  0.095135 08 Producer Durables              0840 Transportation & Freight                         0840300 Aerospace                                        
20111031 68557K109 US68557K1097 OWW      NYSE         ORBITZ WORLDWIDE INC          20921      39540.69  0.007193 03 Consumer Discretionary         0340 Leisure                                          0340556 Leisure Time                                     
20111031 68618W100 PR68618W1001 OFG      NYSE         ORIENTAL FINANCIAL GROUP      45274     479451.66  0.087215 10 Financial Services             1010 Banks                                            1010400 Banks: Diversified                               
20111031 68628V308 US68628V3087 ORN      NYSE         ORION MARINE GROUP INC        27005     183363.95  0.033355 08 Producer Durables              0820 Manufacturing & Production                       0820443 Construction                                     
20111031 68633D103 US68633D1037 ORIT     NASDAQ       ORITANI FINANCIAL CORP        51085     662061.60  0.120433 10 Financial Services             1010 Banks                                            1010820 Banks: Savings/Thrifts & Mortgage Lend           
20111031 686688102 US6866881021 ORA      NYSE         ORMAT TECHNOLOGIES INC        17945     340775.55  0.061989 11 Utilities                      1110 Utilities                                        1110868 Utilities: Miscellaneous                         
20111031 687380105 US6873801053 ORRF     NASDAQ       ORRSTOWN FINL SVCS INC         6988      64010.08  0.011644 10 Financial Services             1010 Banks                                            1010400 Banks: Diversified                               
20111031 689648103 US6896481032 OTTR     NASDAQ       OTTER TAIL CORP               34076     661410.40  0.120315 11 Utilities                      1110 Utilities                                        1110870 Utilities: Electrical                            
20111031 690027206 US6900272062 OUTD     NASDAQ       OUTDOOR CHANNEL HLDGS         14366     107314.02  0.019521 03 Consumer Discretionary         0350 Media                                            0350760 Radio & TV Broadcasters                          
20111031 690368105 US6903681053 OSG      NYSE         OVERSEAS SHIPHOLDNG GRP       26627     332304.96  0.060448 08 Producer Durables              0840 Transportation & Freight                         0840830 Shipping                                         
20111031 690732102 US6907321029 OMI      NYSE         OWENS & MINOR INC             11856     354748.57  0.064531 02 Health Care                    0220 Medical Equipment & Services                     0220507 Medical & Dental Instruments & Supplies          
20111031 69318J100 US69318J1007 PCCC     NASDAQ       P C CONNECTION                 9305      77696.75  0.014134 01 Technology                     0130 Information Technology                           0130449 Computer Technology                              
20111031 693282105 US6932821050 PDFS     NASDAQ       PDF SOLUTIONS INC              1381       7140.45  0.001299 01 Technology                     0130 Information Technology                           0130439 Computer Services Software & Systems             
20111031 69329Y104 US69329Y1047 PDLI     NASDAQ       PDL BIOPHARMA INC             24444     148375.08  0.026990 02 Health Care                    0230 Pharmaceuticals & Biotech                        0230412 Biotechnology                                    
20111031 693320202 US6933202029 PHH      NYSE         PHH CORPORATION               56255    1037904.75  0.188801 08 Producer Durables              0840 Transportation & Freight                         0840808 Commercial Services: Rental & Leasing            
20111031 69333Y108 US69333Y1082 PFCB     NASDAQ       P F CHANGS CHINA BISTRO        1841      57256.62  0.010415 03 Consumer Discretionary         0340 Leisure                                          0340810 Restaurants                                      
20111031 693366205 US6933662057 PICO     NASDAQ       PICO HOLDINGS INC             22700     518468.00  0.094312 10 Financial Services             1030 Insurance                                        1030535 Insurance: Multi-Line                            
20111031 69336T205 US69336T2050 PHIIK    NASDAQ       PHI INC                       13045     287903.15  0.052371 08 Producer Durables              0840 Transportation & Freight                         0840310 Air Transport                                    
20111031 693417107 US6934171074 PLXT     NASDAQ       PLX TECHNOLOGY INC            44517     144680.25  0.026318 01 Technology                     0120 Electronics                                      0120476 Semiconductors & Components                      
20111031 69344M101 US69344M1018 PMI      NYSE         PMI GROUP INC                152348      47532.58  0.008646 10 Financial Services             1030 Insurance                                        1030542 Insurance: Property-Casualty                     
20111031 69349H107 US69349H1077 PNM      NYSE         PNM RESOURCES INC             86673    1558380.54  0.283479 11 Utilities                      1110 Utilities                                        1110870 Utilities: Electrical                            
20111031 69360J107 US69360J1079 PSB      NYSE         PS BUSINESS PARKS INC         14925     794426.77  0.144511 10 Financial Services             1050 Real Estate                                      1050806 Real Estate Investment Trusts (REITs)            
20111031 69373H106 US69373H1068 PACR     NASDAQ       PACER INTERNATIONAL INC       31526     148483.17  0.027010 08 Producer Durables              0840 Transportation & Freight                         0840860 Transportation Miscellaneous                     
20111031 69404D108 US69404D1081 PACB     NASDAQ       PACIFIC BIOSCIENCES CA        26458     103713.79  0.018866 02 Health Care                    0230 Pharmaceuticals & Biotech                        0230412 Biotechnology                                    
20111031 69404P200 US69404P2002 PCBC     NASDAQ       PACIFIC CAPITAL BANCORP        4113     106485.57  0.019370 10 Financial Services             1010 Banks                                            1010400 Banks: Diversified                               
20111031 69412V108 US69412V1089 PCBK     NASDAQ       PACIFIC CONTINENTAL CORP      18427     159762.09  0.029062 10 Financial Services             1010 Banks                                            1010400 Banks: Diversified                               
20111031 694873100 US6948731004 PSUN     NASDAQ       PACIFIC SUNWEAR OF CALIF      47430      59287.50  0.010785 03 Consumer Discretionary         0360 Retail                                           0360834 Specialty Retail                                 
20111031 695263103 US6952631033 PACW     NASDAQ       PACWEST BANCORP               30249     533592.36  0.097064 10 Financial Services             1010 Banks                                            1010400 Banks: Diversified                               
20111031 695459107 US6954591078 PAET     NASDAQ       PAETEC HOLDING CORP           36600     200572.06  0.036485 11 Utilities                      1110 Utilities                                        1110880 Utilities: Telecommunications                    
20111031 697529303 US6975293035 PMTI     NASDAQ       PALOMAR MEDICAL TECH          19007     161749.57  0.029423 02 Health Care                    0220 Medical Equipment & Services                     0220471 Medical Equipment                                
20111031 698657103 US6986571031 PTRY     NASDAQ       PANTRY INC                    21286     300983.50  0.054751 04 Consumer Staples               0420 Personal Care/Drug & Grocery Stores              0420459 Drug & Grocery Store Chains                      
20111031 69888P106 US69888P1066 PRX      NYSE         PAR PHARMACEUTICAL COS        11116     340154.59  0.061876 02 Health Care                    0230 Pharmaceuticals & Biotech                        0230460 Pharmaceuticals                                  
20111031 699462107 US6994621075 PRXL     NASDAQ       PAREXEL INTERNATIONAL          5592     123210.27  0.022413 02 Health Care                    0220 Medical Equipment & Services                     0220622 Medical Services                                 
20111031 700416209 US7004162092 PKE      NYSE         PARK ELECTROCHEMICAL          20725     586517.50  0.106691 01 Technology                     0120 Electronics                                      0120463 Electronic Components                            
20111031 700658107 US7006581075 PRK      NYSE AMEX    PARK NATIONAL CORP            12904     770497.84  0.140158 10 Financial Services             1010 Banks                                            1010400 Banks: Diversified                               
20111031 70086Y105 US70086Y1055 PSTB     NASDAQ       PARK STERLING CORP            28619     110183.15  0.020043 10 Financial Services             1010 Banks                                            1010400 Banks: Diversified                               
20111031 701081101 US7010811013 PKD      NYSE         PARKER DRILLING CO           116676     645218.28  0.117369 06 Energy                         0610 Energy Equipment & Services                      0610600 Oil Well Equipment & Services                    
20111031 70159Q104 US70159Q1040 PKY      NYSE         PARKWAY PROPERTIES INC        21963     282224.55  0.051338 10 Financial Services             1050 Real Estate                                      1050806 Real Estate Investment Trusts (REITs)            
20111031 70336T104 US70336T1043 PCX      NYSE         PATRIOT COAL CORP              6116      76822.36  0.013974 06 Energy                         0620 Non-Renewable Energy                             0620435 Coal                                             
20111031 70337B102 US70337B1026 PATR     NASDAQ       PATRIOT TRANSPORTATION         6171     141933.00  0.025818 08 Producer Durables              0840 Transportation & Freight                         0840865 Truckers                                         
20111031 70509V100 US70509V1008 PEB      NYSE         PEBBLEBROOK HOTEL TRUST       50889     968417.67  0.176161 10 Financial Services             1050 Real Estate                                      1050806 Real Estate Investment Trusts (REITs)            
20111031 70686R104 US70686R1041 PCO      NASDAQ       PENDRELL CORPORATION          55178     136841.80  0.024892 11 Utilities                      1110 Utilities                                        1110880 Utilities: Telecommunications                    
20111031 707882106 US7078821060 PVA      NYSE         PENN VIRGINIA CORP            45671     278136.39  0.050595 06 Energy                         0620 Non-Renewable Energy                             0620670 Oil: Crude Producers                             
20111031 708062104 US7080621045 PNNT     NASDAQ       PENNANTPARK INVT CORP         45581     488628.32  0.088884 10 Financial Services             1040 Investment Banking & Brokerage Services          1040544 Asset Management & Custodian                     
20111031 708254206 US7082542066 PNNW     NASDAQ       PENNICHUCK CORP                2294      65269.42  0.011873 11 Utilities                      1110 Utilities                                        1110882 Utilities: Water                                 
20111031 708430103 US7084301032 PWOD     NASDAQ       PENNS WOODS BANCORP INC        3836     140896.28  0.025630 10 Financial Services             1010 Banks                                            1010400 Banks: Diversified                               
20111031 709102107 US7091021078 PEI      NYSE         PENNSYLVANIA REAL ESTATE      55648     570948.48  0.103859 10 Financial Services             1050 Real Estate                                      1050806 Real Estate Investment Trusts (REITs)            
20111031 70931T103 US70931T1034 PMT      NYSE         PENNYMAC MORTGAGE INV         27763     474747.30  0.086359 10 Financial Services             1050 Real Estate                                      1050806 Real Estate Investment Trusts (REITs)            
20111031 70959W103 US70959W1036 PAG      NYSE         PENSKE AUTOMOTIVE GROUP       44646     910331.94  0.165595 03 Consumer Discretionary         0360 Retail                                           0360834 Specialty Retail                                 
20111031 709789101 US7097891011 PEBO     NASDAQ       PEOPLES BANCORP INC           10561     139722.03  0.025416 10 Financial Services             1010 Banks                                            1010400 Banks: Diversified                               
20111031 713278109 US7132781094 PBY      NYSE         PEP BOYS MANNY MOE&J          52653     605509.50  0.110146 03 Consumer Discretionary         0360 Retail                                           0360834 Specialty Retail                                 
20111031 71375U101 US71375U1016 PRFT     NASDAQ       PERFICIENT INC                 7103      67697.57  0.012315 01 Technology                     0130 Information Technology                           0130439 Computer Services Software & Systems             
20111031 713831105 US7138311052 PSEM     NASDAQ       PERICOM SEMICONDUCTOR         22101     187634.15  0.034132 01 Technology                     0120 Electronics                                      0120476 Semiconductors & Components                      
20111031 716578109 US7165781094 PETD     NASDAQ       PETROLEUM DEV CORP            23497     613506.67  0.111601 06 Energy                         0620 Non-Renewable Energy                             0620670 Oil: Crude Producers                             
20111031 716748108 US7167481081 PQ       NYSE         PETROQUEST ENERGY INC         42916     312851.44  0.056910 06 Energy                         0620 Non-Renewable Energy                             0620670 Oil: Crude Producers                             
20111031 71714F104 US71714F1049 PMC      NYSE         PHARMERICA CORP               29364     458078.40  0.083327 02 Health Care                    0210 Health Care Services                             0210499 Health Care Services                             
20111031 71902E109 US71902E1091 PNX      NYSE         PHOENIX COMPANIES INC        116300     173287.00  0.031522 10 Financial Services             1030 Insurance                                        1030528 Insurance: Life                                  
20111031 719405102 US7194051022 PLAB     NASDAQ       PHOTRONICS INC                58785     368581.95  0.067047 01 Technology                     0120 Electronics                                      0120738 Production Technology Equipment                  
20111031 720186105 US7201861058 PNY      NYSE         PIEDMONT NAT GAS INC          71784    2346618.96  0.426864 11 Utilities                      1110 Utilities                                        1110875 Utilities: Gas Distributors                      
20111031 720279108 US7202791080 PIR      NYSE         PIER 1 IMPORTS INC            67109     839528.69  0.152715 03 Consumer Discretionary         0360 Retail                                           0360834 Specialty Retail                                 
20111031 721283109 US7212831090 PIKE     NYSE         PIKE ELECTRIC CORP            16253     123685.33  0.022499 11 Utilities                      1110 Utilities                                        1110870 Utilities: Electrical                            
20111031 72147K108 US72147K1088 PPC      NYSE         PILGRIMS PRIDE CORP NEW       50617     255109.68  0.046406 04 Consumer Staples               0410 Food/Beverage & Tobacco                          0410305 Agriculture Fishing & Ranching                   
20111031 723456109 US7234561097 PNK      NYSE         PINNACLE ENTMT INC            58204     658867.70  0.119852 03 Consumer Discretionary         0340 Leisure                                          0340434 Casinos & Gambling                               
20111031 72346Q104 US72346Q1040 PNFP     NASDAQ       PINNACLE FINANCIAL            34136     512381.36  0.093205 10 Financial Services             1010 Banks                                            1010400 Banks: Diversified                               
20111031 723655106 US7236551062 PDC      NYSE AMEX    PIONEER DRILLING CO           13124     129802.63  0.023612 06 Energy                         0610 Energy Equipment & Services                      0610600 Oil Well Equipment & Services                    
20111031 724078100 US7240781002 PJC      NYSE         PIPER JAFFRAY COMPANIES       15807     328153.32  0.059693 10 Financial Services             1040 Investment Banking & Brokerage Services          1040457 Diversified Financial Services                   
20111031 727493108 US7274931085 PLT      NYSE         PLANTRONICS INC               35116    1173198.50  0.213412 01 Technology                     0140 Telecommunication                                0140448 Communications Technology                        
20111031 729132100 US7291321005 PLXS     NASDAQ       PLEXUS CORP                    3377      86792.88  0.015788 01 Technology                     0120 Electronics                                      0120643 Technology: Misc                                 
20111031 73179P106 US73179P1066 POL      NYSE         POLYONE CORP                  25681     287378.22  0.052276 07 Materials & Processing         0720 Chemicals and Synthetics                         0720433 Chemicals: Diversified                           
20111031 736508847 US7365088472 POR      NYSE         PORTLAND GEN ELEC CO          75326    1848500.04  0.336253 11 Utilities                      1110 Utilities                                        1110870 Utilities: Electrical                            
20111031 737464107 US7374641071 PPS      NYSE         POST PROPERTIES INC           49838    2047345.04  0.372425 10 Financial Services             1050 Real Estate                                      1050806 Real Estate Investment Trusts (REITs)            
20111031 737630103 US7376301039 PCH      NASDAQ       POTLATCH CORP                 18585     603665.03  0.109810 10 Financial Services             1050 Real Estate                                      1050806 Real Estate Investment Trusts (REITs)            
20111031 739128106 US7391281067 POWL     NASDAQ       POWELL INDUSTRIES INC          8817     296339.37  0.053906 08 Producer Durables              0820 Manufacturing & Production                       0820734 Power Transmission Equip                         
20111031 73930R102 US73930R1023 PWER     NASDAQ       POWER-ONE INC                  4221      20894.98  0.003801 08 Producer Durables              0820 Manufacturing & Production                       0820734 Power Transmission Equip                         
20111031 73936N105 US73936N1054 POWR     NASDAQ       POWERSECURE INTL INC          15971      67874.13  0.012347 06 Energy                         0610 Energy Equipment & Services                      0610477 Energy Equipment                                 
20111031 740444104 US7404441047 PLPC     NASDAQ       PREFORMED LINE PRODUCTS        2212     142334.99  0.025892 08 Producer Durables              0830 Scientific Instruments & Services                0830465 Scientific Instruments: Electrical               
20111031 740585104 US7405851046 PGI      NYSE         PREMIERE GLOBAL SERVICES      52244     473330.64  0.086102 11 Utilities                      1110 Utilities                                        1110880 Utilities: Telecommunications                    
20111031 740884101 US7408841010 PLFE     NASDAQ       PRESIDENTIAL LIFE CORP        21678     215045.76  0.039118 10 Financial Services             1030 Insurance                                        1030528 Insurance: Life                                  
20111031 74112D101 US74112D1019 PBH      NYSE         PRESTIGE BRANDS HOLDINGS      50284     532004.72  0.096775 02 Health Care                    0230 Pharmaceuticals & Biotech                        0230460 Pharmaceuticals                                  
20111031 74164F103 US74164F1030 PRIM     NASDAQ       PRIMORIS SVCS CORP             3390      44142.90  0.008030 08 Producer Durables              0820 Manufacturing & Production                       0820443 Construction                                     
20111031 74164M108 US74164M1080 PRI      NYSE         PRIMERICA INC                 34001     769442.63  0.139966 10 Financial Services             1030 Insurance                                        1030528 Insurance: Life                                  
20111031 74165N105 US74165N1054 PRMW     NASDAQ       PRIMO WATER CORP               4757      28924.34  0.005262 04 Consumer Staples               0410 Food/Beverage & Tobacco                          0410410 Beverage: Soft Drinks                            
20111031 74267C106 US74267C1062 PRA      NYSE         PROASSURANCE CORP             30575    2340516.25  0.425754 10 Financial Services             1030 Insurance                                        1030542 Insurance: Property-Casualty                     
20111031 742962103 US7429621037 PVTB     NASDAQ       PRIVATEBANCORP INC            60033     654359.70  0.119032 10 Financial Services             1010 Banks                                            1010400 Banks: Diversified                               
20111031 743187106 US7431871067 PGNX     NASDAQ       PROGENICS PHARMACEUTICAL       7630      50133.96  0.009120 02 Health Care                    0230 Pharmaceuticals & Biotech                        0230412 Biotechnology                                    
20111031 743312100 US7433121008 PRGS     NASDAQ       PROGRESS SOFTWARE CORP        27210     573045.13  0.104240 01 Technology                     0130 Information Technology                           0130439 Computer Services Software & Systems             
20111031 74348T102 US74348T1025 PSEC     NASDAQ       PROSPECT CAPITAL CORP        109014    1043263.98  0.189776 10 Financial Services             1040 Investment Banking & Brokerage Services          1040544 Asset Management & Custodian                     
20111031 743606105 US7436061052 PRSP     NASDAQ       PROSPERITY BANCSHARES         46886    1804642.14  0.328275 10 Financial Services             1010 Banks                                            1010400 Banks: Diversified                               
20111031 743815102 US7438151026 PRSC     NASDAQ       PROVIDENCE SERVICE CORP       10370     129620.00  0.023579 02 Health Care                    0210 Health Care Services                             0210639 Health Care: Misc                                
20111031 74386T105 US74386T1051 PFS      NYSE         PROVIDENT FINANCIAL SVCS      60461     782969.95  0.142427 10 Financial Services             1010 Banks                                            1010400 Banks: Diversified                               
20111031 744028101 US7440281019 PBNY     NASDAQ       PROVIDENT NY BANCORP          38035     264343.25  0.048086 10 Financial Services             1010 Banks                                            1010820 Banks: Savings/Thrifts & Mortgage Lend           
20111031 747301109 US7473011093 QUAD     NYSE         QUAD / GRAPHICS INC           22966     452883.01  0.082382 08 Producer Durables              0850 Commercial Services                              0850486 Forms and Bulk Printing Services                 
20111031 747316107 US7473161070 KWR      NYSE         QUAKER CHEMICAL CORP           3124     108707.06  0.019774 07 Materials & Processing         0720 Chemicals and Synthetics                         0720833 Chemicals: Specialty                             
20111031 74756M102 US74756M1027 QLTY     NASDAQ       QUALITY DISTRIBUTION INC      10455     117827.21  0.021433 08 Producer Durables              0840 Transportation & Freight                         0840865 Truckers                                         
20111031 747619104 US7476191041 NX       NYSE         QUANEX BUILDING PRODUCTS      37901     559039.75  0.101693 07 Materials & Processing         0710 Building Materials & Services                    0710430 Building Materials                               
20111031 747906204 US7479062041 QTM      NYSE         QUANTUM CORP                 225400     588294.00  0.107014 01 Technology                     0130 Information Technology                           0130449 Computer Technology                              
20111031 74834T103 US74834T1034 QSFT     NASDAQ       QUEST SOFTWARE INC            42440     746510.59  0.135795 01 Technology                     0130 Information Technology                           0130439 Computer Services Software & Systems             
20111031 74838C106 US74838C1062 ZQK      NYSE         QUIKSILVER INC               129754     434675.90  0.079070 03 Consumer Discretionary         0320 Consumer Products                                0320850 Textiles Apparel & Shoes                         
20111031 74874Q100 US74874Q1004 QNST     NASDAQ       QUINSTREET INC                24271     278869.99  0.050728 03 Consumer Discretionary         0350 Media                                            0350301 Advertising Agencies                             
20111031 749227609 US7492276099 RAS      NYSE         RAIT FINANCIAL TRUST          38029     197750.80  0.035972 10 Financial Services             1050 Real Estate                                      1050806 Real Estate Investment Trusts (REITs)            
20111031 749607107 US7496071074 RLI      NYSE         RLI CORP                      18234    1282579.56  0.233309 10 Financial Services             1030 Insurance                                        1030542 Insurance: Property-Casualty                     
20111031 74965L101 US74965L1017 RLJ      NYSE         RLJ LODGING TR                27533     408039.06  0.074225 10 Financial Services             1050 Real Estate                                      1050806 Real Estate Investment Trusts (REITs)            
20111031 74972L102 US74972L1026 RRR      NYSE         RSC HOLDINGS INC              67750     661240.00  0.120284 08 Producer Durables              0840 Transportation & Freight                         0840808 Commercial Services: Rental & Leasing            
20111031 74973W107 US74973W1071 RTI      NYSE         RTI INTERNATIONAL METALS      26173     690705.36  0.125644 07 Materials & Processing         0740 Metals & Minerals                                0740630 Metal Fabricating                                
20111031 74975N105 US74975N1054 RTIX     NASDAQ       RTI BIOLOGICS INC             52070     234311.18  0.042623 02 Health Care                    0230 Pharmaceuticals & Biotech                        0230412 Biotechnology                                    
20111031 749941100 US7499411004 RFMD     NASDAQ       RF MICRODEVICES INC          247128    1813915.12  0.329962 01 Technology                     0120 Electronics                                      0120476 Semiconductors & Components                      
20111031 750236101 US7502361014 RDN      NYSE         RADIAN GROUP INC             133114     312817.90  0.056903 10 Financial Services             1030 Insurance                                        1030542 Insurance: Property-Casualty                     
20111031 750459109 US7504591097 RSYS     NASDAQ       RADISYS CORP                  19422     113812.92  0.020703 01 Technology                     0130 Information Technology                           0130449 Computer Technology                              
20111031 750753402 US7507534029 RA       NYSE         RAILAMERICA INC               21346     291799.82  0.053080 08 Producer Durables              0840 Transportation & Freight                         0840800 Railroads                                        
20111031 751452202 US7514522025 RPT      NYSE         RAMCO-GERSHENSON PPTYS        38522     371737.30  0.067621 10 Financial Services             1050 Real Estate                                      1050806 Real Estate Investment Trusts (REITs)            
20111031 75524B104 US75524B1044 ROLL     NASDAQ       RBC BEARINGS INC               4538     183799.85  0.033434 07 Materials & Processing         0740 Metals & Minerals                                0740630 Metal Fabricating                                
20111031 75605L708 US75605L7082 RNWK     NASDAQ       REALNETWORKS INC              21094     205877.44  0.037450 01 Technology                     0130 Information Technology                           0130439 Computer Services Software & Systems             
20111031 756764106 US7567641060 RLH      NYSE         RED LION HOTELS CORP          14671     101963.45  0.018548 03 Consumer Discretionary         0340 Leisure                                          0340514 Hotel/Motel                                      
20111031 75689M101 US75689M1018 RRGB     NASDAQ       RED ROBIN GOURMET BURGER       1297      32530.83  0.005918 03 Consumer Discretionary         0340 Leisure                                          0340810 Restaurants                                      
20111031 758075402 US7580754023 RWT      NYSE         REDWOOD TRUST INC             78548     912727.76  0.166031 10 Financial Services             1050 Real Estate                                      1050806 Real Estate Investment Trusts (REITs)            
20111031 758932107 US7589321071 RGS      NYSE         REGIS CORP                    57769     945100.84  0.171920 03 Consumer Discretionary         0360 Retail                                           0360834 Specialty Retail                                 
20111031 75970E107 US75970E1073 RNST     NASDAQ       RENASANT CORP                 25056     361307.52  0.065724 10 Financial Services             1010 Banks                                            1010400 Banks: Diversified                               
20111031 76009N100 US76009N1000 RCII     NASDAQ       RENT A CENTER INC             63624    2172759.60  0.395238 03 Consumer Discretionary         0330 Consumer Services                                0330809 Rental & Leasing Services: Consumer              
20111031 760276105 US7602761055 RJET     NASDAQ       REPUBLIC AIRWAYS HLD          48192     125299.20  0.022793 08 Producer Durables              0840 Transportation & Freight                         0840310 Air Transport                                    
20111031 760281204 US7602812049 RBCAA    NASDAQ       REPUBLIC BANCORP INC KY        9903     201427.02  0.036641 10 Financial Services             1010 Banks                                            1010400 Banks: Diversified                               
20111031 76120W302 US76120W3025 RSO      NYSE         RESOURCE CAPITAL CORP         71221     382456.77  0.069571 10 Financial Services             1050 Real Estate                                      1050806 Real Estate Investment Trusts (REITs)            
20111031 76122Q105 US76122Q1058 RECN     NASDAQ       RESOURCES CONNECTION          46353     514054.77  0.093510 08 Producer Durables              0850 Commercial Services                              0850365 Back Office Support HR & Consutling              
20111031 76131N101 US76131N1019 ROIC     NASDAQ       RETAIL OPPORTUNITY INVTS      42075     479655.00  0.087252 10 Financial Services             1050 Real Estate                                      1050806 Real Estate Investment Trusts (REITs)            
20111031 761505205 CA7615052056 RVM      NYSE AMEX    REVETT MINERALS INC           11224      47255.73  0.008596 07 Materials & Processing         0740 Metals & Minerals                                0740447 Copper                                           
20111031 761525609 US7615256093 REV      NYSE         REVLON INC                    10852     159849.96  0.029078 03 Consumer Discretionary         0320 Consumer Products                                0320450 Cosmetics                                        
20111031 761565100 US7615651004 REXX     NASDAQ       REX ENERGY CORP                5022      77749.48  0.014143 06 Energy                         0620 Non-Renewable Energy                             0620670 Oil: Crude Producers                             
20111031 761624105 US7616241052 REX      NYSE         REX AMERICAN RESOURCES         6800     124032.00  0.022562 06 Energy                         0630 Alternative Energy                               0630478 Alternative Energy                               
20111031 763165107 US7631651079 RELL     NASDAQ       RICHARDSON ELECTRONICS        14102     183184.98  0.033322 01 Technology                     0120 Electronics                                      0120475 Electronics                                      
20111031 766559603 US7665596034 RIGL     NASDAQ       RIGEL PHARMACEUTICALS         16253     127587.80  0.023209 02 Health Care                    0230 Pharmaceuticals & Biotech                        0230412 Biotechnology                                    
20111031 766721104 US7667211046 RIMG     NASDAQ       RIMAGE CORP                    9499     105438.90  0.019180 01 Technology                     0130 Information Technology                           0130449 Computer Technology                              
20111031 767754104 US7677541044 RAD      NYSE         RITE AID CORP                544541     631667.47  0.114904 04 Consumer Staples               0420 Personal Care/Drug & Grocery Stores              0420459 Drug & Grocery Store Chains                      
20111031 76973Q105 US76973Q1058 RRTS     NYSE         ROADRUNNER TRNSN SVCS          8545     142609.37  0.025942 08 Producer Durables              0840 Transportation & Freight                         0840865 Truckers                                         
20111031 770196103 US7701961036 RBN      NYSE         ROBBINS & MYERS INC           39425    1761903.25  0.320501 08 Producer Durables              0830 Scientific Instruments & Services                0830524 Scientific Instruments: Control & Filter         
20111031 774188106 US7741881061 RCKB     NASDAQ       ROCKVILLE FINL INC            29505     296525.25  0.053940 10 Financial Services             1010 Banks                                            1010400 Banks: Diversified                               
20111031 775043102 US7750431022 RSTI     NASDAQ       ROFIN SINAR TECHNOLOGIES      15076     391958.32  0.071300 01 Technology                     0120 Electronics                                      0120475 Electronics                                      
20111031 775133101 US7751331015 ROG      NYSE         ROGERS CORP                   10524     454302.56  0.082640 01 Technology                     0120 Electronics                                      0120463 Electronic Components                            
20111031 77581P109 US77581P1093 ROMA     NASDAQ       ROMA FINANCIAL CORP            7509      72612.03  0.013209 10 Financial Services             1010 Banks                                            1010400 Banks: Diversified                               
20111031 777780107 US7777801074 RST      NYSE         ROSETTA STONE INC             10968     108912.24  0.019812 03 Consumer Discretionary         0330 Consumer Services                                0330461 Education Services                               
20111031 781182100 US7811821005 RT       NYSE         RUBY TUESDAY INC              65098     546172.22  0.099352 03 Consumer Discretionary         0340 Leisure                                          0340810 Restaurants                                      
20111031 781258108 US7812581087 RDK      NYSE         RUDDICK CORP                  22602     987957.90  0.179716 04 Consumer Staples               0420 Personal Care/Drug & Grocery Stores              0420459 Drug & Grocery Store Chains                      
20111031 781270103 US7812701032 RTEC     NASDAQ       RUDOLPH TECHNOLOGIES INC      31652     233275.24  0.042434 01 Technology                     0120 Electronics                                      0120738 Production Technology Equipment                  
20111031 781846209 US7818462092 RUSHA    NASDAQ       RUSH ENTERPRISES INC          32399     625300.70  0.113746 08 Producer Durables              0840 Transportation & Freight                         0840350 Commercial Vehicles & Parts                      
20111031 783332109 US7833321091 RUTH     NASDAQ       RUTH'S HOSPITALITY GROUP      29238     137998.98  0.025103 03 Consumer Discretionary         0340 Leisure                                          0340810 Restaurants                                      
20111031 783764103 US7837641031 RYL      NYSE         RYLAND GROUP INC              44378     599103.00  0.108980 03 Consumer Discretionary         0320 Consumer Products                                0320501 Homebuilding                                     
20111031 783859101 US7838591011 STBA     NASDAQ       S & T BANCORP INC             28056     523805.52  0.095283 10 Financial Services             1010 Banks                                            1010400 Banks: Diversified                               
20111031 78401V102 US78401V1026 SCBT     NASDAQ       SCBT FINANCIAL CORP           13972     412593.16  0.075053 10 Financial Services             1010 Banks                                            1010400 Banks: Diversified                               
20111031 784305104 US7843051043 SJW      NYSE         SJW CORP                      14099     328224.72  0.059706 11 Utilities                      1110 Utilities                                        1110882 Utilities: Water                                 
20111031 78463B101 US78463B1017 SONE     NASDAQ       S1 CORPORATION                46064     448198.40  0.081530 10 Financial Services             1020 Consumer Finance & Credit Services               1020489 Financial Data & Systems                         
20111031 78467J100 US78467J1007 SSNC     NASDAQ       SS&C TECHNOLOGIES HLDGS       25216     399925.76  0.072749 01 Technology                     0130 Information Technology                           0130439 Computer Services Software & Systems             
20111031 78478V100 US78478V1008 STRI     NYSE         STR HOLDINGS INC              30216     258346.80  0.046995 06 Energy                         0610 Energy Equipment & Services                      0610477 Energy Equipment                                 
20111031 78486Q101 US78486Q1013 SIVB     NASDAQ       SVB FINANCIAL GROUP           33367    1532837.99  0.278833 10 Financial Services             1010 Banks                                            1010400 Banks: Diversified                               
20111031 78503N107 US78503N1072 SWS      NYSE         SWS GROUP INC                 29148     160605.48  0.029215 10 Financial Services             1040 Investment Banking & Brokerage Services          1040823 Securities Brokerage & Services                  
20111031 785060104 US7850601045 SYBT     NASDAQ       S Y BANCORP INC               10242     210773.16  0.038341 10 Financial Services             1010 Banks                                            1010400 Banks: Diversified                               
20111031 78573L106 US78573L1061 SBRA     NASDAQ       SABRA HEALTH CARE REIT        26730     274509.91  0.049935 10 Financial Services             1050 Real Estate                                      1050806 Real Estate Investment Trusts (REITs)            
20111031 786449207 US7864492076 SFE      NYSE         SAFEGUARD SCIENTIFICS         20681     349715.71  0.063615 01 Technology                     0130 Information Technology                           0130449 Computer Technology                              
20111031 78648T100 US78648T1007 SAFT     NASDAQ       SAFETY INSURANCE GRP INC      12617     537736.54  0.097818 10 Financial Services             1030 Insurance                                        1030542 Insurance: Property-Casualty                     
20111031 786598300 US7865983008 SGA      NYSE AMEX    SAGA COMMUNICATIONS INC        3605     135187.50  0.024591 03 Consumer Discretionary         0350 Media                                            0350760 Radio & TV Broadcasters                          
20111031 78709Y105 US78709Y1055 SAIA     NASDAQ       SAIA INC                      15926     212612.10  0.038675 08 Producer Durables              0840 Transportation & Freight                         0840865 Truckers                                         
20111031 79377W108 US79377W1080 SKS      NYSE         SAKS INC                     115324    1218974.68  0.221739 03 Consumer Discretionary         0360 Retail                                           0360815 Diversified Retail                               
20111031 800013104 US8000131040 SAFM     NASDAQ       SANDERSON FARMS INC           22139    1095880.50  0.199347 04 Consumer Staples               0410 Food/Beverage & Tobacco                          0410305 Agriculture Fishing & Ranching                   
20111031 800363103 US8003631038 SASR     NASDAQ       SANDY SPRING BANCORP          24087     409719.87  0.074531 10 Financial Services             1010 Banks                                            1010400 Banks: Diversified                               
20111031 800907206 US8009072062 SANM     NASDAQ       SANMINA SCI CORP              80513     709319.53  0.129030 01 Technology                     0120 Electronics                                      0120643 Technology: Misc                                 
20111031 80517Q100 US80517Q1004 SVNT     NASDAQ       SAVIENT PHARMACEUTICALS       20530      76988.52  0.014005 02 Health Care                    0230 Pharmaceuticals & Biotech                        0230412 Biotechnology                                    
20111031 806037107 US8060371072 SCSC     NASDAQ       SCANSOURCE INC                23063     801644.51  0.145824 01 Technology                     0120 Electronics                                      0120463 Electronic Components                            
20111031 806373106 US8063731066 SGK      NYSE         SCHAWK INC                    11788     159020.12  0.028927 08 Producer Durables              0850 Commercial Services                              0850486 Forms and Bulk Printing Services                 
20111031 806693107 US8066931077 WNI      NYSE         SCHIFF NUTRITION INTL          8787     107375.67  0.019532 04 Consumer Staples               0410 Food/Beverage & Tobacco                          0410494 Foods                                            
20111031 807066105 US8070661058 SCHL     NASDAQ       SCHOLASTIC CORP               26568     713350.80  0.129763 03 Consumer Discretionary         0350 Media                                            0350740 Publishing                                       
20111031 807863105 US8078631053 SCHS     NASDAQ       SCHOOL SPECIALTY INC          16096     123134.40  0.022399 03 Consumer Discretionary         0330 Consumer Services                                0330461 Education Services                               
20111031 808194104 US8081941044 SHLM     NASDAQ       SCHULMAN A INC                29252     617498.91  0.112327 07 Materials & Processing         0730 Industrial Materials & Processes                 0730733 Plastics                                         
20111031 808541106 US8085411069 SWM      NYSE         SCHWEITZER-MAUDUIT INTL       16109    1132784.88  0.206060 07 Materials & Processing         0730 Industrial Materials & Processes                 0730720 Paper                                            
20111031 80874P109 US80874P1093 SGMS     NASDAQ       SCIENTIFIC GAMES CORP         27696     240678.76  0.043781 03 Consumer Discretionary         0340 Leisure                                          0340434 Casinos & Gambling                               
20111031 811054402 US8110544025 SSP      NYSE         SCRIPPS E W CO                34064     284093.76  0.051678 03 Consumer Discretionary         0350 Media                                            0350438 Diversified Media                                
20111031 811543107 US8115431079 SEB      NYSE AMEX    SEABOARD CORP                   312     685776.00  0.124747 04 Consumer Staples               0410 Food/Beverage & Tobacco                          0410305 Agriculture Fishing & Ranching                   
20111031 811656107 US8116561072 SBX      NYSE         SEABRIGHT HOLDINGS INC        20005     143635.90  0.026128 10 Financial Services             1030 Insurance                                        1030542 Insurance: Property-Casualty                     
20111031 811699107 US8116991071 SEAC     NASDAQ       SEACHANGE INTERNATIONAL       13538     114254.64  0.020784 01 Technology                     0140 Telecommunication                                0140448 Communications Technology                        
20111031 811707306 US8117073069 SBCF     NASDAQ       SEACOAST BANKING CORP FL      72473     107984.77  0.019643 10 Financial Services             1010 Banks                                            1010400 Banks: Diversified                               
20111031 812139301 US8121393016 ZZ       NYSE         SEALY CORP                    49452      76650.60  0.013943 03 Consumer Discretionary         0320 Consumer Products                                0320523 Household Furnishings                            
20111031 81616X103 US81616X1037 SCSS     NASDAQ       SELECT COMFORT CORP            7115     147781.37  0.026882 03 Consumer Discretionary         0320 Consumer Products                                0320523 Household Furnishings                            
20111031 81619Q105 US81619Q1058 SEM      NYSE         SELECT MEDICAL HOLDINGS       34673     301652.71  0.054872 02 Health Care                    0210 Health Care Services                             0210504 Health Care Facilities                           
20111031 816300107 US8163001071 SIGI     NASDAQ       SELECTIVE INSURANCE GRP       54017     865892.51  0.157511 10 Financial Services             1030 Insurance                                        1030542 Insurance: Property-Casualty                     
20111031 81663A105 US81663A1051 SEMG     NYSE         SEMGROUP CORP                 41504    1161281.92  0.211244 06 Energy                         0620 Non-Renewable Energy                             0620877 Gas Pipeline                                     
20111031 817070501 US8170705011 SENEA    NASDAQ       SENECA FOODS CORP              9236     194417.80  0.035366 04 Consumer Staples               0410 Food/Beverage & Tobacco                          0410494 Foods                                            
20111031 81725T100 US81725T1007 SXT      NYSE         SENSIENT TECHNOLOGIES         50061    1850254.56  0.336573 07 Materials & Processing         0720 Chemicals and Synthetics                         0720433 Chemicals: Diversified                           
20111031 817337405 US8173374054 SQNM     NASDAQ       SEQUENOM INC                  30212     150155.55  0.027314 02 Health Care                    0230 Pharmaceuticals & Biotech                        0230412 Biotechnology                                    
20111031 824543102 US8245431023 SHLO     NASDAQ       SHILOH INDUSTRIES INC          5378      42486.20  0.007728 07 Materials & Processing         0740 Metals & Minerals                                0740835 Steel                                            
20111031 824889109 US8248891090 SCVL     NASDAQ       SHOE CARNIVAL INC              9154     249812.66  0.045442 03 Consumer Discretionary         0360 Retail                                           0360834 Specialty Retail                                 
20111031 825549108 US8255491081 SHFL     NASDAQ       SHUFFLE MASTER INC            10319     109494.36  0.019918 03 Consumer Discretionary         0340 Leisure                                          0340434 Casinos & Gambling                               
20111031 82620P102 US82620P1021 BSRR     NASDAQ       SIERRA BANCORP                11889     130065.66  0.023660 10 Financial Services             1010 Banks                                            1010400 Banks: Diversified                               
20111031 826565103 US8265651039 SIGM     NASDAQ       SIGMA DESIGNS INC             31803     265237.02  0.048248 01 Technology                     0120 Electronics                                      0120476 Semiconductors & Components                      
20111031 82705T102 US82705T1025 SIMG     NASDAQ       SILICON IMAGE INC             16773     108020.99  0.019650 01 Technology                     0120 Electronics                                      0120476 Semiconductors & Components                      
20111031 828730200 US8287302009 SFNC     NASDAQ       SIMMONS FIRST NATIONAL        17331     449912.76  0.081842 10 Financial Services             1010 Banks                                            1010400 Banks: Diversified                               
20111031 829073105 US8290731053 SSD      NYSE         SIMPSON MANUFACTURING         41590    1275149.40  0.231957 07 Materials & Processing         0710 Building Materials & Services                    0710430 Building Materials                               
20111031 829226109 US8292261091 SBGI     NASDAQ       SINCLAIR BROADCAST GROUP      46803     448370.36  0.081561 03 Consumer Discretionary         0350 Media                                            0350760 Radio & TV Broadcasters                          
20111031 830566105 US8305661055 SKX      NYSE         SKECHERS U S A INC            37444     533951.44  0.097129 03 Consumer Discretionary         0320 Consumer Products                                0320850 Textiles Apparel & Shoes                         
20111031 83066R107 US83066R1077 SKH      NYSE         SKILLED HEALTHCARE GROUP      18025      68131.32  0.012394 02 Health Care                    0210 Health Care Services                             0210504 Health Care Facilities                           
20111031 830830105 US8308301055 SKY      NYSE         SKYLINE CORP                   6855      46339.80  0.008429 03 Consumer Discretionary         0320 Consumer Products                                0320640 Manufactured Housing                             
20111031 83083J104 US83083J1043 SKUL     NASDAQ       SKULLCANDY INC                 6232      98152.49  0.017855 03 Consumer Discretionary         0320 Consumer Products                                0320451 Consumer Electronics                             
20111031 830879102 US8308791024 SKYW     NASDAQ       SKYWEST INC                   52886     709201.26  0.129008 08 Producer Durables              0840 Transportation & Freight                         0840310 Air Transport                                    
20111031 83169Y108 US83169Y1082 SMBL     NASDAQ       SMART BALANCE INC             31352     205354.01  0.037355 04 Consumer Staples               0410 Food/Beverage & Tobacco                          0410494 Foods                                            
20111031 831756101 US8317561012 SWHC     NASDAQ       SMITH & WESSON HOLDING        39829     117892.52  0.021445 03 Consumer Discretionary         0340 Leisure                                          0340556 Leisure Time                                     
20111031 831865209 US8318652091 AOS      NYSE         SMITH A O CORP                38016    1412674.56  0.256974 08 Producer Durables              0830 Scientific Instruments & Services                0830465 Scientific Instruments: Electrical               
20111031 832154108 US8321541083 SMSI     NASDAQ       SMITH MICRO SOFTWARE INC      35870      41967.90  0.007634 01 Technology                     0130 Information Technology                           0130439 Computer Services Software & Systems             
20111031 833551104 US8335511049 LNCE     NASDAQ       SNYDER'S-LANCE INC            47240    1002432.80  0.182349 04 Consumer Staples               0410 Food/Beverage & Tobacco                          0410494 Foods                                            
20111031 83413U100 US83413U1007 SLRC     NASDAQ       SOLAR CAPITAL LTD             36478     809811.60  0.147310 10 Financial Services             1040 Investment Banking & Brokerage Services          1040544 Asset Management & Custodian                     
20111031 83415T101 US83415T1016 SZYM     NASDAQ       SOLAZYME INC                   2621      26664.01  0.004850 06 Energy                         0630 Alternative Energy                               0630478 Alternative Energy                               
20111031 83416M105 US83416M1053 SUNS     NASDAQ       SOLAR SENIOR CAP LTD           7752     116047.44  0.021110 10 Financial Services             1040 Investment Banking & Brokerage Services          1040544 Asset Management & Custodian                     
20111031 83438K103 US83438K1034 SLTM     NASDAQ       SOLTA MEDICAL INC             60599     132711.81  0.024141 02 Health Care                    0220 Medical Equipment & Services                     0220471 Medical Equipment                                
20111031 83545G102 US83545G1022 SAH      NYSE         SONIC AUTOMOTIVE INC          40241     590335.47  0.107386 03 Consumer Discretionary         0360 Retail                                           0360834 Specialty Retail                                 
20111031 835916107 US8359161077 SONS     NASDAQ       SONUS NETWORKS INC           194758     516107.68  0.093883 01 Technology                     0140 Telecommunication                                0140448 Communications Technology                        
20111031 838518108 US8385181081 SJI      NYSE         SOUTH JERSEY INDUSTRIES       24592    1384742.47  0.251893 11 Utilities                      1110 Utilities                                        1110875 Utilities: Gas Distributors                      
20111031 84470P109 US84470P1093 SBSI     NASDAQ       SOUTHSIDE BANCSHARES INC      16441     338191.37  0.061519 10 Financial Services             1010 Banks                                            1010400 Banks: Diversified                               
20111031 844767103 US8447671038 OKSB     NASDAQ       SOUTHWEST BANCORP INC OK      19439      91363.30  0.016620 10 Financial Services             1010 Banks                                            1010400 Banks: Diversified                               
20111031 844895102 US8448951025 SWX      NYSE         SOUTHWEST GAS CORP            45849    1810118.52  0.329272 11 Utilities                      1110 Utilities                                        1110875 Utilities: Gas Distributors                      
20111031 84610H108 US84610H1086 SSS      NYSE         SOVRAN SELF STORAGE           27685    1223677.00  0.222594 10 Financial Services             1050 Real Estate                                      1050806 Real Estate Investment Trusts (REITs)            
20111031 84649R200 US84649R2004 CODE     NYSE         SPANSION INC                  50312     517710.48  0.094175 01 Technology                     0120 Electronics                                      0120476 Semiconductors & Components                      
20111031 846819100 US8468191007 SPAR     NASDAQ       SPARTAN MOTORS INC            33344     163385.60  0.029721 08 Producer Durables              0840 Transportation & Freight                         0840350 Commercial Vehicles & Parts                      
20111031 846822104 US8468221044 SPTN     NASDAQ       SPARTAN STORES INC            22585     386655.20  0.070335 04 Consumer Staples               0420 Personal Care/Drug & Grocery Stores              0420459 Drug & Grocery Store Chains                      
20111031 847220209 US8472202097 SEH      NYSE         SPARTECH CORP                 30869     125328.14  0.022798 07 Materials & Processing         0730 Industrial Materials & Processes                 0730733 Plastics                                         
20111031 84763R101 US84763R1014 SPB      NYSE         SPECTRUM BRANDS HOLDINGS       3508      89050.30  0.016199 04 Consumer Staples               0420 Personal Care/Drug & Grocery Stores              0420637 Miscellaneous Consumer Staples                   
20111031 847788106 US8477881069 TRK      NYSE         SPEEDWAY MOTORSPORTS INC      11807     153491.00  0.027921 03 Consumer Discretionary         0340 Leisure                                          0340556 Leisure Time                                     
20111031 848577102 US8485771021 SAVE     NASDAQ       SPIRIT AIRLS INC              15586     256545.56  0.046667 08 Producer Durables              0840 Transportation & Freight                         0840310 Air Transport                                    
20111031 852312305 US8523123052 STAA     NASDAQ       STAAR SURGICAL CO              4691      42223.90  0.007681 02 Health Care                    0220 Medical Equipment & Services                     0220507 Medical & Dental Instruments & Supplies          
20111031 85254C305 US85254C3051 SSI      NYSE         STAGE STORES INC              31111     486264.93  0.088455 03 Consumer Discretionary         0360 Retail                                           0360834 Specialty Retail                                 
20111031 85254J102 US85254J1025 STAG     NYSE         STAG INDL INC                 15874     170486.76  0.031013 10 Financial Services             1050 Real Estate                                      1050806 Real Estate Investment Trusts (REITs)            
20111031 853626109 US8536261097 SMSC     NASDAQ       STANDARD MICROSYSTEM          23011     569752.36  0.103641 01 Technology                     0120 Electronics                                      0120476 Semiconductors & Components                      
20111031 853666105 US8536661056 SMP      NYSE         STANDARD MOTOR PRODUCTS       19673     305915.15  0.055648 03 Consumer Discretionary         0310 Auto & Auto Parts                                0310340 Auto Parts                                       
20111031 85375C101 US85375C1018 SPF      NYSE         STANDARD PACIFIC CORP        106224     322920.96  0.058741 03 Consumer Discretionary         0320 Consumer Products                                0320501 Homebuilding                                     
20111031 854231107 US8542311076 SXI      NYSE         STANDEX INTERNATIONAL         10156     392091.62  0.071324 08 Producer Durables              0820 Manufacturing & Production                       0820453 Diversified Manufacturing Operations             
20111031 85517P101 US85517P1012 CIGX     NASDAQ       STAR SCIENTIFIC INC           12204      35394.37  0.006438 04 Consumer Staples               0410 Food/Beverage & Tobacco                          0410856 Tobacco                                          
20111031 855707105 US8557071052 STFC     NASDAQ       STATE AUTO FINANCIAL          12822     170392.90  0.030996 10 Financial Services             1030 Insurance                                        1030542 Insurance: Property-Casualty                     
20111031 855716106 US8557161069 STBC     NASDAQ       STATE BANCORP INC             15131     178999.73  0.032561 10 Financial Services             1010 Banks                                            1010400 Banks: Diversified                               
20111031 85571B105 US85571B1052 STWD     NYSE         STARWOOD PPTY TRUST INC       93208    1751378.32  0.318586 10 Financial Services             1050 Real Estate                                      1050806 Real Estate Investment Trusts (REITs)            
20111031 856190103 US8561901039 STBZ     NASDAQ       STATE BK FINL CORP            31611     456462.84  0.083033 10 Financial Services             1010 Banks                                            1010400 Banks: Diversified                               
20111031 858155203 US8581552036 SCS      NYSE         STEELCASE INC                 70232     520412.98  0.094666 08 Producer Durables              0820 Manufacturing & Production                       0820650 Office Supplies Equipment                        
20111031 858375108 US8583751081 SMRT     NASDAQ       STEIN MART INC                27465     199121.25  0.036221 03 Consumer Discretionary         0360 Retail                                           0360834 Specialty Retail                                 
20111031 858495104 US8584951045 LVB      NYSE         STEINWAY MUSICAL INS           6594     166168.80  0.030227 03 Consumer Discretionary         0340 Leisure                                          0340556 Leisure Time                                     
20111031 85856G100 US85856G1004 STEL     NASDAQ       STELLARONE CORP               22978     275506.22  0.050116 10 Financial Services             1010 Banks                                            1010400 Banks: Diversified                               
20111031 858586100 US8585861003 SCL      NYSE         STEPAN CO                      8103     626280.87  0.113924 07 Materials & Processing         0720 Chemicals and Synthetics                         0720833 Chemicals: Specialty                             
20111031 859158107 US8591581074 STL      NYSE         STERLING BANCORP              30927     255147.75  0.046413 10 Financial Services             1010 Banks                                            1010400 Banks: Diversified                               
20111031 859241101 US8592411016 STRL     NASDAQ       STERLING CONSTRUCTION CO      16461     204939.45  0.037280 08 Producer Durables              0820 Manufacturing & Production                       0820443 Construction                                     
20111031 859319303 US8593193035 STSA     NASDAQ       STERLING FINL CORP WASH       26821     402583.21  0.073232 10 Financial Services             1010 Banks                                            1010400 Banks: Diversified                               
20111031 860370105 US8603701058 STEI     NASDAQ       STEWART ENTERPRISES           78786     507381.84  0.092296 03 Consumer Discretionary         0330 Consumer Services                                0330495 Funeral Parlors & Cemetery                       
20111031 860372101 US8603721015 STC      NYSE         STEWART INFORMATION           18188     182607.52  0.033217 10 Financial Services             1030 Insurance                                        1030542 Insurance: Property-Casualty                     
20111031 860630102 US8606301021 SF       NYSE         STIFEL FINANCIAL CORP         32340    1030657.95  0.187483 10 Financial Services             1040 Investment Banking & Brokerage Services          1040457 Diversified Financial Services                   
20111031 86272T106 US86272T1060 BEE      NYSE         STRATEGIC HOTEL & RESORT     130575     742970.91  0.135151 10 Financial Services             1050 Real Estate                                      1050806 Real Estate Investment Trusts (REITs)            
20111031 86323M100 US86323M1009 SGS      NYSE AMEX    STREAM GLOBAL SVCS INC         9161      28673.93  0.005216 08 Producer Durables              0850 Commercial Services                              0850365 Back Office Support HR & Consutling              
20111031 864739107 US8647391072 SUBK     NASDAQ       SUFFOLK BANCORP                9712      82649.12  0.015034 10 Financial Services             1010 Banks                                            1010400 Banks: Diversified                               
20111031 865646103 US8656461030 SUMR     NASDAQ       SUMMER INFANT INC             13333     104264.06  0.018966 03 Consumer Discretionary         0320 Consumer Products                                0320521 Household Equip & Products                       
20111031 866082100 US8660821005 INN      NYSE         SUMMIT HOTEL PROPER           27285     220189.95  0.040054 10 Financial Services             1050 Real Estate                                      1050806 Real Estate Investment Trusts (REITs)            
20111031 86663B102 US86663B1026 SNBC     NASDAQ       SUN BANCORP INC NJ            37605     111686.85  0.020317 10 Financial Services             1010 Banks                                            1010400 Banks: Diversified                               
20111031 866674104 US8666741041 SUI      NYSE         SUN COMMUNITIES INC           21237     808704.96  0.147108 10 Financial Services             1050 Real Estate                                      1050806 Real Estate Investment Trusts (REITs)            
20111031 86677E100 US86677E1001 SUNH     NASDAQ       SUN HEALTHCARE GROUP INC      25092      65741.04  0.011959 02 Health Care                    0210 Health Care Services                             0210499 Health Care Services                             
20111031 86722A103 US86722A1034 SXC      NYSE         SUNCOKE ENERGY INC             6951      87710.77  0.015955 06 Energy                         0620 Non-Renewable Energy                             0620435 Coal                                             
20111031 867328601 US8673286014 SNSS     NASDAQ       SUNESIS PHARMACEUTICALS        1877       2534.36  0.000461 02 Health Care                    0230 Pharmaceuticals & Biotech                        0230412 Biotechnology                                    
20111031 86768K106 US86768K1060 SRZ      NYSE         SUNRISE SENIOR LIVING         14463      79549.47  0.014471 02 Health Care                    0210 Health Care Services                             0210504 Health Care Facilities                           
20111031 867892101 US8678921011 SHO      NYSE         SUNSTONE HOTEL INVS INC      118183     821371.85  0.149413 10 Financial Services             1050 Real Estate                                      1050806 Real Estate Investment Trusts (REITs)            
20111031 868168105 US8681681057 SUP      NYSE         SUPERIOR INDUSTRIES INTL      23408     428132.32  0.077880 03 Consumer Discretionary         0310 Auto & Auto Parts                                0310340 Auto Parts                                       
20111031 868532102 US8685321023 SUPX     NASDAQ       SUPERTEX INC                  11076     204462.96  0.037193 01 Technology                     0120 Electronics                                      0120476 Semiconductors & Components                      
20111031 86858W101 US86858W1018 SPRT     NASDAQ       SUPPORT.COM INC               18423      38874.47  0.007072 01 Technology                     0130 Information Technology                           0130439 Computer Services Software & Systems             
20111031 868733106 US8687331061 SURW     NASDAQ       SUREWEST COMMUNICATIONS       13203     151430.84  0.027546 11 Utilities                      1110 Utilities                                        1110880 Utilities: Telecommunications                    
20111031 868873100 US8688731004 SRDX     NASDAQ       SURMODICS INC                 15257     160808.78  0.029252 02 Health Care                    0220 Medical Equipment & Services                     0220507 Medical & Dental Instruments & Supplies          
20111031 869099101 US8690991018 SUSQ     NASDAQ       SUSQUEHANNA BANCSHARES       156683    1137518.58  0.206922 10 Financial Services             1010 Banks                                            1010400 Banks: Diversified                               
20111031 869233106 US8692331064 SUSS     NASDAQ       SUSSER HOLDINGS CORP           8036     176470.56  0.032101 04 Consumer Staples               0420 Personal Care/Drug & Grocery Stores              0420459 Drug & Grocery Store Chains                      
20111031 870738101 US8707381013 SFY      NYSE         SWIFT ENERGY CO               42423    1298992.26  0.236295 06 Energy                         0620 Non-Renewable Energy                             0620670 Oil: Crude Producers                             
20111031 87074U101 US87074U1016 SWFT     NYSE         SWIFT TRANSN CO               56169     499898.74  0.090935 08 Producer Durables              0840 Transportation & Freight                         0840865 Truckers                                         
20111031 871206405 US8712064059 SCMR     NASDAQ       SYCAMORE NETWORKS INC         19980     384015.60  0.069855 01 Technology                     0140 Telecommunication                                0140448 Communications Technology                        
20111031 871237103 US8712371033 SYKE     NASDAQ       SYKES ENTERPRISES INC         37041     590059.78  0.107335 08 Producer Durables              0850 Commercial Services                              0850365 Back Office Support HR & Consutling              
20111031 87151Q106 US87151Q1067 SYA      NYSE         SYMETRA FINANCIAL CORP        67567     626346.09  0.113936 10 Financial Services             1030 Insurance                                        1030528 Insurance: Life                                  
20111031 871543104 US8715431040 SYMM     NASDAQ       SYMMETRICOM INC               43265     222814.75  0.040531 01 Technology                     0140 Telecommunication                                0140849 Telecommunications Equipment                     
20111031 871546206 US8715462060 SMA      NYSE         SYMMETRY MEDICAL INC          27244     247642.30  0.045048 02 Health Care                    0220 Medical Equipment & Services                     0220507 Medical & Dental Instruments & Supplies          
20111031 871551107 US8715511072 SYMS     NASDAQ       SYMS CORP                      6487      50663.47  0.009216 03 Consumer Discretionary         0360 Retail                                           0360834 Specialty Retail                                 
20111031 87162W100 US87162W1009 SNX      NYSE         SYNNEX CORP                   25151     726109.37  0.132084 01 Technology                     0130 Information Technology                           0130439 Computer Services Software & Systems             
20111031 871851101 US8718511012 SYX      NYSE         SYSTEMAX INC                  10198     154281.94  0.028065 03 Consumer Discretionary         0360 Retail                                           0360834 Specialty Retail                                 
20111031 872438106 US8724381061 TCRD     NASDAQ       THL CR INC                     9260     106953.00  0.019455 10 Financial Services             1040 Investment Banking & Brokerage Services          1040544 Asset Management & Custodian                     
20111031 872443403 US8724434035 THQI     NASDAQ       THQ INC                       68043     144931.59  0.026364 01 Technology                     0130 Information Technology                           0130469 Electronic Entertainment                         
20111031 87244T109 US87244T1097 TICC     NASDAQ       TICC CAPITAL CORP             32258     287418.78  0.052283 10 Financial Services             1040 Investment Banking & Brokerage Services          1040544 Asset Management & Custodian                     
20111031 87261Q103 US87261Q1031 TMS      NYSE         TMS INTL CORP                  7648      65694.17  0.011950 07 Materials & Processing         0740 Metals & Minerals                                0740835 Steel                                            
20111031 87305R109 US87305R1095 TTMI     NASDAQ       TTM TECHNOLOGIES INC          39648     442857.06  0.080558 01 Technology                     0120 Electronics                                      0120463 Electronic Components                            
20111031 874161102 US8741611029 TLB      NYSE         TALBOTS INC                   69906     183852.78  0.033444 03 Consumer Discretionary         0360 Retail                                           0360834 Specialty Retail                                 
20111031 87582Y108 US87582Y1082 TNGO     NASDAQ       TANGOE INC                     2725      36664.27  0.006669 01 Technology                     0130 Information Technology                           0130439 Computer Services Software & Systems             
20111031 876851106 US8768511060 TAYC     NASDAQ       TAYLOR CAPITAL GROUP INC       7368      68440.82  0.012450 10 Financial Services             1010 Banks                                            1010400 Banks: Diversified                               
20111031 87819P102 US87819P1021 TEA      NYSE         TEAVANA HLDGS INC              4735     108230.28  0.019688 03 Consumer Discretionary         0360 Retail                                           0360834 Specialty Retail                                 
20111031 87874R100 US87874R1005 TTGT     NASDAQ       TECHTARGET INC                 4247      31475.66  0.005726 01 Technology                     0130 Information Technology                           0130439 Computer Services Software & Systems             
20111031 878895200 US8788952005 TECUA    NASDAQ       TECUMSEH PRODS CO             18480     117532.80  0.021380 08 Producer Durables              0810 Machinery                                        0810584 Machinery: Industrial                            
20111031 879101103 US8791011039 TKLC     NASDAQ       TEKELEC                       61601     604921.82  0.110039 01 Technology                     0140 Telecommunication                                0140448 Communications Technology                        
20111031 87929J103 US87929J1034 TSYS     NASDAQ       TELECOMMUNICATION SYSTEM      26859      88633.55  0.016123 01 Technology                     0130 Information Technology                           0130439 Computer Services Software & Systems             
20111031 879360105 US8793601050 TDY      NYSE         TELEDYNE TECHNOLOGIES         26445    1440413.40  0.262020 08 Producer Durables              0840 Transportation & Freight                         0840300 Aerospace                                        
20111031 879455103 US8794551031 TNAV     NASDAQ       TELENAV INC                    1004       8610.02  0.001566 01 Technology                     0140 Telecommunication                                0140448 Communications Technology                        
20111031 88145X108 US88145X1081 TBNK     NASDAQ       TERRITORIAL BANCORP INC       11981     235426.65  0.042826 10 Financial Services             1010 Banks                                            1010820 Banks: Savings/Thrifts & Mortgage Lend           
20111031 88146M101 US88146M1018 TRNO     NYSE         TERRENO REALTY CORP            9291     115672.95  0.021042 10 Financial Services             1050 Real Estate                                      1050806 Real Estate Investment Trusts (REITs)            
20111031 88157K101 CA88157K1012 TESO     NASDAQ       TESCO CORP                     5703      88229.49  0.016049 06 Energy                         0610 Energy Equipment & Services                      0610600 Oil Well Equipment & Services                    
20111031 88162F105 US88162F1057 TTI      NYSE         TETRA TECHNOLOGIES INC        68371     649521.56  0.118152 06 Energy                         0610 Energy Equipment & Services                      0610600 Oil Well Equipment & Services                    
20111031 88162G103 US88162G1031 TTEK     NASDAQ       TETRA TECH INC                49688    1084675.31  0.197309 08 Producer Durables              0850 Commercial Services                              0850479 Engineering & Contracting Services               
20111031 88164L100 US88164L1008 TSRA     NASDAQ       TESSERA TECHNOLOGIES INC      51118     703894.86  0.128043 01 Technology                     0120 Electronics                                      0120738 Production Technology Equipment                  
20111031 88224Q107 US88224Q1076 TCBI     NASDAQ       TEXAS CAPITAL BANCSHARES      37220    1042160.00  0.189575 10 Financial Services             1010 Banks                                            1010400 Banks: Diversified                               
20111031 882491103 US8824911031 TXI      NYSE         TEXAS INDUSTRIES INC          22778     683340.00  0.124304 07 Materials & Processing         0710 Building Materials & Services                    0710430 Building Materials                               
20111031 882681109 US8826811098 TXRH     NASDAQ       TEXAS ROADHOUSE INC            4089      58609.63  0.010661 03 Consumer Discretionary         0340 Leisure                                          0340810 Restaurants                                      
20111031 88338T104 US88338T1043 THRX     NASDAQ       THERAVANCE INC                11377     252930.83  0.046010 02 Health Care                    0230 Pharmaceuticals & Biotech                        0230412 Biotechnology                                    
20111031 884768102 CA8847681027 TC       NYSE         THOMPSON CREEK METALS        152741    1089043.33  0.198104 07 Materials & Processing         0740 Metals & Minerals                                0740635 Metals & Minerals: Diversified                   
20111031 88830R101 US88830R1014 TITN     NASDAQ       TITAN MACHINERY INC           10447     243719.74  0.044334 08 Producer Durables              0810 Machinery                                        0810570 Machinery: Agricultural                          
20111031 890110109 US8901101092 TMP      NYSE AMEX    TOMPKINS FINANCIAL CORP        8129     320526.47  0.058306 10 Financial Services             1010 Banks                                            1010400 Banks: Diversified                               
20111031 890516107 US8905161076 TR       NYSE         TOOTSIE ROLL INDUSTRIES        1854      45940.52  0.008357 04 Consumer Staples               0410 Food/Beverage & Tobacco                          0410494 Foods                                            
20111031 891709107 US8917091071 TOBC     NASDAQ       TOWER BANCORP INC             10482     269597.04  0.049041 10 Financial Services             1010 Banks                                            1010400 Banks: Diversified                               
20111031 891777104 US8917771045 TWGP     NASDAQ       TOWER GROUP INC               36869     874901.37  0.159150 10 Financial Services             1030 Insurance                                        1030542 Insurance: Property-Casualty                     
20111031 89214A102 US89214A1025 CLUB     NASDAQ       TOWN SPORTS INTL              11843     102794.13  0.018699 03 Consumer Discretionary         0340 Leisure                                          0340556 Leisure Time                                     
20111031 89214P109 US89214P1093 TOWN     NASDAQ       TOWNEBANK PORTSMOUTH VA       24348     303376.08  0.055186 10 Financial Services             1010 Banks                                            1010400 Banks: Diversified                               
20111031 89236Y104 US89236Y1047 TPCG     NASDAQ       TPC GROUP INC                  4696      93312.78  0.016974 07 Materials & Processing         0720 Chemicals and Synthetics                         0720433 Chemicals: Diversified                           
20111031 89354M106 US89354M1062 TSPT     NASDAQ       TRANSCEPT PHARM INC            1171      10217.87  0.001859 02 Health Care                    0230 Pharmaceuticals & Biotech                        0230412 Biotechnology                                    
20111031 894650100 US8946501009 TG       NYSE         TREDEGAR CORP                 23874     462439.38  0.084121 07 Materials & Processing         0730 Industrial Materials & Processes                 0730452 Diversified Materials & Processing               
20111031 89469A104 US89469A1043 THS      NYSE         TREEHOUSE FOODS INC           14591     895056.90  0.162816 04 Consumer Staples               0410 Food/Beverage & Tobacco                          0410494 Foods                                            
20111031 895848109 US8958481090 TCAP     NYSE         TRIANGLE CAPITAL CORP         22125     370815.00  0.067454 10 Financial Services             1040 Investment Banking & Brokerage Services          1040457 Diversified Financial Services                   
20111031 89600B201 US89600B2016 TPLM     NYSE AMEX    TRIANGLE PETE CORP            22288     125701.03  0.022866 06 Energy                         0620 Non-Renewable Energy                             0620670 Oil: Crude Producers                             
20111031 896095106 US8960951064 TCBK     NASDAQ       TRICO BANCSHARES              14055     208435.65  0.037916 10 Financial Services             1010 Banks                                            1010400 Banks: Diversified                               
20111031 896749108 PR8967491088 GTS      NYSE         TRIPLE-S MANAGEMENT CORP      19764     375516.00  0.068309 02 Health Care                    0210 Health Care Services                             0210503 Health Care Management Services                  
20111031 896818101 US8968181011 TGI      NYSE         TRIUMPH GROUP INC             33248    1931664.64  0.351382 08 Producer Durables              0840 Transportation & Freight                         0840300 Aerospace                                        
20111031 89785X101 US89785X1019 TBI      NYSE         TRUEBLUE INC                  15242     201507.70  0.036655 08 Producer Durables              0850 Commercial Services                              0850365 Back Office Support HR & Consutling              
20111031 898349105 US8983491056 TRST     NASDAQ       TRUSTCO BANK CORP NY          88171     437326.35  0.079552 10 Financial Services             1010 Banks                                            1010400 Banks: Diversified                               
20111031 898402102 US8984021027 TRMK     NASDAQ       TRUSTMARK CORP                63991    1416760.74  0.257717 10 Financial Services             1010 Banks                                            1010400 Banks: Diversified                               
20111031 899035505 US8990355054 TUES     NASDAQ       TUESDAY MORNING CORP          43102     156029.24  0.028383 03 Consumer Discretionary         0360 Retail                                           0360815 Diversified Retail                               
20111031 901109108 US9011091082 TPC      NYSE         TUTOR PERINI CORP             31195     453263.35  0.082451 08 Producer Durables              0820 Manufacturing & Production                       0820443 Construction                                     
20111031 90187B101 US90187B1017 TWO      NYSE         TWO HBRS INVT CORP           140578    1314404.30  0.239098 10 Financial Services             1050 Real Estate                                      1050806 Real Estate Investment Trusts (REITs)            
20111031 902748102 US9027481020 UIL      NYSE         UIL HOLDINGS CORP             50527    1721960.16  0.313235 11 Utilities                      1110 Utilities                                        1110870 Utilities: Electrical                            
20111031 902788108 US9027881088 UMBF     NASDAQ       UMB FINANCIAL CORP            32008    1180134.96  0.214674 10 Financial Services             1010 Banks                                            1010400 Banks: Diversified                               
20111031 903002103 US9030021037 UMH      NYSE AMEX    UMH PROPERTIES INC            11514     115600.56  0.021028 10 Financial Services             1050 Real Estate                                      1050806 Real Estate Investment Trusts (REITs)            
20111031 903293405 US9032934054 USG      NYSE         U S G CORP                    20780     192425.67  0.035003 07 Materials & Processing         0710 Building Materials & Services                    0710427 Building: Roofing/Wallboard & Plumbing           
20111031 90333E108 US90333E1082 USU      NYSE         USEC INC                     116058     243721.80  0.044334 06 Energy                         0630 Alternative Energy                               0630478 Alternative Energy                               
20111031 90341G103 US90341G1031 USMO     NASDAQ       USA MOBILITY INC              22101     288860.07  0.052545 11 Utilities                      1110 Utilities                                        1110880 Utilities: Telecommunications                    
20111031 90341W108 US90341W1080 LCC      NYSE         U S AIRWAYS GROUP INC        161998     934728.46  0.170033 08 Producer Durables              0840 Transportation & Freight                         0840310 Air Transport                                    
20111031 904214103 US9042141039 UMPQ     NASDAQ       UMPQUA HOLDINGS CORP         114644    1312673.80  0.238783 10 Financial Services             1010 Banks                                            1010400 Banks: Diversified                               
20111031 904677200 US9046772003 UFI      NYSE         UNIFI INC                     13929     107949.75  0.019637 07 Materials & Processing         0730 Industrial Materials & Processes                 0730852 Textile Products                                 
20111031 904708104 US9047081040 UNF      NYSE         UNIFIRST CORP MASS            14163     741433.05  0.134871 08 Producer Durables              0850 Commercial Services                              0850484 Environmental Maint & Security Service           
20111031 90653P105 US90653P1057 UDRL     NASDAQ       UNION DRILLING INC            15142     113413.58  0.020631 06 Energy                         0610 Energy Equipment & Services                      0610600 Oil Well Equipment & Services                    
20111031 90662P104 US90662P1049 UBSH     NASDAQ       UNION FIRST MARKET BKSHS      20254     259656.28  0.047233 10 Financial Services             1010 Banks                                            1010400 Banks: Diversified                               
20111031 909205106 US9092051062 UNS      NYSE         UNISOURCE ENERGY CORP         36701    1368213.28  0.248886 11 Utilities                      1110 Utilities                                        1110870 Utilities: Electrical                            
20111031 909214306 US9092143067 UIS      NYSE         UNISYS CORP                   25132     653161.76  0.118814 01 Technology                     0130 Information Technology                           0130439 Computer Services Software & Systems             
20111031 90984P303 US90984P3038 UCBI     NASDAQ       UNITED COMMUNITY BANKS        41569     307194.91  0.055881 10 Financial Services             1010 Banks                                            1010400 Banks: Diversified                               
20111031 909907107 US9099071071 UBSI     NASDAQ       UNITED BANKSHARES INC         50194    1191605.56  0.216760 10 Financial Services             1010 Banks                                            1010400 Banks: Diversified                               
20111031 91030T109 US91030T1097 UBNK     NASDAQ       UNITED FINANCIAL BANCORP      16104     259918.56  0.047281 10 Financial Services             1010 Banks                                            1010820 Banks: Savings/Thrifts & Mortgage Lend           
20111031 910331107 US9103311075 UFCS     NASDAQ       UNITED FIRE & CAS CO          21533     405035.73  0.073678 10 Financial Services             1030 Insurance                                        1030542 Insurance: Property-Casualty                     
20111031 911268100 US9112681005 UNTD     NASDAQ       UNITED ONLINE INC             88638     523850.58  0.095292 01 Technology                     0130 Information Technology                           0130439 Computer Services Software & Systems             
20111031 911363109 US9113631090 URI      NYSE         UNITED RENTALS INC            44065    1031552.64  0.187646 08 Producer Durables              0840 Transportation & Freight                         0840808 Commercial Services: Rental & Leasing            
20111031 911805109 US9118051096 USEG     NASDAQ       U S ENERGY CORP               24394      76353.22  0.013889 07 Materials & Processing         0740 Metals & Minerals                                0740635 Metals & Minerals: Diversified                   
20111031 911922102 US9119221029 USLM     NASDAQ       UNITED STATES LIME & MIN       2089     114883.56  0.020898 07 Materials & Processing         0740 Metals & Minerals                                0740635 Metals & Minerals: Diversified                   
20111031 913004107 US9130041075 USTR     NASDAQ       UNITED STATIONERS INC         16240     516598.15  0.093972 08 Producer Durables              0820 Manufacturing & Production                       0820650 Office Supplies Equipment                        
20111031 91324T302 US91324T3023 UNTK     NASDAQ       UNITEK GLOBAL SVCS INC        10981      51281.27  0.009328 08 Producer Durables              0850 Commercial Services                              0850479 Engineering & Contracting Services               
20111031 913259107 US9132591077 UTL      NYSE         UNITIL CORP                   10926     291396.42  0.053007 11 Utilities                      1110 Utilities                                        1110870 Utilities: Electrical                            
20111031 91338E101 US91338E1010 UAM      NYSE         UNIVERSAL AMERICAN CORP       32282     371243.00  0.067531 02 Health Care                    0210 Health Care Services                             0210503 Health Care Management Services                  
20111031 913456109 US9134561094 UVV      NYSE         UNIVERSAL CORP                23160     991711.20  0.180398 04 Consumer Staples               0410 Food/Beverage & Tobacco                          0410856 Tobacco                                          
20111031 913483103 US9134831034 UEIC     NASDAQ       UNIVERSAL ELECTRONICS          9223     171453.60  0.031188 03 Consumer Discretionary         0320 Consumer Products                                0320451 Consumer Electronics                             
20111031 913543104 US9135431040 UFPI     NASDAQ       UNIVERSAL FOREST PRODS        19525     548066.75  0.099697 07 Materials & Processing         0730 Industrial Materials & Processes                 0730496 Forest Products                                  
20111031 91359E105 US91359E1055 UHT      NYSE         UNIVERSAL HEALTH REALTY        5602     212732.24  0.038697 10 Financial Services             1050 Real Estate                                      1050806 Real Estate Investment Trusts (REITs)            
20111031 91359V107 US91359V1070 UVE      NYSE AMEX    UNIVERSAL INSURANCE           18748      79116.56  0.014392 10 Financial Services             1030 Insurance                                        1030542 Insurance: Property-Casualty                     
20111031 913837100 US9138371003 USAP     NASDAQ       UNIVERSAL STAINLESS & AL       7104     267465.60  0.048654 07 Materials & Processing         0740 Metals & Minerals                                0740835 Steel                                            
20111031 91388P105 US91388P1057 UACL     NASDAQ       UNIVERSAL TRUCKLOAD SVCS       5483      85096.16  0.015480 08 Producer Durables              0840 Transportation & Freight                         0840865 Truckers                                         
20111031 915271100 US9152711001 UVSP     NASDAQ       UNIVEST CORP OF PENN          16772     255102.12  0.046405 10 Financial Services             1010 Banks                                            1010400 Banks: Diversified                               
20111031 91688R108 CA91688R1082 URG      NYSE AMEX    UR ENERGY INC                 18731      24163.65  0.004396 07 Materials & Processing         0740 Metals & Minerals                                0740635 Metals & Minerals: Diversified                   
20111031 917277204 US9172772041 UPI      NASDAQ       UROPLASTY INC                  2624      11835.72  0.002153 02 Health Care                    0220 Medical Equipment & Services                     0220507 Medical & Dental Instruments & Supplies          
20111031 917286205 US9172862057 UBA      NYSE         URSTADT BIDDLE PPTYS INS      19974     356335.20  0.064820 10 Financial Services             1050 Real Estate                                      1050806 Real Estate Investment Trusts (REITs)            
20111031 91732J102 US91732J1025 ECOL     NASDAQ       US ECOLOGY INC                 1007      18188.32  0.003309 08 Producer Durables              0830 Scientific Instruments & Services                0830735 Scientific Instruments: Pollution Control        
20111031 918284100 US9182841000 VSEC     NASDAQ       VSE CORP                       4131     100465.92  0.018275 08 Producer Durables              0850 Commercial Services                              0850479 Engineering & Contracting Services               
20111031 91851C201 US91851C2017 EGY      NYSE         VAALCO ENERGY INC             45058     306844.05  0.055817 06 Energy                         0620 Non-Renewable Energy                             0620670 Oil: Crude Producers                             
20111031 91879Q109 US91879Q1094 MTN      NYSE         VAIL RESORTS INC               7525     335334.63  0.060999 03 Consumer Discretionary         0340 Leisure                                          0340556 Leisure Time                                     
20111031 918914102 US9189141024 VLNC     NASDAQ       VALENCE TECHNOLOGY INC        37916      36360.96  0.006614 08 Producer Durables              0830 Scientific Instruments & Services                0830465 Scientific Instruments: Electrical               
20111031 920437100 US9204371002 VALU     NASDAQ       VALUE LINE INC                  160       2019.79  0.000367 10 Financial Services             1020 Consumer Finance & Credit Services               1020489 Financial Data & Systems                         
20111031 92047K107 US92047K1079 VVTV     NASDAQ       VALUEVISION MEDIA INC          8224      26976.42  0.004907 03 Consumer Discretionary         0360 Retail                                           0360815 Diversified Retail                               
20111031 921659108 US9216591084 VNDA     NASDAQ       VANDA PHARMACEUTICALS          1742      10123.26  0.001841 02 Health Care                    0230 Pharmaceuticals & Biotech                        0230412 Biotechnology                                    
20111031 922036207 US9220362076 VHS      NYSE         VANGUARD HEALTH SYS INC       19805     192503.47  0.035018 02 Health Care                    0210 Health Care Services                             0210504 Health Care Facilities                           
20111031 92240M108 US92240M1080 VGR      NYSE         VECTOR GROUP LTD              15204     267134.70  0.048593 04 Consumer Staples               0410 Food/Beverage & Tobacco                          0410856 Tobacco                                          
20111031 922417100 US9224171002 VECO     NASDAQ       VEECO INSTRUMENTS INC         12303     328371.82  0.059733 01 Technology                     0120 Electronics                                      0120738 Production Technology Equipment                  
20111031 92275P307 US92275P3073 VQ       NYSE         VENOCO INC                    22617     220284.32  0.040071 06 Energy                         0620 Non-Renewable Energy                             0620670 Oil: Crude Producers                             
20111031 92531L108 US92531L1089 VRS      NYSE         VERSO PAPER CORP              14945      27349.35  0.004975 07 Materials & Processing         0730 Industrial Materials & Processes                 0730720 Paper                                            
20111031 92552R406 US92552R4065 VVI      NYSE         VIAD CORP                     17665     369712.92  0.067253 03 Consumer Discretionary         0350 Media                                            0350301 Advertising Agencies                             
20111031 92552V100 US92552V1008 VSAT     NASDAQ       VIASAT INC                    22711     967246.75  0.175948 01 Technology                     0140 Telecommunication                                0140448 Communications Technology                        
20111031 92553H803 US92553H8034 VIAS     NASDAQ       VIASYSTEMS GROUP INC           2607      53670.20  0.009763 01 Technology                     0120 Electronics                                      0120463 Electronic Components                            
20111031 925602104 US9256021042 VICL     NASDAQ       VICAL INC                      7816      23372.31  0.004252 02 Health Care                    0230 Pharmaceuticals & Biotech                        0230460 Pharmaceuticals                                  
20111031 92672A101 US92672A1016 VPFG     NASDAQ       VIEWPOINT FINL GROUP          34839     448377.93  0.081563 10 Financial Services             1010 Banks                                            1010820 Banks: Savings/Thrifts & Mortgage Lend           
20111031 927107409 US9271074091 VLGEA    NASDAQ       VILLAGE SUPER MARKET INC       6250     177250.00  0.032243 04 Consumer Staples               0420 Personal Care/Drug & Grocery Stores              0420459 Drug & Grocery Store Chains                      
20111031 92778Q109 US92778Q1094 VCBI     NASDAQ       VIRGINIA COMM BANCORP         23419     148944.84  0.027094 10 Financial Services             1010 Banks                                            1010400 Banks: Diversified                               
20111031 927926303 CA9279263037 VGZ      NYSE AMEX    VISTA GOLD CORP               59884     216178.89  0.039324 07 Materials & Processing         0740 Metals & Minerals                                0740498 Gold                                             
20111031 928241108 US9282411084 VPHM     NASDAQ       VIROPHARMA INC                70751    1432000.24  0.260490 02 Health Care                    0230 Pharmaceuticals & Biotech                        0230412 Biotechnology                                    
20111031 92828Q109 US92828Q1094 VRTS     NASDAQ       VIRTUS INVESTMENT PTNRS         361      22585.31  0.004108 10 Financial Services             1040 Investment Banking & Brokerage Services          1040544 Asset Management & Custodian                     
20111031 92835K103 US92835K1034 VPG      NYSE         VISHAY PRECISION GROUP        12299     179442.41  0.032642 08 Producer Durables              0830 Scientific Instruments & Services                0830474 Scientific Instruments: Gauges & Meters          
20111031 92886T201 US92886T2015 VG       NYSE         VONAGE HLDGS CORP             79561     266527.40  0.048483 11 Utilities                      1110 Utilities                                        1110880 Utilities: Telecommunications                    
20111031 92911K100 US92911K1007 VOG      NYSE AMEX    VOYAGER OIL & GAS INC         12776      35262.82  0.006415 06 Energy                         0620 Non-Renewable Energy                             0620670 Oil: Crude Producers                             
20111031 92924F106 US92924F1066 WGL      NYSE         WGL HOLDINGS INC              51226    2192985.06  0.398917 11 Utilities                      1110 Utilities                                        1110875 Utilities: Gas Distributors                      
20111031 92926K103 US92926K1034 WCAA     NASDAQ       WCA WASTE CORP                15667      74574.29  0.013566 08 Producer Durables              0830 Scientific Instruments & Services                0830735 Scientific Instruments: Pollution Control        
20111031 929328102 US9293281021 WSFS     NASDAQ       WSFS FINANCIAL CORP            6421     255234.75  0.046429 10 Financial Services             1010 Banks                                            1010820 Banks: Savings/Thrifts & Mortgage Lend           
20111031 93317W102 US93317W1027 WAC      NYSE AMEX    WALTER INV MGMT CORP          25802     654338.72  0.119028 10 Financial Services             1050 Real Estate                                      1050805 Real Estate                                      
20111031 934390402 US9343904028 WRC      NYSE         WARNACO GROUP INC              6951     341319.93  0.062088 03 Consumer Discretionary         0320 Consumer Products                                0320850 Textiles Apparel & Shoes                         
20111031 93564A100 US93564A1007 WRES     NASDAQ       WARREN RESOURCES INC          59922     187553.92  0.034117 06 Energy                         0620 Non-Renewable Energy                             0620670 Oil: Crude Producers                             
20111031 937303105 US9373031056 WBCO     NASDAQ       WASHINGTON BANKING CO         15333     181236.06  0.032968 10 Financial Services             1010 Banks                                            1010400 Banks: Diversified                               
20111031 939653101 US9396531017 WRE      NYSE         WASHINGTON REAL ESTATE        49129    1422754.99  0.258808 10 Financial Services             1050 Real Estate                                      1050806 Real Estate Investment Trusts (REITs)            
20111031 940610108 US9406101082 WASH     NASDAQ       WASHINGTON TRUST BANCORP      14253     334660.44  0.060877 10 Financial Services             1010 Banks                                            1010400 Banks: Diversified                               
20111031 942749102 US9427491025 WTS      NYSE         WATTS WATER TECH INC          27202     856570.83  0.155815 08 Producer Durables              0830 Scientific Instruments & Services                0830524 Scientific Instruments: Control & Filter         
20111031 943315101 US9433151019 WPP      NYSE         WAUSAU PAPER CORP             49176     368820.00  0.067091 07 Materials & Processing         0730 Industrial Materials & Processes                 0730720 Paper                                            
20111031 947890109 US9478901096 WBS      NYSE         WEBSTER FINANCIAL CORP        72042    1414904.88  0.257380 10 Financial Services             1010 Banks                                            1010400 Banks: Diversified                               
20111031 948849104 US9488491047 WMK      NYSE         WEIS MARKETS INC              11001     435089.55  0.079145 04 Consumer Staples               0420 Personal Care/Drug & Grocery Stores              0420459 Drug & Grocery Store Chains                      
20111031 950755108 US9507551086 WERN     NASDAQ       WERNER ENTERPRISES INC        37425     886968.76  0.161345 08 Producer Durables              0840 Transportation & Freight                         0840865 Truckers                                         
20111031 950810101 US9508101014 WSBC     NASDAQ       WESBANCO INC                  23110     458964.60  0.083488 10 Financial Services             1010 Banks                                            1010400 Banks: Diversified                               
20111031 950814103 US9508141036 WAIR     NYSE         WESCO AIRCRAFT HLDGS INC      12978     146514.64  0.026652 08 Producer Durables              0840 Transportation & Freight                         0840300 Aerospace                                        
20111031 95123P106 US95123P1066 WTBA     NASDAQ       WEST BANCORPORATION INC       15559     153100.56  0.027850 10 Financial Services             1010 Banks                                            1010400 Banks: Diversified                               
20111031 952145209 US9521452097 WCBO     NASDAQ       WEST COAST BANCORP            19283     287895.19  0.052370 10 Financial Services             1010 Banks                                            1010400 Banks: Diversified                               
20111031 954235107 US9542351070 WMAR     NASDAQ       WEST MARINE INC               14798     134513.82  0.024469 03 Consumer Discretionary         0340 Leisure                                          0340556 Leisure Time                                     
20111031 955306105 US9553061055 WST      NYSE         WEST PHARMACEUTICAL SVCS      15136     588358.71  0.107026 02 Health Care                    0220 Medical Equipment & Services                     0220507 Medical & Dental Instruments & Supplies          
20111031 957090103 US9570901036 WABC     NASDAQ       WESTAMERICA BANCORP           15739     705400.02  0.128317 10 Financial Services             1010 Banks                                            1010400 Banks: Diversified                               
20111031 957541105 US9575411056 WSTL     NASDAQ       WESTELL TECHNOLOGIES INC      53095     106720.95  0.019413 01 Technology                     0140 Telecommunication                                0140448 Communications Technology                        
20111031 957638109 US9576381092 WAL      NYSE         WESTERN ALLIANCE BANCORP      69337     450690.50  0.081983 10 Financial Services             1010 Banks                                            1010400 Banks: Diversified                               
20111031 959319104 US9593191045 WNR      NYSE         WESTERN REFINING INC           3218      51433.29  0.009356 06 Energy                         0620 Non-Renewable Energy                             0620605 Oil: Refining & Marketing                        
20111031 96008P104 US96008P1049 WFD      NASDAQ       WESTFIELD FINANCIAL INC       20726     147361.82  0.026806 10 Financial Services             1010 Banks                                            1010820 Banks: Savings/Thrifts & Mortgage Lend           
20111031 960878106 US9608781061 WLB      NASDAQ       WESTMORELAND COAL CO           7212      79404.09  0.014444 06 Energy                         0620 Non-Renewable Energy                             0620435 Coal                                             
20111031 961815305 US9618153053 DIAL     NASDAQ       WESTWOOD ONE INC               5037      22011.69  0.004004 03 Consumer Discretionary         0350 Media                                            0350760 Radio & TV Broadcasters                          
20111031 961840105 US9618401056 WTSLA    NASDAQ       WET SEAL INC                  90511     379241.09  0.068986 03 Consumer Discretionary         0360 Retail                                           0360834 Specialty Retail                                 
20111031 962149100 US9621491003 WEYS     NASDAQ       WEYCO GROUP INC                7164     169786.80  0.030885 03 Consumer Discretionary         0320 Consumer Products                                0320850 Textiles Apparel & Shoes                         
20111031 966084204 US9660842041 WSR      NYSE AMEX    WHITESTONE REIT                7511      87878.70  0.015986 10 Financial Services             1050 Real Estate                                      1050806 Real Estate Investment Trusts (REITs)            
20111031 969203108 US9692031084 WG       NYSE         WILLBROS GROUP INC            31643     161061.09  0.029298 06 Energy                         0610 Energy Equipment & Services                      0610600 Oil Well Equipment & Services                    
20111031 97186T108 US97186T1088 WIBC     NASDAQ       WILSHIRE BANCORP INC          61524     210412.08  0.038275 10 Financial Services             1010 Banks                                            1010400 Banks: Diversified                               
20111031 974280307 US9742803078 WINN     NASDAQ       WINN DIXIE STORES INC         55818     353886.12  0.064374 04 Consumer Staples               0420 Personal Care/Drug & Grocery Stores              0420459 Drug & Grocery Store Chains                      
20111031 976391300 US9763913004 FUR      NYSE         WINTHROP REALTY TRUST         28687     259617.35  0.047226 10 Financial Services             1050 Real Estate                                      1050806 Real Estate Investment Trusts (REITs)            
20111031 97650W108 US97650W1080 WTFC     NASDAQ       WINTRUST FINANCIAL CORP       34963    1009731.44  0.183676 10 Financial Services             1010 Banks                                            1010400 Banks: Diversified                               
20111031 981475106 US9814751064 INT      NYSE         WORLD FUEL SVCS CORP          30587    1218922.24  0.221729 06 Energy                         0620 Non-Renewable Energy                             0620605 Oil: Refining & Marketing                        
20111031 98156Q108 US98156Q1085 WWE      NYSE         WORLD WRESTLING ENTMNT         2888      30362.59  0.005523 03 Consumer Discretionary         0350 Media                                            0350480 Entertainment                                    
20111031 981811102 US9818111026 WOR      NYSE         WORTHINGTON INDUSTRIES        21671     374482.97  0.068121 07 Materials & Processing         0740 Metals & Minerals                                0740630 Metal Fabricating                                
20111031 98235T107 US98235T1079 WMGI     NASDAQ       WRIGHT MEDICAL GROUP INC      39021     670770.99  0.122017 02 Health Care                    0220 Medical Equipment & Services                     0220507 Medical & Dental Instruments & Supplies          
20111031 983772104 US9837721045 XOXO     NYSE         XO GROUP INC                  14054     129726.54  0.023598 03 Consumer Discretionary         0330 Consumer Services                                0330638 Consumer Services: Misc                          
20111031 983857103 US9838571035 XRIT     NASDAQ       X-RITE INC                    26382     118982.82  0.021644 08 Producer Durables              0830 Scientific Instruments & Services                0830524 Scientific Instruments: Control & Filter         
20111031 98411C100 US98411C1009 XNPT     NASDAQ       XENOPORT INC                   6364      38821.99  0.007062 02 Health Care                    0230 Pharmaceuticals & Biotech                        0230460 Pharmaceuticals                                  
20111031 987184108 US9871841089 YORW     NASDAQ       YORK WATER COMPANY            12719     216223.00  0.039332 11 Utilities                      1110 Utilities                                        1110882 Utilities: Water                                 
20111031 987520103 US9875201033 YDNT     NASDAQ       YOUNG INNOVATIONS INC          3631     104373.37  0.018986 02 Health Care                    0220 Medical Equipment & Services                     0220507 Medical & Dental Instruments & Supplies          
20111031 988858106 US9888581066 ZLC      NYSE         ZALE CORP                     32134     118574.46  0.021569 03 Consumer Discretionary         0360 Retail                                           0360834 Specialty Retail                                 
20111031 98887C105 US98887C1053 ZLCS     NASDAQ       ZALICUS INC                   29299      43069.56  0.007835 02 Health Care                    0230 Pharmaceuticals & Biotech                        0230412 Biotechnology                                    
20111031 98954A107 US98954A1079 Z        NASDAQ       ZILLOW INC                     3098      91962.76  0.016729 10 Financial Services             1050 Real Estate                                      1050805 Real Estate                                      
20111031 98974X103 US98974X1037 ZIP      NASDAQ       ZIPCAR INC                     2263      46288.21  0.008420 03 Consumer Discretionary         0330 Consumer Services                                0330809 Rental & Leasing Services: Consumer              
20111031 98975W104 US98975W1045 ZOLT     NASDAQ       ZOLTEK COMPANIES INC          27777     201383.25  0.036633 07 Materials & Processing         0720 Chemicals and Synthetics                         0720845 Synthetic Fibers & Chemicals                     
20111031 989855101 US9898551018 ZIGO     NASDAQ       ZYGO CORP                     13451     206331.50  0.037533 08 Producer Durables              0830 Scientific Instruments & Services                0830474 Scientific Instruments: Gauges & Meters          
20111031 G0129K104 BMG0129K1045 AYR      NYSE         AIRCASTLE LTD                 52183     632973.18  0.115142 08 Producer Durables              0840 Transportation & Freight                         0840808 Commercial Services: Rental & Leasing            
20111031 G0229R108 BMG0229R1088 ALTE     NASDAQ       ALTERRA CAPITAL HOLDINGS      90735    1967134.80  0.357834 10 Financial Services             1030 Insurance                                        1030535 Insurance: Multi-Line                            
20111031 G02995101 BMG029951016 ASI      NYSE         AMERICAN SAFETY INS HLDG      10445     213182.45  0.038779 10 Financial Services             1030 Insurance                                        1030542 Insurance: Property-Casualty                     
20111031 G0464B107 BMG0464B1072 AGII     NASDAQ       ARGO GROUP INTL               27445     828564.55  0.150721 10 Financial Services             1030 Insurance                                        1030542 Insurance: Property-Casualty                     
20111031 G20045202 BMG200452024 CETV     NASDAQ       CENTRAL EUROPEAN MEDIA        36632     404417.28  0.073566 03 Consumer Discretionary         0350 Media                                            0350760 Radio & TV Broadcasters                          
20111031 G23773107 KYG237731073 CWCO     NASDAQ       CONSOLIDATED WATER CO         14559     135107.52  0.024577 11 Utilities                      1110 Utilities                                        1110882 Utilities: Water                                 
20111031 G3075P101 BMG3075P1014 ESGR     NASDAQ       ENSTAR GROUP LIMITED           6890     633673.30  0.115269 10 Financial Services             1030 Insurance                                        1030542 Insurance: Property-Casualty                     
20111031 G36738105 KYG367381053 FDP      NYSE         FRESH DEL MONTE PRODUCE       36506     929442.76  0.169071 04 Consumer Staples               0410 Food/Beverage & Tobacco                          0410305 Agriculture Fishing & Ranching                   
20111031 G3682E127 BMG3682E1277 FRO      NYSE         FRONTLINE LTD                 51542     268018.40  0.048754 08 Producer Durables              0840 Transportation & Freight                         0840830 Shipping                                         
20111031 G39300101 BMG393001018 GSOL     NASDAQ       GLOBAL SOURCES LTD              581       4235.80  0.000771 08 Producer Durables              0850 Commercial Services                              0850546 International Trade & Diversified Logistics      
20111031 G39319101 IE00B5NH3H04 GBLI     NASDAQ       GLOBAL INDEMNITY PLC          13535     273271.65  0.049710 10 Financial Services             1030 Insurance                                        1030542 Insurance: Property-Casualty                     
20111031 G4095J109 KYG4095J1094 GLRE     NASDAQ       GREENLIGHT CAPITAL RE LT      21693     488723.55  0.088902 10 Financial Services             1030 Insurance                                        1030542 Insurance: Property-Casualty                     
20111031 G4388N106 BMG4388N1065 HELE     NASDAQ       HELEN OF TROY LTD             30865     892924.45  0.162428 03 Consumer Discretionary         0320 Consumer Products                                0320521 Household Equip & Products                       
20111031 G5299G106 BMG5299G1069 VLCCF    NASDAQ       KNIGHTSBRIDGE TANKERS         21983     371073.04  0.067500 08 Producer Durables              0840 Transportation & Freight                         0840830 Shipping                                         
20111031 G5753U112 BMG5753U1128 MHLD     NASDAQ       MAIDEN HOLDINGS LTD           50547     411958.05  0.074938 10 Financial Services             1030 Insurance                                        1030535 Insurance: Multi-Line                            
20111031 G62185106 BMG621851069 MRH      NYSE         MONTPELIER RE HOLDINGS        62365    1091387.50  0.198530 10 Financial Services             1030 Insurance                                        1030542 Insurance: Property-Casualty                     
20111031 G6331P104 BMG6331P1041 AOSL     NASDAQ       ALPHA & OMEGA SEMICON         14692     124147.40  0.022583 01 Technology                     0120 Electronics                                      0120476 Semiconductors & Components                      
20111031 G65773106 BMG657731060 NAT      NYSE         NORDIC AMERICAN TANKER        47225     680984.50  0.123875 08 Producer Durables              0840 Transportation & Freight                         0840830 Shipping                                         
20111031 G67742109 BMG677421098 OB       NYSE         ONEBEACON INSURANCE GRP       22187     337686.14  0.061427 10 Financial Services             1030 Insurance                                        1030542 Insurance: Property-Casualty                     
20111031 G67743107 BMG677431071 OEH      NYSE         ORIENT-EXPRESS HOTELS         95296     812874.88  0.147867 03 Consumer Discretionary         0340 Leisure                                          0340514 Hotel/Motel                                      
20111031 G7127P100 BMG7127P1005 PTP      NYSE         PLATINUM UNDERWRITER HLD      37270    1290660.10  0.234779 10 Financial Services             1030 Insurance                                        1030535 Insurance: Multi-Line                            
20111031 G72457107 BMG724571077 PRS      NYSE         PRIMUS GUARANTY LTD           25187     147092.08  0.026757 10 Financial Services             1030 Insurance                                        1030535 Insurance: Multi-Line                            
20111031 G79978105 BMG799781056 BOX      NYSE         SEACUBE CONTAINER LEASIN      11049     153581.10  0.027937 08 Producer Durables              0840 Transportation & Freight                         0840808 Commercial Services: Rental & Leasing            
20111031 G81075106 BMG810751062 SFL      NYSE         SHIP FINANCE INTL             45022     644264.82  0.117196 08 Producer Durables              0840 Transportation & Freight                         0840830 Shipping                                         
20111031 G93205113 KYG932051132 VTG      NYSE AMEX    VANTAGE DRILLING COMPANY     174664     237543.04  0.043211 06 Energy                         0620 Non-Renewable Energy                             0620660 Offshore Drilling & Other Services               
20111031 G98268108 BMG982681089 XRTX     NASDAQ       XYRATEX LTD                   30936     421967.04  0.076758 01 Technology                     0130 Information Technology                           0130449 Computer Technology                              
20111031 L3466T104 LU0490650438 FSR      NYSE         FLAGSTONE REINSURANCE         49362     419081.19  0.076233 10 Financial Services             1030 Insurance                                        1030535 Insurance: Multi-Line                            
20111031 P16994132 PAP169941328 BLX      NYSE         BANCO LATINOAMERICANO         27826     452172.50  0.082253 10 Financial Services             1010 Banks                                            1010400 Banks: Diversified                               
20111031 P94398107 BSP943981071 ULTR     NASDAQ       ULTRAPETROL BAHAMAS LTD       21350      63409.50  0.011535 08 Producer Durables              0840 Transportation & Freight                         0840830 Shipping                                         
20111031 V3267N107 LR0008764684 EXM      NYSE         EXCEL MARITIME CARRIERS       45713     129824.92  0.023616 08 Producer Durables              0840 Transportation & Freight                         0840830 Shipping                                         
20111031 Y0553W103 MHY0553W1030 BALT     NYSE         BALTIC TRADING LIMITED        16304      90650.24  0.016490 08 Producer Durables              0840 Transportation & Freight                         0840830 Shipping                                         
20111031 Y2065G105 MHY2065G1052 DHT      NYSE         DHT HOLDINGS INC              64447     103115.20  0.018757 08 Producer Durables              0840 Transportation & Freight                         0840830 Shipping                                         
20111031 Y2187A101 MHY2187A1010 EGLE     NASDAQ       EAGLE BULK SHIPPING INC       62560      96968.00  0.017639 08 Producer Durables              0840 Transportation & Freight                         0840830 Shipping                                         
20111031 Y2685T107 MHY2685T1073 GNK      NYSE         GENCO SHIPPING & TRADING      29551     265959.00  0.048380 08 Producer Durables              0840 Transportation & Freight                         0840830 Shipping                                         
20111031 Y2693R101 MHY2693R1018 GMR      NYSE         GENERAL MARITIME CORP        116039      30170.14  0.005488 08 Producer Durables              0840 Transportation & Freight                         0840830 Shipping                                         
20111031 Y7542C106 MHY7542C1066 STNG     NYSE         SCORPIO TANKERS INC           24855     158823.45  0.028891 08 Producer Durables              0840 Transportation & Freight                         0840830 Shipping                                         
20111031 Y8565N102 MHY8565N1022 TNK      NYSE         TEEKAY TANKERS LTD            42385     209381.90  0.038088 08 Producer Durables              0840 Transportation & Freight                         0840830 Shipping                                         
